ARM GAS  C:\Users\zhaoh\AppData\Local\Temp\ccDGpTNi.s 			page 1


   1              		.syntax unified
   2              		.cpu cortex-m3
   3              		.fpu softvfp
   4              		.eabi_attribute 20, 1
   5              		.eabi_attribute 21, 1
   6              		.eabi_attribute 23, 3
   7              		.eabi_attribute 24, 1
   8              		.eabi_attribute 25, 1
   9              		.eabi_attribute 26, 1
  10              		.eabi_attribute 30, 1
  11              		.eabi_attribute 34, 1
  12              		.eabi_attribute 18, 4
  13              		.thumb
  14              		.syntax unified
  15              		.file	"lifting.c"
  16              		.text
  17              	.Ltext0:
  18              		.cfi_sections	.debug_frame
  19              		.section	.text.lift_up,"ax",%progbits
  20              		.align	2
  21              		.global	lift_up
  22              		.thumb
  23              		.thumb_func
  24              		.type	lift_up, %function
  25              	lift_up:
  26              	.LFB64:
  27              		.file 1 "lifting.c"
   1:lifting.c     **** #include "header.h"
   2:lifting.c     **** #include "math.h"
   3:lifting.c     **** #include "stdlib.h"
   4:lifting.c     **** #include "header01.h"
   5:lifting.c     **** #include "string.h"
   6:lifting.c     **** #include "project.h"
   7:lifting.c     **** /* ========================================
   8:lifting.c     ****  *
   9:lifting.c     ****  * Copyright YOUR COMPANY, THE YEAR
  10:lifting.c     ****  * All Rights Reserved
  11:lifting.c     ****  * UNPUBLISHED, LICENSED SOFTWARE.
  12:lifting.c     ****  *
  13:lifting.c     ****  * CONFIDENTIAL AND PROPRIETARY INFORMATION
  14:lifting.c     ****  * WHICH IS THE PROPERTY OF your company.
  15:lifting.c     ****  *
  16:lifting.c     ****  * ========================================
  17:lifting.c     **** */
  18:lifting.c     **** 
  19:lifting.c     **** /* [] END OF FILE */
  20:lifting.c     **** char UART_str[40];
  21:lifting.c     **** void lift_up()
  22:lifting.c     **** {
  28              		.loc 1 22 0
  29              		.cfi_startproc
  30              		@ args = 0, pretend = 0, frame = 0
  31              		@ frame_needed = 0, uses_anonymous_args = 0
  32 0000 38B5     		push	{r3, r4, r5, lr}
  33              		.cfi_def_cfa_offset 16
  34              		.cfi_offset 3, -16
  35              		.cfi_offset 4, -12
ARM GAS  C:\Users\zhaoh\AppData\Local\Temp\ccDGpTNi.s 			page 2


  36              		.cfi_offset 5, -8
  37              		.cfi_offset 14, -4
  38              	.LVL0:
  23:lifting.c     ****    int lift_count=0;
  24:lifting.c     ****    Control_Reg_2_Write(1);
  39              		.loc 1 24 0
  40 0002 0120     		movs	r0, #1
  41 0004 FFF7FEFF 		bl	Control_Reg_2_Write
  42              	.LVL1:
  25:lifting.c     ****    Control_Reg_2_Write(0);
  43              		.loc 1 25 0
  44 0008 0020     		movs	r0, #0
  45 000a FFF7FEFF 		bl	Control_Reg_2_Write
  46              	.LVL2:
  26:lifting.c     ****    
  27:lifting.c     ****    dir_lift_Write(0);
  47              		.loc 1 27 0
  48 000e 0020     		movs	r0, #0
  49 0010 FFF7FEFF 		bl	dir_lift_Write
  50              	.LVL3:
  51              	.L2:
  28:lifting.c     **** test1:
  29:lifting.c     ****    lift_count = Counter_lift_ReadCounter();
  52              		.loc 1 29 0 discriminator 1
  53 0014 FFF7FEFF 		bl	Counter_lift_ReadCounter
  54              	.LVL4:
  55 0018 0446     		mov	r4, r0
  56              	.LVL5:
  30:lifting.c     ****    sprintf(UART_str,"lift Count %d\n",lift_count);
  57              		.loc 1 30 0 discriminator 1
  58 001a 084D     		ldr	r5, .L4
  59 001c 0246     		mov	r2, r0
  60 001e 0849     		ldr	r1, .L4+4
  61 0020 2846     		mov	r0, r5
  62              	.LVL6:
  63 0022 FFF7FEFF 		bl	sprintf
  64              	.LVL7:
  31:lifting.c     ****    UART_1_PutString(UART_str);
  65              		.loc 1 31 0 discriminator 1
  66 0026 2846     		mov	r0, r5
  67 0028 FFF7FEFF 		bl	UART_1_PutString
  68              	.LVL8:
  32:lifting.c     ****     
  33:lifting.c     ****      if(lift_count >= 10000)
  69              		.loc 1 33 0 discriminator 1
  70 002c 42F20F73 		movw	r3, #9999
  71 0030 9C42     		cmp	r4, r3
  72 0032 EFDD     		ble	.L2
  34:lifting.c     ****     {
  35:lifting.c     ****         Control_Reg_2_Write(1);
  73              		.loc 1 35 0
  74 0034 0120     		movs	r0, #1
  75 0036 FFF7FEFF 		bl	Control_Reg_2_Write
  76              	.LVL9:
  77 003a 38BD     		pop	{r3, r4, r5, pc}
  78              	.LVL10:
  79              	.L5:
ARM GAS  C:\Users\zhaoh\AppData\Local\Temp\ccDGpTNi.s 			page 3


  80              		.align	2
  81              	.L4:
  82 003c 00000000 		.word	UART_str
  83 0040 00000000 		.word	.LC0
  84              		.cfi_endproc
  85              	.LFE64:
  86              		.size	lift_up, .-lift_up
  87              		.section	.text.lift_down,"ax",%progbits
  88              		.align	2
  89              		.global	lift_down
  90              		.thumb
  91              		.thumb_func
  92              		.type	lift_down, %function
  93              	lift_down:
  94              	.LFB65:
  36:lifting.c     ****     }
  37:lifting.c     ****     else goto test1;
  38:lifting.c     ****      
  39:lifting.c     **** }
  40:lifting.c     **** 
  41:lifting.c     **** void lift_down()
  42:lifting.c     **** {
  95              		.loc 1 42 0
  96              		.cfi_startproc
  97              		@ args = 0, pretend = 0, frame = 0
  98              		@ frame_needed = 0, uses_anonymous_args = 0
  99 0000 38B5     		push	{r3, r4, r5, lr}
 100              		.cfi_def_cfa_offset 16
 101              		.cfi_offset 3, -16
 102              		.cfi_offset 4, -12
 103              		.cfi_offset 5, -8
 104              		.cfi_offset 14, -4
 105              	.LVL11:
  43:lifting.c     ****    int lift_count=0;
  44:lifting.c     ****    Control_Reg_2_Write(1);
 106              		.loc 1 44 0
 107 0002 0120     		movs	r0, #1
 108 0004 FFF7FEFF 		bl	Control_Reg_2_Write
 109              	.LVL12:
  45:lifting.c     ****    Control_Reg_2_Write(0);
 110              		.loc 1 45 0
 111 0008 0020     		movs	r0, #0
 112 000a FFF7FEFF 		bl	Control_Reg_2_Write
 113              	.LVL13:
  46:lifting.c     ****    
  47:lifting.c     ****    dir_lift_Write(1);
 114              		.loc 1 47 0
 115 000e 0120     		movs	r0, #1
 116 0010 FFF7FEFF 		bl	dir_lift_Write
 117              	.LVL14:
 118              	.L7:
  48:lifting.c     **** test1:
  49:lifting.c     ****    lift_count = Counter_lift_ReadCounter();
 119              		.loc 1 49 0 discriminator 1
 120 0014 FFF7FEFF 		bl	Counter_lift_ReadCounter
 121              	.LVL15:
 122 0018 0446     		mov	r4, r0
ARM GAS  C:\Users\zhaoh\AppData\Local\Temp\ccDGpTNi.s 			page 4


 123              	.LVL16:
  50:lifting.c     ****    sprintf(UART_str,"lift Count %d\n",lift_count);
 124              		.loc 1 50 0 discriminator 1
 125 001a 084D     		ldr	r5, .L9
 126 001c 0246     		mov	r2, r0
 127 001e 0849     		ldr	r1, .L9+4
 128 0020 2846     		mov	r0, r5
 129              	.LVL17:
 130 0022 FFF7FEFF 		bl	sprintf
 131              	.LVL18:
  51:lifting.c     ****    UART_1_PutString(UART_str);
 132              		.loc 1 51 0 discriminator 1
 133 0026 2846     		mov	r0, r5
 134 0028 FFF7FEFF 		bl	UART_1_PutString
 135              	.LVL19:
  52:lifting.c     ****     
  53:lifting.c     ****      if(lift_count >= 10000)
 136              		.loc 1 53 0 discriminator 1
 137 002c 42F20F73 		movw	r3, #9999
 138 0030 9C42     		cmp	r4, r3
 139 0032 EFDD     		ble	.L7
  54:lifting.c     ****     {
  55:lifting.c     ****         Control_Reg_2_Write(1);
 140              		.loc 1 55 0
 141 0034 0120     		movs	r0, #1
 142 0036 FFF7FEFF 		bl	Control_Reg_2_Write
 143              	.LVL20:
 144 003a 38BD     		pop	{r3, r4, r5, pc}
 145              	.LVL21:
 146              	.L10:
 147              		.align	2
 148              	.L9:
 149 003c 00000000 		.word	UART_str
 150 0040 00000000 		.word	.LC0
 151              		.cfi_endproc
 152              	.LFE65:
 153              		.size	lift_down, .-lift_down
 154              		.comm	UART_str,40,4
 155              		.section	.rodata.str1.4,"aMS",%progbits,1
 156              		.align	2
 157              	.LC0:
 158 0000 6C696674 		.ascii	"lift Count %d\012\000"
 158      20436F75 
 158      6E742025 
 158      640A00
 159              		.text
 160              	.Letext0:
 161              		.file 2 "c:\\program files (x86)\\cypress\\psoc creator\\4.2\\psoc creator\\import\\gnu\\arm\\5.4.
 162              		.file 3 "c:\\program files (x86)\\cypress\\psoc creator\\4.2\\psoc creator\\import\\gnu\\arm\\5.4.
 163              		.file 4 "Generated_Source\\PSoC5/core_cm3.h"
 164              		.file 5 "Generated_Source\\PSoC5/Control_Reg_2.h"
 165              		.file 6 "Generated_Source\\PSoC5/dir_lift.h"
 166              		.file 7 "Generated_Source\\PSoC5/Counter_lift.h"
 167              		.file 8 "c:\\program files (x86)\\cypress\\psoc creator\\4.2\\psoc creator\\import\\gnu\\arm\\5.4.
 168              		.file 9 "Generated_Source\\PSoC5/UART_1.h"