ARM GAS  C:\Users\zhaoh\AppData\Local\Temp\cctUpuwo.s 			page 1


   1              		.syntax unified
   2              		.cpu cortex-m3
   3              		.fpu softvfp
   4              		.eabi_attribute 20, 1
   5              		.eabi_attribute 21, 1
   6              		.eabi_attribute 23, 3
   7              		.eabi_attribute 24, 1
   8              		.eabi_attribute 25, 1
   9              		.eabi_attribute 26, 1
  10              		.eabi_attribute 30, 1
  11              		.eabi_attribute 34, 1
  12              		.eabi_attribute 18, 4
  13              		.thumb
  14              		.syntax unified
  15              		.file	"main.c"
  16              		.text
  17              	.Ltext0:
  18              		.cfi_sections	.debug_frame
  19              		.section	.text.Key_ISR_Handler,"ax",%progbits
  20              		.align	2
  21              		.global	Key_ISR_Handler
  22              		.thumb
  23              		.thumb_func
  24              		.type	Key_ISR_Handler, %function
  25              	Key_ISR_Handler:
  26              	.LFB64:
  27              		.file 1 "main.c"
   1:main.c        **** #include <stdio.h>
   2:main.c        **** #include "project.h"
   3:main.c        **** #include "string.h"
   4:main.c        **** #include "header01.h"
   5:main.c        **** 
   6:main.c        **** //#include "movement.c"
   7:main.c        **** CY_ISR(Timer_1_ISR_Handler);
   8:main.c        **** CY_ISR(Key_ISR_Handler);
   9:main.c        **** char UART_str[100];
  10:main.c        **** char a_text[9];
  11:main.c        **** int state = 0;
  12:main.c        **** float distance[10];
  13:main.c        **** //int obst_detect=0;
  14:main.c        **** CY_ISR(Key_ISR_Handler){
  28              		.loc 1 14 0
  29              		.cfi_startproc
  30              		@ args = 0, pretend = 0, frame = 0
  31              		@ frame_needed = 0, uses_anonymous_args = 0
  32 0000 10B5     		push	{r4, lr}
  33              		.cfi_def_cfa_offset 8
  34              		.cfi_offset 4, -8
  35              		.cfi_offset 14, -4
  15:main.c        ****     UART_1_PutString("Button press deteced. \n");
  36              		.loc 1 15 0
  37 0002 0948     		ldr	r0, .L3
  38 0004 FFF7FEFF 		bl	UART_1_PutString
  39              	.LVL0:
  16:main.c        ****     state++;
  40              		.loc 1 16 0
  41 0008 084B     		ldr	r3, .L3+4
ARM GAS  C:\Users\zhaoh\AppData\Local\Temp\cctUpuwo.s 			page 2


  42 000a 1A68     		ldr	r2, [r3]
  43 000c 0132     		adds	r2, r2, #1
  44 000e 1A60     		str	r2, [r3]
  17:main.c        ****     
  18:main.c        ****     sprintf(a_text,"%d",state);   
  45              		.loc 1 18 0
  46 0010 074C     		ldr	r4, .L3+8
  47 0012 0849     		ldr	r1, .L3+12
  48 0014 2046     		mov	r0, r4
  49 0016 FFF7FEFF 		bl	sprintf
  50              	.LVL1:
  19:main.c        ****     a_text[4] = '\0';
  51              		.loc 1 19 0
  52 001a 0023     		movs	r3, #0
  53 001c 2371     		strb	r3, [r4, #4]
  20:main.c        ****     UART_1_PutString(a_text);
  54              		.loc 1 20 0
  55 001e 2046     		mov	r0, r4
  56 0020 FFF7FEFF 		bl	UART_1_PutString
  57              	.LVL2:
  58 0024 10BD     		pop	{r4, pc}
  59              	.L4:
  60 0026 00BF     		.align	2
  61              	.L3:
  62 0028 00000000 		.word	.LC0
  63 002c 00000000 		.word	.LANCHOR0
  64 0030 00000000 		.word	a_text
  65 0034 18000000 		.word	.LC1
  66              		.cfi_endproc
  67              	.LFE64:
  68              		.size	Key_ISR_Handler, .-Key_ISR_Handler
  69              		.section	.text.main,"ax",%progbits
  70              		.align	2
  71              		.global	main
  72              		.thumb
  73              		.thumb_func
  74              		.type	main, %function
  75              	main:
  76              	.LFB65:
  21:main.c        ****     return;
  22:main.c        **** }
  23:main.c        **** 
  24:main.c        **** 
  25:main.c        **** int main(void)
  26:main.c        **** {
  77              		.loc 1 26 0
  78              		.cfi_startproc
  79              		@ args = 0, pretend = 0, frame = 0
  80              		@ frame_needed = 0, uses_anonymous_args = 0
  81 0000 08B5     		push	{r3, lr}
  82              		.cfi_def_cfa_offset 8
  83              		.cfi_offset 3, -8
  84              		.cfi_offset 14, -4
  27:main.c        ****     
  28:main.c        ****     
  29:main.c        ****     CyGlobalIntEnable;
  85              		.loc 1 29 0
ARM GAS  C:\Users\zhaoh\AppData\Local\Temp\cctUpuwo.s 			page 3


  86              		.syntax unified
  87              	@ 29 "main.c" 1
  88 0002 62B6     		CPSIE   i
  89              	@ 0 "" 2
  30:main.c        ****     
  31:main.c        ****     UART_1_Start();
  90              		.loc 1 31 0
  91              		.thumb
  92              		.syntax unified
  93 0004 FFF7FEFF 		bl	UART_1_Start
  94              	.LVL3:
  32:main.c        ****    
  33:main.c        ****     isr_Key_StartEx(Key_ISR_Handler);
  95              		.loc 1 33 0
  96 0008 1C48     		ldr	r0, .L10
  97 000a FFF7FEFF 		bl	isr_Key_StartEx
  98              	.LVL4:
  34:main.c        ****     Counter_right_Start();
  99              		.loc 1 34 0
 100 000e FFF7FEFF 		bl	Counter_right_Start
 101              	.LVL5:
  35:main.c        ****     Counter_left_Start();
 102              		.loc 1 35 0
 103 0012 FFF7FEFF 		bl	Counter_left_Start
 104              	.LVL6:
  36:main.c        ****     Counter_lift_Start();
 105              		.loc 1 36 0
 106 0016 FFF7FEFF 		bl	Counter_lift_Start
 107              	.LVL7:
  37:main.c        ****     IDAC8_1_Start();
 108              		.loc 1 37 0
 109 001a FFF7FEFF 		bl	IDAC8_1_Start
 110              	.LVL8:
  38:main.c        ****     VDAC8_1_Start();
 111              		.loc 1 38 0
 112 001e FFF7FEFF 		bl	VDAC8_1_Start
 113              	.LVL9:
  39:main.c        ****     TIA_1_Start();
 114              		.loc 1 39 0
 115 0022 FFF7FEFF 		bl	TIA_1_Start
 116              	.LVL10:
  40:main.c        ****     ADC_DelSig_1_Start();    
 117              		.loc 1 40 0
 118 0026 FFF7FEFF 		bl	ADC_DelSig_1_Start
 119              	.LVL11:
  41:main.c        ****     PWM_lw_Start();
 120              		.loc 1 41 0
 121 002a FFF7FEFF 		bl	PWM_lw_Start
 122              	.LVL12:
  42:main.c        ****     PWM_rw_Start();
 123              		.loc 1 42 0
 124 002e FFF7FEFF 		bl	PWM_rw_Start
 125              	.LVL13:
  43:main.c        ****     PWM_lift_Start();
 126              		.loc 1 43 0
 127 0032 FFF7FEFF 		bl	PWM_lift_Start
 128              	.LVL14:
ARM GAS  C:\Users\zhaoh\AppData\Local\Temp\cctUpuwo.s 			page 4


  44:main.c        ****     PWM_1_Start();
 129              		.loc 1 44 0
 130 0036 FFF7FEFF 		bl	PWM_1_Start
 131              	.LVL15:
  45:main.c        ****     Timer_1_Start();
 132              		.loc 1 45 0
 133 003a FFF7FEFF 		bl	Timer_1_Start
 134              	.LVL16:
  46:main.c        ****     Control_Reg_1_Write(1);
 135              		.loc 1 46 0
 136 003e 0120     		movs	r0, #1
 137 0040 FFF7FEFF 		bl	Control_Reg_1_Write
 138              	.LVL17:
  47:main.c        ****     Control_Reg_2_Write(1);
 139              		.loc 1 47 0
 140 0044 0120     		movs	r0, #1
 141 0046 FFF7FEFF 		bl	Control_Reg_2_Write
 142              	.LVL18:
  48:main.c        ****   
  49:main.c        ****     UART_1_PutString("Program started\n");
 143              		.loc 1 49 0
 144 004a 0D48     		ldr	r0, .L10+4
 145 004c FFF7FEFF 		bl	UART_1_PutString
 146              	.LVL19:
  50:main.c        ****     Control_Reg_3_Write(1);
 147              		.loc 1 50 0
 148 0050 0120     		movs	r0, #1
 149 0052 FFF7FEFF 		bl	Control_Reg_3_Write
 150              	.LVL20:
  51:main.c        ****    
  52:main.c        ****     while(state <= 2)
 151              		.loc 1 52 0
 152 0056 08E0     		b	.L6
 153              	.L8:
  53:main.c        ****     {   
  54:main.c        ****         
  55:main.c        ****         if(state >= 2)
 154              		.loc 1 55 0
 155 0058 012B     		cmp	r3, #1
 156 005a 06DD     		ble	.L6
  56:main.c        ****         {
  57:main.c        ****             isr_1_StartEx(Timer_1_ISR_Handler);
 157              		.loc 1 57 0
 158 005c 0948     		ldr	r0, .L10+8
 159 005e FFF7FEFF 		bl	isr_1_StartEx
 160              	.LVL21:
  58:main.c        ****             UART_1_PutString("Button press deteced.\n");
 161              		.loc 1 58 0
 162 0062 0948     		ldr	r0, .L10+12
 163 0064 FFF7FEFF 		bl	UART_1_PutString
 164              	.LVL22:
  59:main.c        ****             break;
 165              		.loc 1 59 0
 166 0068 03E0     		b	.L7
 167              	.L6:
  52:main.c        ****     {   
 168              		.loc 1 52 0
ARM GAS  C:\Users\zhaoh\AppData\Local\Temp\cctUpuwo.s 			page 5


 169 006a 084B     		ldr	r3, .L10+16
 170 006c 1B68     		ldr	r3, [r3]
 171 006e 022B     		cmp	r3, #2
 172 0070 F2DD     		ble	.L8
 173              	.L7:
  60:main.c        ****         }
  61:main.c        ****         
  62:main.c        ****     }
  63:main.c        ****     
  64:main.c        ****     float *a =Sense1();
 174              		.loc 1 64 0
 175 0072 FFF7FEFF 		bl	Sense1
 176              	.LVL23:
  65:main.c        **** //    for (int i=0;i<10;i++){
  66:main.c        **** //        distance[i]=*(a+i);
  67:main.c        **** //        sprintf(a_text,"%f printhere",distance[i]);
  68:main.c        **** //        UART_1_PutString(a_text);
  69:main.c        **** //    }
  70:main.c        **** //    
  71:main.c        **** }
 177              		.loc 1 71 0
 178 0076 0020     		movs	r0, #0
 179 0078 08BD     		pop	{r3, pc}
 180              	.L11:
 181 007a 00BF     		.align	2
 182              	.L10:
 183 007c 00000000 		.word	Key_ISR_Handler
 184 0080 1C000000 		.word	.LC2
 185 0084 00000000 		.word	Timer_1_ISR_Handler
 186 0088 30000000 		.word	.LC3
 187 008c 00000000 		.word	.LANCHOR0
 188              		.cfi_endproc
 189              	.LFE65:
 190              		.size	main, .-main
 191              		.comm	distance,40,4
 192              		.global	state
 193              		.comm	a_text,9,4
 194              		.comm	UART_str,100,4
 195              		.section	.rodata.str1.4,"aMS",%progbits,1
 196              		.align	2
 197              	.LC0:
 198 0000 42757474 		.ascii	"Button press deteced. \012\000"
 198      6F6E2070 
 198      72657373 
 198      20646574 
 198      65636564 
 199              	.LC1:
 200 0018 256400   		.ascii	"%d\000"
 201 001b 00       		.space	1
 202              	.LC2:
 203 001c 50726F67 		.ascii	"Program started\012\000"
 203      72616D20 
 203      73746172 
 203      7465640A 
 203      00
 204 002d 000000   		.space	3
 205              	.LC3:
ARM GAS  C:\Users\zhaoh\AppData\Local\Temp\cctUpuwo.s 			page 6


 206 0030 42757474 		.ascii	"Button press deteced.\012\000"
 206      6F6E2070 
 206      72657373 
 206      20646574 
 206      65636564 
 207              		.bss
 208              		.align	2
 209              		.set	.LANCHOR0,. + 0
 210              		.type	state, %object
 211              		.size	state, 4
 212              	state:
 213 0000 00000000 		.space	4
 214              		.text
 215              	.Letext0:
 216              		.file 2 "c:\\program files (x86)\\cypress\\psoc creator\\4.2\\psoc creator\\import\\gnu\\arm\\5.4.
 217              		.file 3 "c:\\program files (x86)\\cypress\\psoc creator\\4.2\\psoc creator\\import\\gnu\\arm\\5.4.
 218              		.file 4 "Generated_Source\\PSoC5/core_cm3.h"
 219              		.file 5 "Generated_Source\\PSoC5/UART_1.h"
 220              		.file 6 "c:\\program files (x86)\\cypress\\psoc creator\\4.2\\psoc creator\\import\\gnu\\arm\\5.4.
 221              		.file 7 "Generated_Source\\PSoC5/isr_Key.h"
 222              		.file 8 "Generated_Source\\PSoC5/Counter_right.h"
 223              		.file 9 "Generated_Source\\PSoC5/Counter_left.h"
 224              		.file 10 "Generated_Source\\PSoC5/Counter_lift.h"
 225              		.file 11 "Generated_Source\\PSoC5/IDAC8_1.h"
 226              		.file 12 "Generated_Source\\PSoC5/VDAC8_1.h"
 227              		.file 13 "Generated_Source\\PSoC5/TIA_1.h"
 228              		.file 14 "Generated_Source\\PSoC5/ADC_DelSig_1.h"
 229              		.file 15 "Generated_Source\\PSoC5/PWM_lw.h"
 230              		.file 16 "Generated_Source\\PSoC5/PWM_rw.h"
 231              		.file 17 "Generated_Source\\PSoC5/PWM_lift.h"
 232              		.file 18 "Generated_Source\\PSoC5/PWM_1.h"
 233              		.file 19 "Generated_Source\\PSoC5/Timer_1.h"
 234              		.file 20 "Generated_Source\\PSoC5/Control_Reg_1.h"
 235              		.file 21 "Generated_Source\\PSoC5/Control_Reg_2.h"
 236              		.file 22 "Generated_Source\\PSoC5/Control_Reg_3.h"
 237              		.file 23 "Generated_Source\\PSoC5/isr_1.h"