ARM GAS  C:\Users\zhaoh\AppData\Local\Temp\ccED5pOZ.s 			page 1


   1              		.syntax unified
   2              		.cpu cortex-m3
   3              		.fpu softvfp
   4              		.eabi_attribute 20, 1
   5              		.eabi_attribute 21, 1
   6              		.eabi_attribute 23, 3
   7              		.eabi_attribute 24, 1
   8              		.eabi_attribute 25, 1
   9              		.eabi_attribute 26, 1
  10              		.eabi_attribute 30, 1
  11              		.eabi_attribute 34, 1
  12              		.eabi_attribute 18, 4
  13              		.thumb
  14              		.syntax unified
  15              		.file	"movement.c"
  16              		.text
  17              	.Ltext0:
  18              		.cfi_sections	.debug_frame
  19              		.section	.text.turn_anti,"ax",%progbits
  20              		.align	2
  21              		.global	turn_anti
  22              		.thumb
  23              		.thumb_func
  24              		.type	turn_anti, %function
  25              	turn_anti:
  26              	.LFB64:
  27              		.file 1 "movement.c"
   1:movement.c    **** #include "header.h"
   2:movement.c    **** #include "math.h"
   3:movement.c    **** #include "stdlib.h"
   4:movement.c    **** #include "header01.h"
   5:movement.c    **** 
   6:movement.c    **** uint16 right_count;
   7:movement.c    **** uint16 left_count;
   8:movement.c    **** char UART_str[40];
   9:movement.c    **** float distance[10];
  10:movement.c    **** //47
  11:movement.c    **** //char UART_str[100];
  12:movement.c    **** char a_text[9];
  13:movement.c    **** //extern int obst_detect;
  14:movement.c    **** void turn_anti(int degree)
  15:movement.c    **** {
  28              		.loc 1 15 0
  29              		.cfi_startproc
  30              		@ args = 0, pretend = 0, frame = 0
  31              		@ frame_needed = 0, uses_anonymous_args = 0
  32              	.LVL0:
  33 0000 38B5     		push	{r3, r4, r5, lr}
  34              		.cfi_def_cfa_offset 16
  35              		.cfi_offset 3, -16
  36              		.cfi_offset 4, -12
  37              		.cfi_offset 5, -8
  38              		.cfi_offset 14, -4
  39 0002 0546     		mov	r5, r0
  16:movement.c    ****     right_count = 0;
  40              		.loc 1 16 0
  41 0004 0024     		movs	r4, #0
ARM GAS  C:\Users\zhaoh\AppData\Local\Temp\ccED5pOZ.s 			page 2


  42 0006 184B     		ldr	r3, .L6
  43 0008 1C80     		strh	r4, [r3]	@ movhi
  17:movement.c    ****    Control_Reg_1_Write(0); 
  44              		.loc 1 17 0
  45 000a 2046     		mov	r0, r4
  46              	.LVL1:
  47 000c FFF7FEFF 		bl	Control_Reg_1_Write
  48              	.LVL2:
  18:movement.c    ****    dir_rw_Write(0);
  49              		.loc 1 18 0
  50 0010 2046     		mov	r0, r4
  51 0012 FFF7FEFF 		bl	dir_rw_Write
  52              	.LVL3:
  19:movement.c    ****    dir_lw_Write(1);
  53              		.loc 1 19 0
  54 0016 0120     		movs	r0, #1
  55 0018 FFF7FEFF 		bl	dir_lw_Write
  56              	.LVL4:
  20:movement.c    ****    degree=degree*1385/90;
  57              		.loc 1 20 0
  58 001c 40F26950 		movw	r0, #1385
  59 0020 00FB05F0 		mul	r0, r0, r5
  60 0024 114D     		ldr	r5, .L6+4
  61              	.LVL5:
  62 0026 85FB0035 		smull	r3, r5, r5, r0
  63 002a 0544     		add	r5, r5, r0
  64 002c C017     		asrs	r0, r0, #31
  65 002e C0EBA515 		rsb	r5, r0, r5, asr #6
  66              	.LVL6:
  21:movement.c    ****    while(right_count <= degree){
  67              		.loc 1 21 0
  68 0032 14E0     		b	.L2
  69              	.L4:
  22:movement.c    ****        right_count = Counter_right_ReadCounter();
  70              		.loc 1 22 0
  71 0034 FFF7FEFF 		bl	Counter_right_ReadCounter
  72              	.LVL7:
  73 0038 0B4C     		ldr	r4, .L6
  74 003a 2080     		strh	r0, [r4]	@ movhi
  23:movement.c    ****        left_count = Counter_left_ReadCounter();
  75              		.loc 1 23 0
  76 003c FFF7FEFF 		bl	Counter_left_ReadCounter
  77              	.LVL8:
  78 0040 0346     		mov	r3, r0
  79 0042 0B4A     		ldr	r2, .L6+8
  80 0044 1080     		strh	r0, [r2]	@ movhi
  24:movement.c    ****        sprintf(UART_str,"Right Count %d  Left Count %d \n",right_count,left_count);
  81              		.loc 1 24 0
  82 0046 2288     		ldrh	r2, [r4]
  83 0048 0A49     		ldr	r1, .L6+12
  84 004a 0B48     		ldr	r0, .L6+16
  85 004c FFF7FEFF 		bl	sprintf
  86              	.LVL9:
  25:movement.c    ****       // UART_1_PutString(UART_str);
  26:movement.c    ****         
  27:movement.c    ****         if(right_count >= degree){
  87              		.loc 1 27 0
ARM GAS  C:\Users\zhaoh\AppData\Local\Temp\ccED5pOZ.s 			page 3


  88 0050 2388     		ldrh	r3, [r4]
  89 0052 9D42     		cmp	r5, r3
  90 0054 03DC     		bgt	.L2
  28:movement.c    ****             Control_Reg_1_Write(1);
  91              		.loc 1 28 0
  92 0056 0120     		movs	r0, #1
  93 0058 FFF7FEFF 		bl	Control_Reg_1_Write
  94              	.LVL10:
  29:movement.c    ****             break;
  95              		.loc 1 29 0
  96 005c 38BD     		pop	{r3, r4, r5, pc}
  97              	.LVL11:
  98              	.L2:
  21:movement.c    ****        right_count = Counter_right_ReadCounter();
  99              		.loc 1 21 0
 100 005e 024B     		ldr	r3, .L6
 101 0060 1B88     		ldrh	r3, [r3]
 102 0062 9D42     		cmp	r5, r3
 103 0064 E6DA     		bge	.L4
 104 0066 38BD     		pop	{r3, r4, r5, pc}
 105              	.LVL12:
 106              	.L7:
 107              		.align	2
 108              	.L6:
 109 0068 00000000 		.word	right_count
 110 006c B7600BB6 		.word	-1240768329
 111 0070 00000000 		.word	left_count
 112 0074 00000000 		.word	.LC0
 113 0078 00000000 		.word	UART_str
 114              		.cfi_endproc
 115              	.LFE64:
 116              		.size	turn_anti, .-turn_anti
 117              		.section	.text.light,"ax",%progbits
 118              		.align	2
 119              		.global	light
 120              		.thumb
 121              		.thumb_func
 122              		.type	light, %function
 123              	light:
 124              	.LFB65:
  30:movement.c    ****         }  
  31:movement.c    ****     }
  32:movement.c    **** }
  33:movement.c    **** 
  34:movement.c    **** 
  35:movement.c    ****      
  36:movement.c    **** 
  37:movement.c    **** void light(){
 125              		.loc 1 37 0
 126              		.cfi_startproc
 127              		@ args = 0, pretend = 0, frame = 0
 128              		@ frame_needed = 0, uses_anonymous_args = 0
 129 0000 08B5     		push	{r3, lr}
 130              		.cfi_def_cfa_offset 8
 131              		.cfi_offset 3, -8
 132              		.cfi_offset 14, -4
  38:movement.c    **** LED_Write(1);
ARM GAS  C:\Users\zhaoh\AppData\Local\Temp\ccED5pOZ.s 			page 4


 133              		.loc 1 38 0
 134 0002 0120     		movs	r0, #1
 135 0004 FFF7FEFF 		bl	LED_Write
 136              	.LVL13:
  39:movement.c    **** CyDelay(1000);
 137              		.loc 1 39 0
 138 0008 4FF47A70 		mov	r0, #1000
 139 000c FFF7FEFF 		bl	CyDelay
 140              	.LVL14:
  40:movement.c    **** LED_Write(0);
 141              		.loc 1 40 0
 142 0010 0020     		movs	r0, #0
 143 0012 FFF7FEFF 		bl	LED_Write
 144              	.LVL15:
 145 0016 08BD     		pop	{r3, pc}
 146              		.cfi_endproc
 147              	.LFE65:
 148              		.size	light, .-light
 149              		.section	.text.turn_clock,"ax",%progbits
 150              		.align	2
 151              		.global	turn_clock
 152              		.thumb
 153              		.thumb_func
 154              		.type	turn_clock, %function
 155              	turn_clock:
 156              	.LFB67:
  41:movement.c    **** }
  42:movement.c    **** 
  43:movement.c    **** void path_plan(){//////////////////////////////////////////////////////////////////////////////////
  44:movement.c    ****    begin:
  45:movement.c    ****     //Sense();
  46:movement.c    ****     
  47:movement.c    ****      if (obst_detect == 1){
  48:movement.c    ****         turn_clock();
  49:movement.c    ****     }
  50:movement.c    ****     else
  51:movement.c    ****     {
  52:movement.c    ****         move_forward(500);
  53:movement.c    ****     }
  54:movement.c    ****     //CyDelay(4000);
  55:movement.c    ****     goto begin;
  56:movement.c    **** 
  57:movement.c    **** }
  58:movement.c    **** void turn_clock(int degree)
  59:movement.c    **** {
 157              		.loc 1 59 0
 158              		.cfi_startproc
 159              		@ args = 0, pretend = 0, frame = 0
 160              		@ frame_needed = 0, uses_anonymous_args = 0
 161              	.LVL16:
 162 0000 70B5     		push	{r4, r5, r6, lr}
 163              		.cfi_def_cfa_offset 16
 164              		.cfi_offset 4, -16
 165              		.cfi_offset 5, -12
 166              		.cfi_offset 6, -8
 167              		.cfi_offset 14, -4
 168 0002 0446     		mov	r4, r0
ARM GAS  C:\Users\zhaoh\AppData\Local\Temp\ccED5pOZ.s 			page 5


  60:movement.c    ****     right_count = 0;
 169              		.loc 1 60 0
 170 0004 1A4E     		ldr	r6, .L15
 171 0006 0025     		movs	r5, #0
 172 0008 3580     		strh	r5, [r6]	@ movhi
  61:movement.c    ****    Control_Reg_1_Write(1);
 173              		.loc 1 61 0
 174 000a 0120     		movs	r0, #1
 175              	.LVL17:
 176 000c FFF7FEFF 		bl	Control_Reg_1_Write
 177              	.LVL18:
  62:movement.c    ****    Control_Reg_1_Write(0);
 178              		.loc 1 62 0
 179 0010 2846     		mov	r0, r5
 180 0012 FFF7FEFF 		bl	Control_Reg_1_Write
 181              	.LVL19:
  63:movement.c    ****    dir_rw_Write(1);
 182              		.loc 1 63 0
 183 0016 0120     		movs	r0, #1
 184 0018 FFF7FEFF 		bl	dir_rw_Write
 185              	.LVL20:
  64:movement.c    ****    dir_lw_Write(0);
 186              		.loc 1 64 0
 187 001c 2846     		mov	r0, r5
 188 001e FFF7FEFF 		bl	dir_lw_Write
 189              	.LVL21:
  65:movement.c    **** 
  66:movement.c    ****    right_count = Counter_right_ReadCounter();
 190              		.loc 1 66 0
 191 0022 FFF7FEFF 		bl	Counter_right_ReadCounter
 192              	.LVL22:
 193 0026 3080     		strh	r0, [r6]	@ movhi
  67:movement.c    ****    left_count = Counter_left_ReadCounter();
 194              		.loc 1 67 0
 195 0028 FFF7FEFF 		bl	Counter_left_ReadCounter
 196              	.LVL23:
 197 002c 114B     		ldr	r3, .L15+4
 198 002e 1880     		strh	r0, [r3]	@ movhi
  68:movement.c    ****    //sprintf(UART_str,"Right Count %d  Left Count %d \n",right_count,left_count);
  69:movement.c    ****    //UART_1_PutString(UART_str);
  70:movement.c    ****     degree=degree/90*1325;
 199              		.loc 1 70 0
 200 0030 114D     		ldr	r5, .L15+8
 201 0032 85FB0435 		smull	r3, r5, r5, r4
 202 0036 2544     		add	r5, r5, r4
 203 0038 E417     		asrs	r4, r4, #31
 204              	.LVL24:
 205 003a C4EBA515 		rsb	r5, r4, r5, asr #6
 206 003e 40F22D53 		movw	r3, #1325
 207 0042 03FB05F5 		mul	r5, r3, r5
 208              	.LVL25:
  71:movement.c    ****      while(right_count< degree)
 209              		.loc 1 71 0
 210 0046 0EE0     		b	.L11
 211              	.L13:
  72:movement.c    ****     {
  73:movement.c    ****         right_count = Counter_right_ReadCounter();
ARM GAS  C:\Users\zhaoh\AppData\Local\Temp\ccED5pOZ.s 			page 6


 212              		.loc 1 73 0
 213 0048 FFF7FEFF 		bl	Counter_right_ReadCounter
 214              	.LVL26:
 215 004c 084C     		ldr	r4, .L15
 216 004e 2080     		strh	r0, [r4]	@ movhi
  74:movement.c    ****         left_count = Counter_left_ReadCounter();
 217              		.loc 1 74 0
 218 0050 FFF7FEFF 		bl	Counter_left_ReadCounter
 219              	.LVL27:
 220 0054 074B     		ldr	r3, .L15+4
 221 0056 1880     		strh	r0, [r3]	@ movhi
  75:movement.c    ****        if (right_count>= degree){
 222              		.loc 1 75 0
 223 0058 2388     		ldrh	r3, [r4]
 224 005a 9D42     		cmp	r5, r3
 225 005c 03DC     		bgt	.L11
  76:movement.c    ****             Control_Reg_1_Write(1);
 226              		.loc 1 76 0
 227 005e 0120     		movs	r0, #1
 228 0060 FFF7FEFF 		bl	Control_Reg_1_Write
 229              	.LVL28:
  77:movement.c    ****             break;
 230              		.loc 1 77 0
 231 0064 70BD     		pop	{r4, r5, r6, pc}
 232              	.LVL29:
 233              	.L11:
  71:movement.c    ****     {
 234              		.loc 1 71 0
 235 0066 024B     		ldr	r3, .L15
 236 0068 1B88     		ldrh	r3, [r3]
 237 006a 9D42     		cmp	r5, r3
 238 006c ECDC     		bgt	.L13
 239 006e 70BD     		pop	{r4, r5, r6, pc}
 240              	.LVL30:
 241              	.L16:
 242              		.align	2
 243              	.L15:
 244 0070 00000000 		.word	right_count
 245 0074 00000000 		.word	left_count
 246 0078 B7600BB6 		.word	-1240768329
 247              		.cfi_endproc
 248              	.LFE67:
 249              		.size	turn_clock, .-turn_clock
 250              		.section	.text.move_forward,"ax",%progbits
 251              		.align	2
 252              		.global	move_forward
 253              		.thumb
 254              		.thumb_func
 255              		.type	move_forward, %function
 256              	move_forward:
 257              	.LFB68:
  78:movement.c    ****         }
  79:movement.c    ****      }
  80:movement.c    ****      
  81:movement.c    **** }
  82:movement.c    **** 
  83:movement.c    **** 
ARM GAS  C:\Users\zhaoh\AppData\Local\Temp\ccED5pOZ.s 			page 7


  84:movement.c    **** void move_forward(int value)
  85:movement.c    **** {
 258              		.loc 1 85 0
 259              		.cfi_startproc
 260              		@ args = 0, pretend = 0, frame = 0
 261              		@ frame_needed = 0, uses_anonymous_args = 0
 262              	.LVL31:
 263 0000 38B5     		push	{r3, r4, r5, lr}
 264              		.cfi_def_cfa_offset 16
 265              		.cfi_offset 3, -16
 266              		.cfi_offset 4, -12
 267              		.cfi_offset 5, -8
 268              		.cfi_offset 14, -4
 269 0002 0546     		mov	r5, r0
  86:movement.c    ****    right_count = 0;
 270              		.loc 1 86 0
 271 0004 0024     		movs	r4, #0
 272 0006 144B     		ldr	r3, .L22
 273 0008 1C80     		strh	r4, [r3]	@ movhi
  87:movement.c    ****    Control_Reg_1_Write(1);
 274              		.loc 1 87 0
 275 000a 0120     		movs	r0, #1
 276              	.LVL32:
 277 000c FFF7FEFF 		bl	Control_Reg_1_Write
 278              	.LVL33:
  88:movement.c    ****    Control_Reg_1_Write(0);
 279              		.loc 1 88 0
 280 0010 2046     		mov	r0, r4
 281 0012 FFF7FEFF 		bl	Control_Reg_1_Write
 282              	.LVL34:
  89:movement.c    ****    dir_rw_Write(0);
 283              		.loc 1 89 0
 284 0016 2046     		mov	r0, r4
 285 0018 FFF7FEFF 		bl	dir_rw_Write
 286              	.LVL35:
  90:movement.c    ****    dir_lw_Write(0);
 287              		.loc 1 90 0
 288 001c 2046     		mov	r0, r4
 289 001e FFF7FEFF 		bl	dir_lw_Write
 290              	.LVL36:
  91:movement.c    ****    
  92:movement.c    ****     while(right_count <= value){
 291              		.loc 1 92 0
 292 0022 14E0     		b	.L18
 293              	.L20:
  93:movement.c    ****        right_count = Counter_right_ReadCounter();
 294              		.loc 1 93 0
 295 0024 FFF7FEFF 		bl	Counter_right_ReadCounter
 296              	.LVL37:
 297 0028 0B4C     		ldr	r4, .L22
 298 002a 2080     		strh	r0, [r4]	@ movhi
  94:movement.c    ****        left_count = Counter_left_ReadCounter();
 299              		.loc 1 94 0
 300 002c FFF7FEFF 		bl	Counter_left_ReadCounter
 301              	.LVL38:
 302 0030 0346     		mov	r3, r0
 303 0032 0A4A     		ldr	r2, .L22+4
ARM GAS  C:\Users\zhaoh\AppData\Local\Temp\ccED5pOZ.s 			page 8


 304 0034 1080     		strh	r0, [r2]	@ movhi
  95:movement.c    ****        sprintf(UART_str,"Right Count %d  Left Count %d \n",right_count,left_count);
 305              		.loc 1 95 0
 306 0036 2288     		ldrh	r2, [r4]
 307 0038 0949     		ldr	r1, .L22+8
 308 003a 0A48     		ldr	r0, .L22+12
 309 003c FFF7FEFF 		bl	sprintf
 310              	.LVL39:
  96:movement.c    ****       // UART_1_PutString(UART_str);
  97:movement.c    ****         
  98:movement.c    ****         if(right_count >= value){
 311              		.loc 1 98 0
 312 0040 2388     		ldrh	r3, [r4]
 313 0042 9D42     		cmp	r5, r3
 314 0044 03DC     		bgt	.L18
  99:movement.c    ****             Control_Reg_1_Write(1);
 315              		.loc 1 99 0
 316 0046 0120     		movs	r0, #1
 317 0048 FFF7FEFF 		bl	Control_Reg_1_Write
 318              	.LVL40:
 100:movement.c    ****             break;
 319              		.loc 1 100 0
 320 004c 38BD     		pop	{r3, r4, r5, pc}
 321              	.LVL41:
 322              	.L18:
  92:movement.c    ****        right_count = Counter_right_ReadCounter();
 323              		.loc 1 92 0
 324 004e 024B     		ldr	r3, .L22
 325 0050 1B88     		ldrh	r3, [r3]
 326 0052 AB42     		cmp	r3, r5
 327 0054 E6DD     		ble	.L20
 328 0056 38BD     		pop	{r3, r4, r5, pc}
 329              	.LVL42:
 330              	.L23:
 331              		.align	2
 332              	.L22:
 333 0058 00000000 		.word	right_count
 334 005c 00000000 		.word	left_count
 335 0060 00000000 		.word	.LC0
 336 0064 00000000 		.word	UART_str
 337              		.cfi_endproc
 338              	.LFE68:
 339              		.size	move_forward, .-move_forward
 340              		.section	.text.path_plan,"ax",%progbits
 341              		.align	2
 342              		.global	path_plan
 343              		.thumb
 344              		.thumb_func
 345              		.type	path_plan, %function
 346              	path_plan:
 347              	.LFB66:
  43:movement.c    ****    begin:
 348              		.loc 1 43 0
 349              		.cfi_startproc
 350              		@ Volatile: function does not return.
 351              		@ args = 0, pretend = 0, frame = 0
 352              		@ frame_needed = 0, uses_anonymous_args = 0
ARM GAS  C:\Users\zhaoh\AppData\Local\Temp\ccED5pOZ.s 			page 9


 353 0000 08B5     		push	{r3, lr}
 354              		.cfi_def_cfa_offset 8
 355              		.cfi_offset 3, -8
 356              		.cfi_offset 14, -4
 357              	.L25:
  47:movement.c    ****         turn_clock();
 358              		.loc 1 47 0
 359 0002 064B     		ldr	r3, .L29
 360 0004 1B68     		ldr	r3, [r3]
 361 0006 012B     		cmp	r3, #1
 362 0008 02D1     		bne	.L27
  48:movement.c    ****     }
 363              		.loc 1 48 0
 364 000a FFF7FEFF 		bl	turn_clock
 365              	.LVL43:
 366 000e F8E7     		b	.L25
 367              	.L27:
  52:movement.c    ****     }
 368              		.loc 1 52 0
 369 0010 4FF4FA70 		mov	r0, #500
 370 0014 FFF7FEFF 		bl	move_forward
 371              	.LVL44:
 372              	.L26:
 373 0018 F3E7     		b	.L25
 374              	.L30:
 375 001a 00BF     		.align	2
 376              	.L29:
 377 001c 00000000 		.word	obst_detect
 378              		.cfi_endproc
 379              	.LFE66:
 380              		.size	path_plan, .-path_plan
 381              		.section	.text.stop,"ax",%progbits
 382              		.align	2
 383              		.global	stop
 384              		.thumb
 385              		.thumb_func
 386              		.type	stop, %function
 387              	stop:
 388              	.LFB69:
 101:movement.c    ****         }
 102:movement.c    ****     } 
 103:movement.c    **** 
 104:movement.c    ****     
 105:movement.c    **** }
 106:movement.c    ****    
 107:movement.c    **** 
 108:movement.c    **** 
 109:movement.c    **** void stop()
 110:movement.c    **** {
 389              		.loc 1 110 0
 390              		.cfi_startproc
 391              		@ args = 0, pretend = 0, frame = 0
 392              		@ frame_needed = 0, uses_anonymous_args = 0
 393 0000 08B5     		push	{r3, lr}
 394              		.cfi_def_cfa_offset 8
 395              		.cfi_offset 3, -8
 396              		.cfi_offset 14, -4
ARM GAS  C:\Users\zhaoh\AppData\Local\Temp\ccED5pOZ.s 			page 10


 111:movement.c    ****    Control_Reg_1_Write(1);
 397              		.loc 1 111 0
 398 0002 0120     		movs	r0, #1
 399 0004 FFF7FEFF 		bl	Control_Reg_1_Write
 400              	.LVL45:
 401 0008 08BD     		pop	{r3, pc}
 402              		.cfi_endproc
 403              	.LFE69:
 404              		.size	stop, .-stop
 405 000a 00BF     		.section	.text.move_backward,"ax",%progbits
 406              		.align	2
 407              		.global	move_backward
 408              		.thumb
 409              		.thumb_func
 410              		.type	move_backward, %function
 411              	move_backward:
 412              	.LFB70:
 112:movement.c    **** }
 113:movement.c    **** 
 114:movement.c    **** void move_backward(int value)
 115:movement.c    **** {
 413              		.loc 1 115 0
 414              		.cfi_startproc
 415              		@ args = 0, pretend = 0, frame = 0
 416              		@ frame_needed = 0, uses_anonymous_args = 0
 417              	.LVL46:
 418 0000 38B5     		push	{r3, r4, r5, lr}
 419              		.cfi_def_cfa_offset 16
 420              		.cfi_offset 3, -16
 421              		.cfi_offset 4, -12
 422              		.cfi_offset 5, -8
 423              		.cfi_offset 14, -4
 424 0002 0546     		mov	r5, r0
 116:movement.c    ****    right_count = 0;
 425              		.loc 1 116 0
 426 0004 0024     		movs	r4, #0
 427 0006 144B     		ldr	r3, .L38
 428 0008 1C80     		strh	r4, [r3]	@ movhi
 117:movement.c    ****    Control_Reg_1_Write(1);
 429              		.loc 1 117 0
 430 000a 0120     		movs	r0, #1
 431              	.LVL47:
 432 000c FFF7FEFF 		bl	Control_Reg_1_Write
 433              	.LVL48:
 118:movement.c    ****    Control_Reg_1_Write(0);
 434              		.loc 1 118 0
 435 0010 2046     		mov	r0, r4
 436 0012 FFF7FEFF 		bl	Control_Reg_1_Write
 437              	.LVL49:
 119:movement.c    ****    dir_rw_Write(1);
 438              		.loc 1 119 0
 439 0016 0120     		movs	r0, #1
 440 0018 FFF7FEFF 		bl	dir_rw_Write
 441              	.LVL50:
 120:movement.c    ****    dir_lw_Write(1);
 442              		.loc 1 120 0
 443 001c 0120     		movs	r0, #1
ARM GAS  C:\Users\zhaoh\AppData\Local\Temp\ccED5pOZ.s 			page 11


 444 001e FFF7FEFF 		bl	dir_lw_Write
 445              	.LVL51:
 121:movement.c    ****    
 122:movement.c    ****     while(right_count <= value){
 446              		.loc 1 122 0
 447 0022 14E0     		b	.L34
 448              	.L36:
 123:movement.c    ****        right_count = Counter_right_ReadCounter();
 449              		.loc 1 123 0
 450 0024 FFF7FEFF 		bl	Counter_right_ReadCounter
 451              	.LVL52:
 452 0028 0B4C     		ldr	r4, .L38
 453 002a 2080     		strh	r0, [r4]	@ movhi
 124:movement.c    ****        left_count = Counter_left_ReadCounter();
 454              		.loc 1 124 0
 455 002c FFF7FEFF 		bl	Counter_left_ReadCounter
 456              	.LVL53:
 457 0030 0346     		mov	r3, r0
 458 0032 0A4A     		ldr	r2, .L38+4
 459 0034 1080     		strh	r0, [r2]	@ movhi
 125:movement.c    ****        sprintf(UART_str,"Right Count %d  Left Count %d \n",right_count,left_count);
 460              		.loc 1 125 0
 461 0036 2288     		ldrh	r2, [r4]
 462 0038 0949     		ldr	r1, .L38+8
 463 003a 0A48     		ldr	r0, .L38+12
 464 003c FFF7FEFF 		bl	sprintf
 465              	.LVL54:
 126:movement.c    ****       // UART_1_PutString(UART_str);
 127:movement.c    ****         
 128:movement.c    ****         if(right_count >= value){
 466              		.loc 1 128 0
 467 0040 2388     		ldrh	r3, [r4]
 468 0042 9D42     		cmp	r5, r3
 469 0044 03DC     		bgt	.L34
 129:movement.c    ****             Control_Reg_1_Write(1);
 470              		.loc 1 129 0
 471 0046 0120     		movs	r0, #1
 472 0048 FFF7FEFF 		bl	Control_Reg_1_Write
 473              	.LVL55:
 130:movement.c    ****             break;
 474              		.loc 1 130 0
 475 004c 38BD     		pop	{r3, r4, r5, pc}
 476              	.LVL56:
 477              	.L34:
 122:movement.c    ****        right_count = Counter_right_ReadCounter();
 478              		.loc 1 122 0
 479 004e 024B     		ldr	r3, .L38
 480 0050 1B88     		ldrh	r3, [r3]
 481 0052 AB42     		cmp	r3, r5
 482 0054 E6DD     		ble	.L36
 483 0056 38BD     		pop	{r3, r4, r5, pc}
 484              	.LVL57:
 485              	.L39:
 486              		.align	2
 487              	.L38:
 488 0058 00000000 		.word	right_count
 489 005c 00000000 		.word	left_count
ARM GAS  C:\Users\zhaoh\AppData\Local\Temp\ccED5pOZ.s 			page 12


 490 0060 00000000 		.word	.LC0
 491 0064 00000000 		.word	UART_str
 492              		.cfi_endproc
 493              	.LFE70:
 494              		.size	move_backward, .-move_backward
 495              		.global	__aeabi_f2d
 496              		.global	__aeabi_fcmpgt
 497              		.global	__aeabi_fsub
 498              		.global	__aeabi_dcmpgt
 499              		.global	__aeabi_dcmplt
 500              		.section	.text.correct_direction,"ax",%progbits
 501              		.align	2
 502              		.global	correct_direction
 503              		.thumb
 504              		.thumb_func
 505              		.type	correct_direction, %function
 506              	correct_direction:
 507              	.LFB71:
 131:movement.c    ****         }
 132:movement.c    ****     } 
 133:movement.c    **** }
 134:movement.c    **** 
 135:movement.c    **** void correct_direction(){
 508              		.loc 1 135 0
 509              		.cfi_startproc
 510              		@ args = 0, pretend = 0, frame = 0
 511              		@ frame_needed = 0, uses_anonymous_args = 0
 512 0000 2DE9F843 		push	{r3, r4, r5, r6, r7, r8, r9, lr}
 513              		.cfi_def_cfa_offset 32
 514              		.cfi_offset 3, -32
 515              		.cfi_offset 4, -28
 516              		.cfi_offset 5, -24
 517              		.cfi_offset 6, -20
 518              		.cfi_offset 7, -16
 519              		.cfi_offset 8, -12
 520              		.cfi_offset 9, -8
 521              		.cfi_offset 14, -4
 136:movement.c    **** float *a=Sense1();
 522              		.loc 1 136 0
 523 0004 FFF7FEFF 		bl	Sense1
 524              	.LVL58:
 525 0008 0646     		mov	r6, r0
 526              	.LVL59:
 527              	.LBB2:
 137:movement.c    ****     for (int i=0;i<10;i++){
 528              		.loc 1 137 0
 529 000a 0024     		movs	r4, #0
 530 000c 11E0     		b	.L41
 531              	.LVL60:
 532              	.L42:
 138:movement.c    ****         distance[i]=*(a+i);
 533              		.loc 1 138 0 discriminator 3
 534 000e 56F82400 		ldr	r0, [r6, r4, lsl #2]	@ float
 535 0012 294B     		ldr	r3, .L56+16
 536 0014 43F82400 		str	r0, [r3, r4, lsl #2]	@ float
 139:movement.c    ****         sprintf(a_text,"%f printhere",distance[i]);
 537              		.loc 1 139 0 discriminator 3
ARM GAS  C:\Users\zhaoh\AppData\Local\Temp\ccED5pOZ.s 			page 13


 538 0018 FFF7FEFF 		bl	__aeabi_f2d
 539              	.LVL61:
 540 001c 274D     		ldr	r5, .L56+20
 541 001e 0246     		mov	r2, r0
 542 0020 0B46     		mov	r3, r1
 543 0022 2749     		ldr	r1, .L56+24
 544 0024 2846     		mov	r0, r5
 545 0026 FFF7FEFF 		bl	sprintf
 546              	.LVL62:
 140:movement.c    ****         UART_1_PutString(a_text);
 547              		.loc 1 140 0 discriminator 3
 548 002a 2846     		mov	r0, r5
 549 002c FFF7FEFF 		bl	UART_1_PutString
 550              	.LVL63:
 137:movement.c    ****         distance[i]=*(a+i);
 551              		.loc 1 137 0 discriminator 3
 552 0030 0134     		adds	r4, r4, #1
 553              	.LVL64:
 554              	.L41:
 137:movement.c    ****         distance[i]=*(a+i);
 555              		.loc 1 137 0 is_stmt 0 discriminator 1
 556 0032 092C     		cmp	r4, #9
 557 0034 EBDD     		ble	.L42
 558 0036 10E0     		b	.L43
 559              	.LVL65:
 560              	.L51:
 561              	.LBE2:
 141:movement.c    ****     }
 142:movement.c    **** while (distance[1]-distance[0]>0.3|distance[1]-distance[0]<-0.3){
 143:movement.c    **** if (distance[1]>distance[0])
 562              		.loc 1 143 0 is_stmt 1
 563 0038 3146     		mov	r1, r6
 564 003a 2846     		mov	r0, r5
 565 003c FFF7FEFF 		bl	__aeabi_fcmpgt
 566              	.LVL66:
 567 0040 18B1     		cbz	r0, .L54
 144:movement.c    **** {
 145:movement.c    ****     turn_clock(5);
 568              		.loc 1 145 0
 569 0042 0520     		movs	r0, #5
 570 0044 FFF7FEFF 		bl	turn_clock
 571              	.LVL67:
 572 0048 07E0     		b	.L43
 573              	.L54:
 146:movement.c    **** }
 147:movement.c    **** else if (distance[1]>distance[0]){
 574              		.loc 1 147 0
 575 004a 3146     		mov	r1, r6
 576 004c 2846     		mov	r0, r5
 577 004e FFF7FEFF 		bl	__aeabi_fcmpgt
 578              	.LVL68:
 579 0052 38B3     		cbz	r0, .L40
 148:movement.c    ****     turn_anti(5);
 580              		.loc 1 148 0
 581 0054 0520     		movs	r0, #5
 582 0056 FFF7FEFF 		bl	turn_anti
 583              	.LVL69:
ARM GAS  C:\Users\zhaoh\AppData\Local\Temp\ccED5pOZ.s 			page 14


 584              	.L43:
 142:movement.c    **** if (distance[1]>distance[0])
 585              		.loc 1 142 0
 586 005a 174B     		ldr	r3, .L56+16
 587 005c 5D68     		ldr	r5, [r3, #4]	@ float
 588 005e 1E68     		ldr	r6, [r3]	@ float
 589 0060 3146     		mov	r1, r6
 590 0062 2846     		mov	r0, r5
 591 0064 FFF7FEFF 		bl	__aeabi_fsub
 592              	.LVL70:
 593 0068 FFF7FEFF 		bl	__aeabi_f2d
 594              	.LVL71:
 595 006c 8046     		mov	r8, r0
 596 006e 8946     		mov	r9, r1
 597 0070 4FF00107 		mov	r7, #1
 598 0074 0CA3     		adr	r3, .L56
 599 0076 D3E90023 		ldrd	r2, [r3]
 600 007a FFF7FEFF 		bl	__aeabi_dcmpgt
 601              	.LVL72:
 602 007e 08B9     		cbnz	r0, .L49
 603 0080 4FF00007 		mov	r7, #0
 604              	.L49:
 605 0084 4FF00104 		mov	r4, #1
 606 0088 09A3     		adr	r3, .L56+8
 607 008a D3E90023 		ldrd	r2, [r3]
 608 008e 4046     		mov	r0, r8
 609 0090 4946     		mov	r1, r9
 610 0092 FFF7FEFF 		bl	__aeabi_dcmplt
 611              	.LVL73:
 612 0096 08B9     		cbnz	r0, .L50
 613 0098 4FF00004 		mov	r4, #0
 614              	.L50:
 615 009c 3C43     		orrs	r4, r4, r7
 616 009e 14F0FF0F 		tst	r4, #255
 617 00a2 C9D1     		bne	.L51
 618              	.L40:
 619 00a4 BDE8F883 		pop	{r3, r4, r5, r6, r7, r8, r9, pc}
 620              	.L57:
 621              		.align	3
 622              	.L56:
 623 00a8 33333333 		.word	858993459
 624 00ac 3333D33F 		.word	1070805811
 625 00b0 33333333 		.word	858993459
 626 00b4 3333D3BF 		.word	-1076677837
 627 00b8 00000000 		.word	distance
 628 00bc 00000000 		.word	a_text
 629 00c0 20000000 		.word	.LC1
 630              		.cfi_endproc
 631              	.LFE71:
 632              		.size	correct_direction, .-correct_direction
 633              		.comm	a_text,9,4
 634              		.comm	distance,40,4
 635              		.comm	UART_str,40,4
 636              		.comm	left_count,2,2
 637              		.comm	right_count,2,2
 638              		.section	.rodata.str1.4,"aMS",%progbits,1
 639              		.align	2
ARM GAS  C:\Users\zhaoh\AppData\Local\Temp\ccED5pOZ.s 			page 15


 640              	.LC0:
 641 0000 52696768 		.ascii	"Right Count %d  Left Count %d \012\000"
 641      7420436F 
 641      756E7420 
 641      25642020 
 641      4C656674 
 642              	.LC1:
 643 0020 25662070 		.ascii	"%f printhere\000"
 643      72696E74 
 643      68657265 
 643      00
 644              		.text
 645              	.Letext0:
 646              		.file 2 "c:\\program files (x86)\\cypress\\psoc creator\\4.2\\psoc creator\\import\\gnu\\arm\\5.4.
 647              		.file 3 "c:\\program files (x86)\\cypress\\psoc creator\\4.2\\psoc creator\\import\\gnu\\arm\\5.4.
 648              		.file 4 "Generated_Source\\PSoC5/cytypes.h"
 649              		.file 5 "Generated_Source\\PSoC5/core_cm3.h"
 650              		.file 6 "header01.h"
 651              		.file 7 "Generated_Source\\PSoC5/Control_Reg_1.h"
 652              		.file 8 "Generated_Source\\PSoC5/dir_rw.h"
 653              		.file 9 "Generated_Source\\PSoC5/dir_lw.h"
 654              		.file 10 "Generated_Source\\PSoC5/Counter_right.h"
 655              		.file 11 "Generated_Source\\PSoC5/Counter_left.h"
 656              		.file 12 "c:\\program files (x86)\\cypress\\psoc creator\\4.2\\psoc creator\\import\\gnu\\arm\\5.4
 657              		.file 13 "Generated_Source\\PSoC5/LED.h"
 658              		.file 14 "Generated_Source\\PSoC5/CyLib.h"
 659              		.file 15 "Generated_Source\\PSoC5/UART_1.h"