ARM GAS  C:\Users\zhaoh\AppData\Local\Temp\cc4nEYub.s 			page 1


   1              		.syntax unified
   2              		.cpu cortex-m3
   3              		.fpu softvfp
   4              		.eabi_attribute 20, 1
   5              		.eabi_attribute 21, 1
   6              		.eabi_attribute 23, 3
   7              		.eabi_attribute 24, 1
   8              		.eabi_attribute 25, 1
   9              		.eabi_attribute 26, 1
  10              		.eabi_attribute 30, 1
  11              		.eabi_attribute 34, 1
  12              		.eabi_attribute 18, 4
  13              		.thumb
  14              		.syntax unified
  15              		.file	"ultrasonic.c"
  16              		.text
  17              	.Ltext0:
  18              		.cfi_sections	.debug_frame
  19              		.global	__aeabi_ui2f
  20              		.global	__aeabi_f2d
  21              		.global	__aeabi_dsub
  22              		.global	__aeabi_ddiv
  23              		.global	__aeabi_d2f
  24              		.section	.text.Timer_1_ISR_Handler,"ax",%progbits
  25              		.align	2
  26              		.global	Timer_1_ISR_Handler
  27              		.thumb
  28              		.thumb_func
  29              		.type	Timer_1_ISR_Handler, %function
  30              	Timer_1_ISR_Handler:
  31              	.LFB64:
  32              		.file 1 "ultrasonic.c"
   1:ultrasonic.c  **** #include "header.h"
   2:ultrasonic.c  **** #include <math.h>
   3:ultrasonic.c  **** #include "stdlib.h"
   4:ultrasonic.c  **** //#include "header01.h"
   5:ultrasonic.c  **** 
   6:ultrasonic.c  **** float count = 0.0;
   7:ultrasonic.c  **** float distance;
   8:ultrasonic.c  **** char distance_str[100];
   9:ultrasonic.c  **** int obst_detect = 0;
  10:ultrasonic.c  **** int array;
  11:ultrasonic.c  **** float distancearray[10];
  12:ultrasonic.c  **** 
  13:ultrasonic.c  **** extern CY_ISR(Timer_1_ISR_Handler){
  33              		.loc 1 13 0
  34              		.cfi_startproc
  35              		@ args = 0, pretend = 0, frame = 0
  36              		@ frame_needed = 0, uses_anonymous_args = 0
  37 0000 70B5     		push	{r4, r5, r6, lr}
  38              		.cfi_def_cfa_offset 16
  39              		.cfi_offset 4, -16
  40              		.cfi_offset 5, -12
  41              		.cfi_offset 6, -8
  42              		.cfi_offset 14, -4
  43 0002 82B0     		sub	sp, sp, #8
  44              		.cfi_def_cfa_offset 24
ARM GAS  C:\Users\zhaoh\AppData\Local\Temp\cc4nEYub.s 			page 2


  14:ultrasonic.c  ****     //UART_1_PutString("\n ISR \n");
  15:ultrasonic.c  ****     Timer_1_ReadStatusRegister(); //Clears interrupt and stop interrupts from firing successively
  45              		.loc 1 15 0
  46 0004 FFF7FEFF 		bl	Timer_1_ReadStatusRegister
  47              	.LVL0:
  16:ultrasonic.c  ****     count = Timer_1_ReadCounter();
  48              		.loc 1 16 0
  49 0008 FFF7FEFF 		bl	Timer_1_ReadCounter
  50              	.LVL1:
  51 000c FFF7FEFF 		bl	__aeabi_ui2f
  52              	.LVL2:
  53 0010 194B     		ldr	r3, .L3+8
  54 0012 1860     		str	r0, [r3]	@ float
  17:ultrasonic.c  ****     distance = (65535.0 - count)/58.0;
  55              		.loc 1 17 0
  56 0014 FFF7FEFF 		bl	__aeabi_f2d
  57              	.LVL3:
  58 0018 0246     		mov	r2, r0
  59 001a 0B46     		mov	r3, r1
  60 001c 14A1     		adr	r1, .L3
  61 001e D1E90001 		ldrd	r0, [r1]
  62 0022 FFF7FEFF 		bl	__aeabi_dsub
  63              	.LVL4:
  64 0026 0022     		movs	r2, #0
  65 0028 144B     		ldr	r3, .L3+12
  66 002a FFF7FEFF 		bl	__aeabi_ddiv
  67              	.LVL5:
  68 002e FFF7FEFF 		bl	__aeabi_d2f
  69              	.LVL6:
  70 0032 134C     		ldr	r4, .L3+16
  71 0034 2060     		str	r0, [r4]	@ float
  18:ultrasonic.c  ****     distancearray[array]=distance;
  72              		.loc 1 18 0
  73 0036 134A     		ldr	r2, .L3+20
  74 0038 1668     		ldr	r6, [r2]
  75 003a 134A     		ldr	r2, .L3+24
  76 003c 42F82600 		str	r0, [r2, r6, lsl #2]	@ float
  19:ultrasonic.c  ****     sprintf(distance_str,"The distance is %d %.3f centimeters.\n",array,distance);
  77              		.loc 1 19 0
  78 0040 124D     		ldr	r5, .L3+28
  79 0042 FFF7FEFF 		bl	__aeabi_f2d
  80              	.LVL7:
  81 0046 CDE90001 		strd	r0, [sp]
  82 004a 3246     		mov	r2, r6
  83 004c 1049     		ldr	r1, .L3+32
  84 004e 2846     		mov	r0, r5
  85 0050 FFF7FEFF 		bl	sprintf
  86              	.LVL8:
  20:ultrasonic.c  ****     
  21:ultrasonic.c  ****     UART_1_PutString(distance_str);
  87              		.loc 1 21 0
  88 0054 2846     		mov	r0, r5
  89 0056 FFF7FEFF 		bl	UART_1_PutString
  90              	.LVL9:
  22:ultrasonic.c  ****     distance=0;
  91              		.loc 1 22 0
  92 005a 0023     		movs	r3, #0
ARM GAS  C:\Users\zhaoh\AppData\Local\Temp\cc4nEYub.s 			page 3


  93 005c 2360     		str	r3, [r4]	@ float
  23:ultrasonic.c  **** //    if(distance[array] < 20){
  24:ultrasonic.c  **** //        //LED_Write(1);
  25:ultrasonic.c  **** //        obst_detect = 1;
  26:ultrasonic.c  **** //    }
  27:ultrasonic.c  **** //       else{
  28:ultrasonic.c  **** //        LED_Write(0);
  29:ultrasonic.c  **** //        obst_detect = 0;
  30:ultrasonic.c  **** //    }
  31:ultrasonic.c  ****     
  32:ultrasonic.c  ****     CyDelay(200);    
  94              		.loc 1 32 0
  95 005e C820     		movs	r0, #200
  96 0060 FFF7FEFF 		bl	CyDelay
  97              	.LVL10:
  33:ultrasonic.c  ****     isr_1_ClearPending();
  98              		.loc 1 33 0
  99 0064 FFF7FEFF 		bl	isr_1_ClearPending
 100              	.LVL11:
  34:ultrasonic.c  **** }
 101              		.loc 1 34 0
 102 0068 02B0     		add	sp, sp, #8
 103              		.cfi_def_cfa_offset 16
 104              		@ sp needed
 105 006a 70BD     		pop	{r4, r5, r6, pc}
 106              	.L4:
 107 006c AFF30080 		.align	3
 108              	.L3:
 109 0070 00000000 		.word	0
 110 0074 E0FFEF40 		.word	1089470432
 111 0078 00000000 		.word	.LANCHOR0
 112 007c 00004D40 		.word	1078788096
 113 0080 00000000 		.word	distance
 114 0084 00000000 		.word	array
 115 0088 00000000 		.word	distancearray
 116 008c 00000000 		.word	distance_str
 117 0090 00000000 		.word	.LC0
 118              		.cfi_endproc
 119              	.LFE64:
 120              		.size	Timer_1_ISR_Handler, .-Timer_1_ISR_Handler
 121              		.section	.text.Sense1,"ax",%progbits
 122              		.align	2
 123              		.global	Sense1
 124              		.thumb
 125              		.thumb_func
 126              		.type	Sense1, %function
 127              	Sense1:
 128              	.LFB65:
  35:ultrasonic.c  **** 
  36:ultrasonic.c  **** float *Sense1()
  37:ultrasonic.c  **** {
 129              		.loc 1 37 0
 130              		.cfi_startproc
 131              		@ args = 0, pretend = 0, frame = 0
 132              		@ frame_needed = 0, uses_anonymous_args = 0
 133 0000 70B5     		push	{r4, r5, r6, lr}
 134              		.cfi_def_cfa_offset 16
ARM GAS  C:\Users\zhaoh\AppData\Local\Temp\cc4nEYub.s 			page 4


 135              		.cfi_offset 4, -16
 136              		.cfi_offset 5, -12
 137              		.cfi_offset 6, -8
 138              		.cfi_offset 14, -4
  38:ultrasonic.c  ****     
  39:ultrasonic.c  ****     Control_Reg_4_Write(0);
 139              		.loc 1 39 0
 140 0002 0020     		movs	r0, #0
 141 0004 FFF7FEFF 		bl	Control_Reg_4_Write
 142              	.LVL12:
  40:ultrasonic.c  ****     CyDelay(100);
 143              		.loc 1 40 0
 144 0008 6420     		movs	r0, #100
 145 000a FFF7FEFF 		bl	CyDelay
 146              	.LVL13:
  41:ultrasonic.c  ****     array=0;
 147              		.loc 1 41 0
 148 000e 2E4E     		ldr	r6, .L7
 149 0010 0024     		movs	r4, #0
 150 0012 3460     		str	r4, [r6]
  42:ultrasonic.c  ****     UART_1_PutString("Sensing front left\n");
 151              		.loc 1 42 0
 152 0014 2D48     		ldr	r0, .L7+4
 153 0016 FFF7FEFF 		bl	UART_1_PutString
 154              	.LVL14:
  43:ultrasonic.c  ****     Trigger_fl_Write(1);
 155              		.loc 1 43 0
 156 001a 0120     		movs	r0, #1
 157 001c FFF7FEFF 		bl	Trigger_fl_Write
 158              	.LVL15:
  44:ultrasonic.c  ****     CyDelayUs(10);
 159              		.loc 1 44 0
 160 0020 0A20     		movs	r0, #10
 161 0022 FFF7FEFF 		bl	CyDelayUs
 162              	.LVL16:
  45:ultrasonic.c  ****     Trigger_fl_Write(0);
 163              		.loc 1 45 0
 164 0026 2046     		mov	r0, r4
 165 0028 FFF7FEFF 		bl	Trigger_fl_Write
 166              	.LVL17:
  46:ultrasonic.c  ****     CyDelay(1000);
 167              		.loc 1 46 0
 168 002c 4FF47A70 		mov	r0, #1000
 169 0030 FFF7FEFF 		bl	CyDelay
 170              	.LVL18:
  47:ultrasonic.c  ****     
  48:ultrasonic.c  ****     
  49:ultrasonic.c  ****     Control_Reg_4_Write(1);
 171              		.loc 1 49 0
 172 0034 0120     		movs	r0, #1
 173 0036 FFF7FEFF 		bl	Control_Reg_4_Write
 174              	.LVL19:
  50:ultrasonic.c  ****     CyDelay(100);
 175              		.loc 1 50 0
 176 003a 6420     		movs	r0, #100
 177 003c FFF7FEFF 		bl	CyDelay
 178              	.LVL20:
ARM GAS  C:\Users\zhaoh\AppData\Local\Temp\cc4nEYub.s 			page 5


  51:ultrasonic.c  ****     array=1;
 179              		.loc 1 51 0
 180 0040 0125     		movs	r5, #1
 181 0042 3560     		str	r5, [r6]
  52:ultrasonic.c  ****     UART_1_PutString("Sensing front right\n");
 182              		.loc 1 52 0
 183 0044 2248     		ldr	r0, .L7+8
 184 0046 FFF7FEFF 		bl	UART_1_PutString
 185              	.LVL21:
  53:ultrasonic.c  ****     Trigger_fr_Write(1);
 186              		.loc 1 53 0
 187 004a 2846     		mov	r0, r5
 188 004c FFF7FEFF 		bl	Trigger_fr_Write
 189              	.LVL22:
  54:ultrasonic.c  ****     CyDelayUs(10);
 190              		.loc 1 54 0
 191 0050 0A20     		movs	r0, #10
 192 0052 FFF7FEFF 		bl	CyDelayUs
 193              	.LVL23:
  55:ultrasonic.c  ****     Trigger_fr_Write(0);
 194              		.loc 1 55 0
 195 0056 2046     		mov	r0, r4
 196 0058 FFF7FEFF 		bl	Trigger_fr_Write
 197              	.LVL24:
  56:ultrasonic.c  ****     CyDelay(1000);
 198              		.loc 1 56 0
 199 005c 4FF47A70 		mov	r0, #1000
 200 0060 FFF7FEFF 		bl	CyDelay
 201              	.LVL25:
  57:ultrasonic.c  ****    
  58:ultrasonic.c  ****     Control_Reg_4_Write(2);
 202              		.loc 1 58 0
 203 0064 0220     		movs	r0, #2
 204 0066 FFF7FEFF 		bl	Control_Reg_4_Write
 205              	.LVL26:
  59:ultrasonic.c  ****     CyDelay(100);
 206              		.loc 1 59 0
 207 006a 6420     		movs	r0, #100
 208 006c FFF7FEFF 		bl	CyDelay
 209              	.LVL27:
  60:ultrasonic.c  ****     array=2;
 210              		.loc 1 60 0
 211 0070 0223     		movs	r3, #2
 212 0072 3360     		str	r3, [r6]
  61:ultrasonic.c  ****     UART_1_PutString("Sensing back left\n");
 213              		.loc 1 61 0
 214 0074 1748     		ldr	r0, .L7+12
 215 0076 FFF7FEFF 		bl	UART_1_PutString
 216              	.LVL28:
  62:ultrasonic.c  ****     Trigger_l_Write(1);
 217              		.loc 1 62 0
 218 007a 2846     		mov	r0, r5
 219 007c FFF7FEFF 		bl	Trigger_l_Write
 220              	.LVL29:
  63:ultrasonic.c  ****     CyDelayUs(10);
 221              		.loc 1 63 0
 222 0080 0A20     		movs	r0, #10
ARM GAS  C:\Users\zhaoh\AppData\Local\Temp\cc4nEYub.s 			page 6


 223 0082 FFF7FEFF 		bl	CyDelayUs
 224              	.LVL30:
  64:ultrasonic.c  ****     Trigger_l_Write(0);
 225              		.loc 1 64 0
 226 0086 2046     		mov	r0, r4
 227 0088 FFF7FEFF 		bl	Trigger_l_Write
 228              	.LVL31:
  65:ultrasonic.c  ****     CyDelay(1000);
 229              		.loc 1 65 0
 230 008c 4FF47A70 		mov	r0, #1000
 231 0090 FFF7FEFF 		bl	CyDelay
 232              	.LVL32:
  66:ultrasonic.c  ****   
  67:ultrasonic.c  ****     Control_Reg_4_Write(3);
 233              		.loc 1 67 0
 234 0094 0320     		movs	r0, #3
 235 0096 FFF7FEFF 		bl	Control_Reg_4_Write
 236              	.LVL33:
  68:ultrasonic.c  ****     CyDelay(100);
 237              		.loc 1 68 0
 238 009a 6420     		movs	r0, #100
 239 009c FFF7FEFF 		bl	CyDelay
 240              	.LVL34:
  69:ultrasonic.c  ****     array=3;
 241              		.loc 1 69 0
 242 00a0 0323     		movs	r3, #3
 243 00a2 3360     		str	r3, [r6]
  70:ultrasonic.c  ****     UART_1_PutString("Sensing back right\n");
 244              		.loc 1 70 0
 245 00a4 0C48     		ldr	r0, .L7+16
 246 00a6 FFF7FEFF 		bl	UART_1_PutString
 247              	.LVL35:
  71:ultrasonic.c  ****     Trigger_r_Write(1);
 248              		.loc 1 71 0
 249 00aa 2846     		mov	r0, r5
 250 00ac FFF7FEFF 		bl	Trigger_r_Write
 251              	.LVL36:
  72:ultrasonic.c  ****     CyDelayUs(10);
 252              		.loc 1 72 0
 253 00b0 0A20     		movs	r0, #10
 254 00b2 FFF7FEFF 		bl	CyDelayUs
 255              	.LVL37:
  73:ultrasonic.c  ****     Trigger_r_Write(0);
 256              		.loc 1 73 0
 257 00b6 2046     		mov	r0, r4
 258 00b8 FFF7FEFF 		bl	Trigger_r_Write
 259              	.LVL38:
  74:ultrasonic.c  ****     CyDelay(1000);
 260              		.loc 1 74 0
 261 00bc 4FF47A70 		mov	r0, #1000
 262 00c0 FFF7FEFF 		bl	CyDelay
 263              	.LVL39:
  75:ultrasonic.c  ****     
  76:ultrasonic.c  ****     
  77:ultrasonic.c  ****     return distancearray;      
  78:ultrasonic.c  **** }...
 264              		.loc 1 78 0
ARM GAS  C:\Users\zhaoh\AppData\Local\Temp\cc4nEYub.s 			page 7


 265 00c4 0548     		ldr	r0, .L7+20
 266 00c6 70BD     		pop	{r4, r5, r6, pc}
 267              	.L8:
 268              		.align	2
 269              	.L7:
 270 00c8 00000000 		.word	array
 271 00cc 28000000 		.word	.LC1
 272 00d0 3C000000 		.word	.LC2
 273 00d4 54000000 		.word	.LC3
 274 00d8 68000000 		.word	.LC4
 275 00dc 00000000 		.word	distancearray
 276              		.cfi_endproc
 277              	.LFE65:
 278              		.size	Sense1, .-Sense1
 279              		.comm	distancearray,40,4
 280              		.comm	array,4,4
 281              		.global	obst_detect
 282              		.comm	distance_str,100,4
 283              		.comm	distance,4,4
 284              		.global	count
 285              		.section	.rodata.str1.4,"aMS",%progbits,1
 286              		.align	2
 287              	.LC0:
 288 0000 54686520 		.ascii	"The distance is %d %.3f centimeters.\012\000"
 288      64697374 
 288      616E6365 
 288      20697320 
 288      25642025 
 289 0026 0000     		.space	2
 290              	.LC1:
 291 0028 53656E73 		.ascii	"Sensing front left\012\000"
 291      696E6720 
 291      66726F6E 
 291      74206C65 
 291      66740A00 
 292              	.LC2:
 293 003c 53656E73 		.ascii	"Sensing front right\012\000"
 293      696E6720 
 293      66726F6E 
 293      74207269 
 293      6768740A 
 294 0051 000000   		.space	3
 295              	.LC3:
 296 0054 53656E73 		.ascii	"Sensing back left\012\000"
 296      696E6720 
 296      6261636B 
 296      206C6566 
 296      740A00
 297 0067 00       		.space	1
 298              	.LC4:
 299 0068 53656E73 		.ascii	"Sensing back right\012\000"
 299      696E6720 
 299      6261636B 
 299      20726967 
 299      68740A00 
 300              		.bss
 301              		.align	2
ARM GAS  C:\Users\zhaoh\AppData\Local\Temp\cc4nEYub.s 			page 8


 302              		.set	.LANCHOR0,. + 0
 303              		.type	count, %object
 304              		.size	count, 4
 305              	count:
 306 0000 00000000 		.space	4
 307              		.type	obst_detect, %object
 308              		.size	obst_detect, 4
 309              	obst_detect:
 310 0004 00000000 		.space	4
 311              		.text
 312              	.Letext0:
 313              		.file 2 "c:\\program files (x86)\\cypress\\psoc creator\\4.2\\psoc creator\\import\\gnu\\arm\\5.4.
 314              		.file 3 "c:\\program files (x86)\\cypress\\psoc creator\\4.2\\psoc creator\\import\\gnu\\arm\\5.4.
 315              		.file 4 "Generated_Source\\PSoC5/core_cm3.h"
 316              		.file 5 "Generated_Source\\PSoC5/Timer_1.h"
 317              		.file 6 "c:\\program files (x86)\\cypress\\psoc creator\\4.2\\psoc creator\\import\\gnu\\arm\\5.4.
 318              		.file 7 "Generated_Source\\PSoC5/UART_1.h"
 319              		.file 8 "Generated_Source\\PSoC5/CyLib.h"
 320              		.file 9 "Generated_Source\\PSoC5/isr_1.h"
 321              		.file 10 "Generated_Source\\PSoC5/Control_Reg_4.h"
 322              		.file 11 "Generated_Source\\PSoC5/Trigger_fl.h"
 323              		.file 12 "Generated_Source\\PSoC5/Trigger_fr.h"
 324              		.file 13 "Generated_Source\\PSoC5/Trigger_l.h"
 325              		.file 14 "Generated_Source\\PSoC5/Trigger_r.h"