ARM GAS  C:\Users\mmoh0006\AppData\Local\Temp\cc2nB4gH.s 			page 1


   1              		.syntax unified
   2              		.cpu cortex-m3
   3              		.fpu softvfp
   4              		.eabi_attribute 20, 1
   5              		.eabi_attribute 21, 1
   6              		.eabi_attribute 23, 3
   7              		.eabi_attribute 24, 1
   8              		.eabi_attribute 25, 1
   9              		.eabi_attribute 26, 1
  10              		.eabi_attribute 30, 4
  11              		.eabi_attribute 34, 1
  12              		.eabi_attribute 18, 4
  13              		.thumb
  14              		.syntax unified
  15              		.file	"BCD_Driver.c"
  16              		.text
  17              	.Ltext0:
  18              		.cfi_sections	.debug_frame
  19              		.section	.text.BCD_Driver_Enable,"ax",%progbits
  20              		.align	1
  21              		.global	BCD_Driver_Enable
  22              		.thumb
  23              		.thumb_func
  24              		.type	BCD_Driver_Enable, %function
  25              	BCD_Driver_Enable:
  26              	.LFB4:
  27              		.file 1 "Generated_Source\\PSoC5\\BCD_Driver.c"
   1:Generated_Source\PSoC5/BCD_Driver.c **** /*******************************************************************************
   2:Generated_Source\PSoC5/BCD_Driver.c **** * File Name: BCD_Driver.c
   3:Generated_Source\PSoC5/BCD_Driver.c **** * Version 1.10
   4:Generated_Source\PSoC5/BCD_Driver.c **** *
   5:Generated_Source\PSoC5/BCD_Driver.c **** * Description:
   6:Generated_Source\PSoC5/BCD_Driver.c **** *  This file contains the setup, control and status commands for the 
   7:Generated_Source\PSoC5/BCD_Driver.c **** *  LED Driver component.
   8:Generated_Source\PSoC5/BCD_Driver.c **** *
   9:Generated_Source\PSoC5/BCD_Driver.c **** * Note:
  10:Generated_Source\PSoC5/BCD_Driver.c **** *  None
  11:Generated_Source\PSoC5/BCD_Driver.c **** *
  12:Generated_Source\PSoC5/BCD_Driver.c **** ********************************************************************************
  13:Generated_Source\PSoC5/BCD_Driver.c **** * Copyright 2013-2015, Cypress Semiconductor Corporation.  All rights reserved.
  14:Generated_Source\PSoC5/BCD_Driver.c **** * You may use this file only in accordance with the license, terms, conditions,
  15:Generated_Source\PSoC5/BCD_Driver.c **** * disclaimers, and limitations in the end user license agreement accompanying
  16:Generated_Source\PSoC5/BCD_Driver.c **** * the software package with which this file was provided.
  17:Generated_Source\PSoC5/BCD_Driver.c **** ********************************************************************************/
  18:Generated_Source\PSoC5/BCD_Driver.c **** 
  19:Generated_Source\PSoC5/BCD_Driver.c **** #include "BCD_Driver.h"
  20:Generated_Source\PSoC5/BCD_Driver.c **** #include <BCD_Driver_DMA_Com_dma.h>
  21:Generated_Source\PSoC5/BCD_Driver.c **** #include <BCD_Driver_DMA_Seg_dma.h>
  22:Generated_Source\PSoC5/BCD_Driver.c **** #if (BCD_Driver_BRIGHTNESS_EN == BCD_Driver_ENABLED)
  23:Generated_Source\PSoC5/BCD_Driver.c ****     #include <BCD_Driver_DMA_BC_dma.h>
  24:Generated_Source\PSoC5/BCD_Driver.c **** #endif /* (BCD_Driver_BRIGHTNESS_EN == BCD_Driver_ENABLED) */
  25:Generated_Source\PSoC5/BCD_Driver.c **** 
  26:Generated_Source\PSoC5/BCD_Driver.c **** /* Function prototypes */
  27:Generated_Source\PSoC5/BCD_Driver.c **** static void BCD_Driver_DmaInit(void) ;
  28:Generated_Source\PSoC5/BCD_Driver.c **** static void BCD_Driver_DmaEnable(void) ;
  29:Generated_Source\PSoC5/BCD_Driver.c **** static void BCD_Driver_DmaDisable(void) ;
  30:Generated_Source\PSoC5/BCD_Driver.c **** 
ARM GAS  C:\Users\mmoh0006\AppData\Local\Temp\cc2nB4gH.s 			page 2


  31:Generated_Source\PSoC5/BCD_Driver.c **** /* Used to hold the common line output sequence */
  32:Generated_Source\PSoC5/BCD_Driver.c **** #if(BCD_Driver_COM_DRIVE == BCD_Driver_HIGH)
  33:Generated_Source\PSoC5/BCD_Driver.c ****     static uint8 BCD_Driver_comBuffer[16] = {0x00u, 0x01u, 0x00u, 0x02u, 0x00u, 0x04u, 0x00u, 0x08u
  34:Generated_Source\PSoC5/BCD_Driver.c ****                                                     0x00u, 0x10u, 0x00u, 0x20u, 0x00u, 0x40u, 0x00u
  35:Generated_Source\PSoC5/BCD_Driver.c **** #else
  36:Generated_Source\PSoC5/BCD_Driver.c ****     static uint8 BCD_Driver_comBuffer[16] = {0xFFu, 0xFEu, 0xFFu, 0xFDu, 0xFFu, 0xFBu, 0xFFu, 0xF7u
  37:Generated_Source\PSoC5/BCD_Driver.c ****                                                     0xFFu, 0xEFu, 0xFFu, 0xDFu, 0xFFu, 0xBFu, 0xFFu
  38:Generated_Source\PSoC5/BCD_Driver.c **** #endif /* (BCD_Driver_COM_DRIVE == BCD_Driver_HIGH) */
  39:Generated_Source\PSoC5/BCD_Driver.c **** 
  40:Generated_Source\PSoC5/BCD_Driver.c **** /* Buffers used to hold the display(segment) values to be transferred to the control registers */
  41:Generated_Source\PSoC5/BCD_Driver.c **** uint8 BCD_Driver_segLBuffer[BCD_Driver_NUM_COM];
  42:Generated_Source\PSoC5/BCD_Driver.c **** #if (BCD_Driver_NUM_SEG > 8u) 
  43:Generated_Source\PSoC5/BCD_Driver.c ****     uint8 BCD_Driver_segMBuffer[BCD_Driver_NUM_COM];
  44:Generated_Source\PSoC5/BCD_Driver.c **** #endif /* (BCD_Driver_NUM_SEG > 8u) */
  45:Generated_Source\PSoC5/BCD_Driver.c **** #if (BCD_Driver_NUM_SEG > 16u) 
  46:Generated_Source\PSoC5/BCD_Driver.c ****     uint8 BCD_Driver_segHBuffer[BCD_Driver_NUM_COM];
  47:Generated_Source\PSoC5/BCD_Driver.c **** #endif /* (BCD_Driver_NUM_SEG > 16u) */
  48:Generated_Source\PSoC5/BCD_Driver.c **** 
  49:Generated_Source\PSoC5/BCD_Driver.c **** #if (BCD_Driver_BRIGHTNESS_EN == BCD_Driver_ENABLED)
  50:Generated_Source\PSoC5/BCD_Driver.c ****     /* The brightness register used to hold the brightness levels for each common */
  51:Generated_Source\PSoC5/BCD_Driver.c ****     static uint8 BCD_Driver_brightnessReg[BCD_Driver_NUM_COM];
  52:Generated_Source\PSoC5/BCD_Driver.c **** #endif /* (BCD_Driver_BRIGHTNESS_EN == BCD_Driver_ENABLED) */
  53:Generated_Source\PSoC5/BCD_Driver.c **** 
  54:Generated_Source\PSoC5/BCD_Driver.c **** /* DMA channel and TD declaractions */
  55:Generated_Source\PSoC5/BCD_Driver.c **** static uint8 BCD_Driver_dmaComChannel;
  56:Generated_Source\PSoC5/BCD_Driver.c **** static uint8 BCD_Driver_dmaComTd[BCD_Driver_TWO_NUM_COM];
  57:Generated_Source\PSoC5/BCD_Driver.c **** 
  58:Generated_Source\PSoC5/BCD_Driver.c **** static uint8 BCD_Driver_dmaSegChannel;
  59:Generated_Source\PSoC5/BCD_Driver.c **** static uint8 BCD_Driver_dmaSegLTd[BCD_Driver_NUM_COM];
  60:Generated_Source\PSoC5/BCD_Driver.c **** 
  61:Generated_Source\PSoC5/BCD_Driver.c **** #if (BCD_Driver_BRIGHTNESS_EN == BCD_Driver_ENABLED)
  62:Generated_Source\PSoC5/BCD_Driver.c ****     static uint8 BCD_Driver_dmaBCChannel;
  63:Generated_Source\PSoC5/BCD_Driver.c ****     static uint8 BCD_Driver_dmaBCTd;
  64:Generated_Source\PSoC5/BCD_Driver.c **** #endif /* (BCD_Driver_BRIGHTNESS_EN == BCD_Driver_ENABLED) */
  65:Generated_Source\PSoC5/BCD_Driver.c **** 
  66:Generated_Source\PSoC5/BCD_Driver.c **** uint8 BCD_Driver_initVar = 0u;
  67:Generated_Source\PSoC5/BCD_Driver.c **** uint8 BCD_Driver_enableVar = 0u;
  68:Generated_Source\PSoC5/BCD_Driver.c **** 
  69:Generated_Source\PSoC5/BCD_Driver.c **** 
  70:Generated_Source\PSoC5/BCD_Driver.c **** /*******************************************************************************
  71:Generated_Source\PSoC5/BCD_Driver.c **** * Function Name: BCD_Driver_DmaInit
  72:Generated_Source\PSoC5/BCD_Driver.c **** ********************************************************************************
  73:Generated_Source\PSoC5/BCD_Driver.c **** *
  74:Generated_Source\PSoC5/BCD_Driver.c **** * Summary: 
  75:Generated_Source\PSoC5/BCD_Driver.c **** *  Initializes the DMAs for transferring from the buffer register arrays to 
  76:Generated_Source\PSoC5/BCD_Driver.c **** *  the control registers.
  77:Generated_Source\PSoC5/BCD_Driver.c **** *
  78:Generated_Source\PSoC5/BCD_Driver.c **** * Parameters:
  79:Generated_Source\PSoC5/BCD_Driver.c **** *  None
  80:Generated_Source\PSoC5/BCD_Driver.c **** *
  81:Generated_Source\PSoC5/BCD_Driver.c **** * Return:
  82:Generated_Source\PSoC5/BCD_Driver.c **** *  None
  83:Generated_Source\PSoC5/BCD_Driver.c **** *
  84:Generated_Source\PSoC5/BCD_Driver.c **** * Side Effects: 
  85:Generated_Source\PSoC5/BCD_Driver.c **** *  None
  86:Generated_Source\PSoC5/BCD_Driver.c **** *
  87:Generated_Source\PSoC5/BCD_Driver.c **** *******************************************************************************/
ARM GAS  C:\Users\mmoh0006\AppData\Local\Temp\cc2nB4gH.s 			page 3


  88:Generated_Source\PSoC5/BCD_Driver.c **** static void BCD_Driver_DmaInit(void) 
  89:Generated_Source\PSoC5/BCD_Driver.c **** {
  90:Generated_Source\PSoC5/BCD_Driver.c ****     uint8  i;
  91:Generated_Source\PSoC5/BCD_Driver.c ****     
  92:Generated_Source\PSoC5/BCD_Driver.c ****     /* Segment TDs for Seg_Driver_M and Seg_Driver_H control registers */
  93:Generated_Source\PSoC5/BCD_Driver.c ****     #if (BCD_Driver_NUM_SEG > 8u)
  94:Generated_Source\PSoC5/BCD_Driver.c ****         static uint8 BCD_Driver_dmaSegMTd[BCD_Driver_NUM_COM];
  95:Generated_Source\PSoC5/BCD_Driver.c ****     #endif /* (BCD_Driver_NUM_SEG > 8u) */
  96:Generated_Source\PSoC5/BCD_Driver.c ****     #if (BCD_Driver_NUM_SEG > 16u)
  97:Generated_Source\PSoC5/BCD_Driver.c ****         static uint8 BCD_Driver_dmaSegHTd[BCD_Driver_NUM_COM];
  98:Generated_Source\PSoC5/BCD_Driver.c ****     #endif /* (BCD_Driver_NUM_SEG > 16u) */
  99:Generated_Source\PSoC5/BCD_Driver.c **** 
 100:Generated_Source\PSoC5/BCD_Driver.c ****     /************************* DMA configuration for the Commons *************************/
 101:Generated_Source\PSoC5/BCD_Driver.c ****     /* Common DMA channel */
 102:Generated_Source\PSoC5/BCD_Driver.c ****     BCD_Driver_dmaComChannel = BCD_Driver_DMA_Com_DmaInitialize(1u, 1u, 
 103:Generated_Source\PSoC5/BCD_Driver.c ****                                         HI16(BCD_Driver_SRAM_BASE), HI16(BCD_Driver_CONTROL_REG_BAS
 104:Generated_Source\PSoC5/BCD_Driver.c **** 
 105:Generated_Source\PSoC5/BCD_Driver.c ****     /* Check if the channel is valid */                                                            
 106:Generated_Source\PSoC5/BCD_Driver.c ****     if(BCD_Driver_dmaComChannel != DMA_INVALID_CHANNEL)
 107:Generated_Source\PSoC5/BCD_Driver.c ****     {
 108:Generated_Source\PSoC5/BCD_Driver.c ****         /* Allocate the common TDs */
 109:Generated_Source\PSoC5/BCD_Driver.c ****         for(i = 0u; i < BCD_Driver_TWO_NUM_COM; i++)
 110:Generated_Source\PSoC5/BCD_Driver.c ****         {
 111:Generated_Source\PSoC5/BCD_Driver.c ****             BCD_Driver_dmaComTd[i] = CyDmaTdAllocate();
 112:Generated_Source\PSoC5/BCD_Driver.c ****         }
 113:Generated_Source\PSoC5/BCD_Driver.c ****         
 114:Generated_Source\PSoC5/BCD_Driver.c ****         /* Set configuration for the Common TDs */
 115:Generated_Source\PSoC5/BCD_Driver.c ****         for(i = 0u;  i < (BCD_Driver_TWO_NUM_COM - 1u); i++)
 116:Generated_Source\PSoC5/BCD_Driver.c ****         {
 117:Generated_Source\PSoC5/BCD_Driver.c ****             /* Separate configurations for odd and even TDs */
 118:Generated_Source\PSoC5/BCD_Driver.c ****             if((uint8)(i & 1u) == 0u)
 119:Generated_Source\PSoC5/BCD_Driver.c ****             {
 120:Generated_Source\PSoC5/BCD_Driver.c ****                 /* Set configuration for the Common TDs */
 121:Generated_Source\PSoC5/BCD_Driver.c ****                 (void) CyDmaTdSetConfiguration(BCD_Driver_dmaComTd[i], 1u, 
 122:Generated_Source\PSoC5/BCD_Driver.c ****                                                 BCD_Driver_dmaComTd[i+1u],
 123:Generated_Source\PSoC5/BCD_Driver.c ****                                                 TD_INC_SRC_ADR | BCD_Driver_DMA_Com__TD_TERMOUT_EN)
 124:Generated_Source\PSoC5/BCD_Driver.c ****             }
 125:Generated_Source\PSoC5/BCD_Driver.c ****             else
 126:Generated_Source\PSoC5/BCD_Driver.c ****             {
 127:Generated_Source\PSoC5/BCD_Driver.c ****                 /* Set configuration for the Common TDs */
 128:Generated_Source\PSoC5/BCD_Driver.c ****                 (void) CyDmaTdSetConfiguration(BCD_Driver_dmaComTd[i], 1u,
 129:Generated_Source\PSoC5/BCD_Driver.c ****                                                 BCD_Driver_dmaComTd[i+1u], TD_INC_SRC_ADR);
 130:Generated_Source\PSoC5/BCD_Driver.c ****             }
 131:Generated_Source\PSoC5/BCD_Driver.c ****         }
 132:Generated_Source\PSoC5/BCD_Driver.c ****         /* Set the wraparound Common TD configuration */
 133:Generated_Source\PSoC5/BCD_Driver.c ****         (void) CyDmaTdSetConfiguration(BCD_Driver_dmaComTd[BCD_Driver_TWO_NUM_COM - 1u], 
 134:Generated_Source\PSoC5/BCD_Driver.c ****                                         1u, BCD_Driver_dmaComTd[0u], TD_INC_SRC_ADR);
 135:Generated_Source\PSoC5/BCD_Driver.c ****         
 136:Generated_Source\PSoC5/BCD_Driver.c ****         /* Set the lower addresses of the common TDs */
 137:Generated_Source\PSoC5/BCD_Driver.c ****         for(i = 0u; i < BCD_Driver_TWO_NUM_COM; i++)
 138:Generated_Source\PSoC5/BCD_Driver.c ****         {
 139:Generated_Source\PSoC5/BCD_Driver.c ****             (void) CyDmaTdSetAddress(BCD_Driver_dmaComTd[i],
 140:Generated_Source\PSoC5/BCD_Driver.c ****                                         LO16((uint32) &BCD_Driver_comBuffer[i]),
 141:Generated_Source\PSoC5/BCD_Driver.c ****                                         LO16((uint32) BCD_Driver_COM_CONTROL_PTR));
 142:Generated_Source\PSoC5/BCD_Driver.c ****         }    
 143:Generated_Source\PSoC5/BCD_Driver.c ****     }
 144:Generated_Source\PSoC5/BCD_Driver.c ****     
ARM GAS  C:\Users\mmoh0006\AppData\Local\Temp\cc2nB4gH.s 			page 4


 145:Generated_Source\PSoC5/BCD_Driver.c ****     
 146:Generated_Source\PSoC5/BCD_Driver.c ****     /*********************** DMA configuration for the Segments ***********************/
 147:Generated_Source\PSoC5/BCD_Driver.c ****     /* Get the DMA channels for the segments */
 148:Generated_Source\PSoC5/BCD_Driver.c ****     BCD_Driver_dmaSegChannel = BCD_Driver_DMA_Seg_DmaInitialize(1u, 1u, 
 149:Generated_Source\PSoC5/BCD_Driver.c ****                                         HI16(BCD_Driver_SRAM_BASE), HI16(BCD_Driver_CONTROL_REG_BAS
 150:Generated_Source\PSoC5/BCD_Driver.c ****     
 151:Generated_Source\PSoC5/BCD_Driver.c ****     /* Check if the segment channel is valid */
 152:Generated_Source\PSoC5/BCD_Driver.c ****     if(BCD_Driver_dmaSegChannel != DMA_INVALID_CHANNEL)
 153:Generated_Source\PSoC5/BCD_Driver.c ****     {
 154:Generated_Source\PSoC5/BCD_Driver.c ****         /* Allocate separate Tds for segments to implement the chain */
 155:Generated_Source\PSoC5/BCD_Driver.c ****         for(i = 0u; i < BCD_Driver_NUM_COM; i++)
 156:Generated_Source\PSoC5/BCD_Driver.c ****         {
 157:Generated_Source\PSoC5/BCD_Driver.c ****             BCD_Driver_dmaSegLTd[i] = CyDmaTdAllocate();
 158:Generated_Source\PSoC5/BCD_Driver.c ****             #if (BCD_Driver_NUM_SEG > 8u)
 159:Generated_Source\PSoC5/BCD_Driver.c ****                 BCD_Driver_dmaSegMTd[i] = CyDmaTdAllocate();
 160:Generated_Source\PSoC5/BCD_Driver.c ****             #endif /* (BCD_Driver_NUM_SEG > 8u) */
 161:Generated_Source\PSoC5/BCD_Driver.c ****             #if (BCD_Driver_NUM_SEG > 16u)
 162:Generated_Source\PSoC5/BCD_Driver.c ****                 BCD_Driver_dmaSegHTd[i] = CyDmaTdAllocate();
 163:Generated_Source\PSoC5/BCD_Driver.c ****             #endif /* (BCD_Driver_NUM_SEG > 16u) */
 164:Generated_Source\PSoC5/BCD_Driver.c ****         }
 165:Generated_Source\PSoC5/BCD_Driver.c ****         
 166:Generated_Source\PSoC5/BCD_Driver.c ****         /* Set the configuration for the Segment TDs */
 167:Generated_Source\PSoC5/BCD_Driver.c ****         for(i = 0u; i < (BCD_Driver_NUM_COM - 1u); i++)
 168:Generated_Source\PSoC5/BCD_Driver.c ****         {
 169:Generated_Source\PSoC5/BCD_Driver.c ****             #if (BCD_Driver_NUM_SEG <= 8u)
 170:Generated_Source\PSoC5/BCD_Driver.c ****                 (void) CyDmaTdSetConfiguration(BCD_Driver_dmaSegLTd[i], 1u, BCD_Driver_dmaSegLTd[i+
 171:Generated_Source\PSoC5/BCD_Driver.c ****                                                 TD_INC_SRC_ADR | BCD_Driver_DMA_Seg__TD_TERMOUT_EN)
 172:Generated_Source\PSoC5/BCD_Driver.c ****             #else    
 173:Generated_Source\PSoC5/BCD_Driver.c ****                 (void) CyDmaTdSetConfiguration(BCD_Driver_dmaSegLTd[i], 1u, BCD_Driver_dmaSegMTd[i]
 174:Generated_Source\PSoC5/BCD_Driver.c ****                                                 TD_INC_SRC_ADR | TD_AUTO_EXEC_NEXT);
 175:Generated_Source\PSoC5/BCD_Driver.c **** 
 176:Generated_Source\PSoC5/BCD_Driver.c ****                 #if (BCD_Driver_NUM_SEG <= 16u)
 177:Generated_Source\PSoC5/BCD_Driver.c ****                     (void) CyDmaTdSetConfiguration(BCD_Driver_dmaSegMTd[i], 1u, BCD_Driver_dmaSegLT
 178:Generated_Source\PSoC5/BCD_Driver.c ****                                                     TD_INC_SRC_ADR | BCD_Driver_DMA_Seg__TD_TERMOUT
 179:Generated_Source\PSoC5/BCD_Driver.c ****                 #else    
 180:Generated_Source\PSoC5/BCD_Driver.c ****                     (void) CyDmaTdSetConfiguration(BCD_Driver_dmaSegMTd[i], 1u, BCD_Driver_dmaSegHT
 181:Generated_Source\PSoC5/BCD_Driver.c ****                                                     TD_INC_SRC_ADR | TD_AUTO_EXEC_NEXT);
 182:Generated_Source\PSoC5/BCD_Driver.c ****                     (void) CyDmaTdSetConfiguration(BCD_Driver_dmaSegHTd[i], 1u, BCD_Driver_dmaSegLT
 183:Generated_Source\PSoC5/BCD_Driver.c ****                                                     TD_INC_SRC_ADR | BCD_Driver_DMA_Seg__TD_TERMOUT
 184:Generated_Source\PSoC5/BCD_Driver.c ****                 #endif /* BCD_Driver_NUM_SEG <= 16u */
 185:Generated_Source\PSoC5/BCD_Driver.c ****             #endif /* BCD_Driver_NUM_SEG <= 8u */
 186:Generated_Source\PSoC5/BCD_Driver.c ****         }
 187:Generated_Source\PSoC5/BCD_Driver.c ****         
 188:Generated_Source\PSoC5/BCD_Driver.c ****         /* Set the wraparound Segment TD configurations */
 189:Generated_Source\PSoC5/BCD_Driver.c ****         #if (BCD_Driver_NUM_SEG <= 8u)
 190:Generated_Source\PSoC5/BCD_Driver.c ****             (void) CyDmaTdSetConfiguration(BCD_Driver_dmaSegLTd[BCD_Driver_NUM_COM - 1u],
 191:Generated_Source\PSoC5/BCD_Driver.c ****                                             1u, BCD_Driver_dmaSegLTd[0u], 
 192:Generated_Source\PSoC5/BCD_Driver.c ****                                             TD_INC_SRC_ADR | BCD_Driver_DMA_Seg__TD_TERMOUT_EN);
 193:Generated_Source\PSoC5/BCD_Driver.c ****         #else    
 194:Generated_Source\PSoC5/BCD_Driver.c ****             (void) CyDmaTdSetConfiguration(BCD_Driver_dmaSegLTd[BCD_Driver_NUM_COM - 1u],
 195:Generated_Source\PSoC5/BCD_Driver.c ****                                             1u, BCD_Driver_dmaSegMTd[BCD_Driver_NUM_COM - 1u],
 196:Generated_Source\PSoC5/BCD_Driver.c ****                                             TD_INC_SRC_ADR | TD_AUTO_EXEC_NEXT);
 197:Generated_Source\PSoC5/BCD_Driver.c ****             #if (BCD_Driver_NUM_SEG <= 16u)
 198:Generated_Source\PSoC5/BCD_Driver.c ****                 (void) CyDmaTdSetConfiguration(BCD_Driver_dmaSegMTd[BCD_Driver_NUM_COM - 1u],
 199:Generated_Source\PSoC5/BCD_Driver.c ****                                                 1u, BCD_Driver_dmaSegLTd[0u], 
 200:Generated_Source\PSoC5/BCD_Driver.c ****                                                 TD_INC_SRC_ADR | BCD_Driver_DMA_Seg__TD_TERMOUT_EN)
 201:Generated_Source\PSoC5/BCD_Driver.c ****             #else    
ARM GAS  C:\Users\mmoh0006\AppData\Local\Temp\cc2nB4gH.s 			page 5


 202:Generated_Source\PSoC5/BCD_Driver.c ****                 (void) CyDmaTdSetConfiguration(BCD_Driver_dmaSegMTd[BCD_Driver_NUM_COM - 1u],
 203:Generated_Source\PSoC5/BCD_Driver.c ****                                                 1u, BCD_Driver_dmaSegHTd[BCD_Driver_NUM_COM - 1u], 
 204:Generated_Source\PSoC5/BCD_Driver.c ****                                                 TD_INC_SRC_ADR | TD_AUTO_EXEC_NEXT);
 205:Generated_Source\PSoC5/BCD_Driver.c ****                 (void) CyDmaTdSetConfiguration(BCD_Driver_dmaSegHTd[BCD_Driver_NUM_COM - 1u],
 206:Generated_Source\PSoC5/BCD_Driver.c ****                                                 1u, BCD_Driver_dmaSegLTd[0u], 
 207:Generated_Source\PSoC5/BCD_Driver.c ****                                                 TD_INC_SRC_ADR | BCD_Driver_DMA_Seg__TD_TERMOUT_EN)
 208:Generated_Source\PSoC5/BCD_Driver.c ****             #endif /* (BCD_Driver_NUM_SEG <= 16u) */
 209:Generated_Source\PSoC5/BCD_Driver.c ****         #endif /* (BCD_Driver_NUM_SEG <= 8u) */
 210:Generated_Source\PSoC5/BCD_Driver.c ****         
 211:Generated_Source\PSoC5/BCD_Driver.c ****         /* The lower addresses for the segment TDs */
 212:Generated_Source\PSoC5/BCD_Driver.c ****         for(i = 0u; i < BCD_Driver_NUM_COM; i++)
 213:Generated_Source\PSoC5/BCD_Driver.c ****         {
 214:Generated_Source\PSoC5/BCD_Driver.c ****             (void) CyDmaTdSetAddress(BCD_Driver_dmaSegLTd[i],
 215:Generated_Source\PSoC5/BCD_Driver.c ****                                             LO16((uint32) &BCD_Driver_segLBuffer[i]),
 216:Generated_Source\PSoC5/BCD_Driver.c ****                                             LO16((uint32) BCD_Driver_SEG_L_CONTROL_PTR));
 217:Generated_Source\PSoC5/BCD_Driver.c ****             #if (BCD_Driver_NUM_SEG > 8u)
 218:Generated_Source\PSoC5/BCD_Driver.c ****                 (void) CyDmaTdSetAddress(BCD_Driver_dmaSegMTd[i],
 219:Generated_Source\PSoC5/BCD_Driver.c ****                                             LO16((uint32) &BCD_Driver_segMBuffer[i]),
 220:Generated_Source\PSoC5/BCD_Driver.c ****                                             LO16((uint32) BCD_Driver_SEG_M_CONTROL_PTR));
 221:Generated_Source\PSoC5/BCD_Driver.c ****             #endif /* (BCD_Driver_NUM_SEG > 8u) */
 222:Generated_Source\PSoC5/BCD_Driver.c ****             #if (BCD_Driver_NUM_SEG > 16u)
 223:Generated_Source\PSoC5/BCD_Driver.c ****                 (void) CyDmaTdSetAddress(BCD_Driver_dmaSegHTd[i], 
 224:Generated_Source\PSoC5/BCD_Driver.c ****                                             LO16((uint32) &BCD_Driver_segHBuffer[i]),
 225:Generated_Source\PSoC5/BCD_Driver.c ****                                             LO16((uint32) BCD_Driver_SEG_H_CONTROL_PTR));
 226:Generated_Source\PSoC5/BCD_Driver.c ****             #endif /* (BCD_Driver_NUM_SEG > 16u) */
 227:Generated_Source\PSoC5/BCD_Driver.c ****         }
 228:Generated_Source\PSoC5/BCD_Driver.c ****     }
 229:Generated_Source\PSoC5/BCD_Driver.c ****     
 230:Generated_Source\PSoC5/BCD_Driver.c ****     
 231:Generated_Source\PSoC5/BCD_Driver.c ****     /******************** DMA configuration for Brightness control *********************/
 232:Generated_Source\PSoC5/BCD_Driver.c ****     
 233:Generated_Source\PSoC5/BCD_Driver.c ****     #if (BCD_Driver_BRIGHTNESS_EN == BCD_Driver_ENABLED)
 234:Generated_Source\PSoC5/BCD_Driver.c ****         /* Get the DMA channels */
 235:Generated_Source\PSoC5/BCD_Driver.c ****         BCD_Driver_dmaBCChannel = BCD_Driver_DMA_BC_DmaInitialize(1u, 1u, 
 236:Generated_Source\PSoC5/BCD_Driver.c ****                                         HI16(BCD_Driver_SRAM_BASE), HI16(BCD_Driver_CONTROL_REG_BAS
 237:Generated_Source\PSoC5/BCD_Driver.c ****             
 238:Generated_Source\PSoC5/BCD_Driver.c ****         /* Check if the channels are valid */
 239:Generated_Source\PSoC5/BCD_Driver.c ****         if(BCD_Driver_dmaBCChannel != DMA_INVALID_CHANNEL)
 240:Generated_Source\PSoC5/BCD_Driver.c ****         {
 241:Generated_Source\PSoC5/BCD_Driver.c ****             BCD_Driver_dmaBCTd = CyDmaTdAllocate();
 242:Generated_Source\PSoC5/BCD_Driver.c ****             
 243:Generated_Source\PSoC5/BCD_Driver.c ****             /* Set the TD configuration for the brightness DMA */
 244:Generated_Source\PSoC5/BCD_Driver.c ****             (void) CyDmaTdSetConfiguration(BCD_Driver_dmaBCTd, BCD_Driver_NUM_COM,
 245:Generated_Source\PSoC5/BCD_Driver.c ****                                         BCD_Driver_dmaBCTd, TD_INC_SRC_ADR);
 246:Generated_Source\PSoC5/BCD_Driver.c ****             
 247:Generated_Source\PSoC5/BCD_Driver.c ****             /* Lower address for the brightness Td */
 248:Generated_Source\PSoC5/BCD_Driver.c ****             (void) CyDmaTdSetAddress(BCD_Driver_dmaBCTd, LO16((uint32) &BCD_Driver_brightnessReg[0u
 249:Generated_Source\PSoC5/BCD_Driver.c ****                                                                LO16((uint32)BCD_Driver_COMPARE_PTR)
 250:Generated_Source\PSoC5/BCD_Driver.c ****         }
 251:Generated_Source\PSoC5/BCD_Driver.c ****     #endif /* (BCD_Driver_BRIGHTNESS_EN == BCD_Driver_ENABLED) */
 252:Generated_Source\PSoC5/BCD_Driver.c **** }
 253:Generated_Source\PSoC5/BCD_Driver.c **** 
 254:Generated_Source\PSoC5/BCD_Driver.c **** 
 255:Generated_Source\PSoC5/BCD_Driver.c **** /*******************************************************************************
 256:Generated_Source\PSoC5/BCD_Driver.c **** * Function Name: BCD_Driver_DmaEnable
 257:Generated_Source\PSoC5/BCD_Driver.c **** ********************************************************************************
 258:Generated_Source\PSoC5/BCD_Driver.c **** *
ARM GAS  C:\Users\mmoh0006\AppData\Local\Temp\cc2nB4gH.s 			page 6


 259:Generated_Source\PSoC5/BCD_Driver.c **** * Summary: 
 260:Generated_Source\PSoC5/BCD_Driver.c **** *  Enables the DMAs for transferring from the buffer register arrays to the
 261:Generated_Source\PSoC5/BCD_Driver.c **** *  control registers.
 262:Generated_Source\PSoC5/BCD_Driver.c **** *
 263:Generated_Source\PSoC5/BCD_Driver.c **** * Parameters:
 264:Generated_Source\PSoC5/BCD_Driver.c **** *  None
 265:Generated_Source\PSoC5/BCD_Driver.c **** *
 266:Generated_Source\PSoC5/BCD_Driver.c **** * Return: 
 267:Generated_Source\PSoC5/BCD_Driver.c **** *  None
 268:Generated_Source\PSoC5/BCD_Driver.c **** *
 269:Generated_Source\PSoC5/BCD_Driver.c **** * Side Effects: 
 270:Generated_Source\PSoC5/BCD_Driver.c **** *  None
 271:Generated_Source\PSoC5/BCD_Driver.c **** *
 272:Generated_Source\PSoC5/BCD_Driver.c **** *******************************************************************************/
 273:Generated_Source\PSoC5/BCD_Driver.c **** static void BCD_Driver_DmaEnable(void) 
 274:Generated_Source\PSoC5/BCD_Driver.c **** {
 275:Generated_Source\PSoC5/BCD_Driver.c ****     /* Initialize the TDs to the respective channels */
 276:Generated_Source\PSoC5/BCD_Driver.c ****     (void) CyDmaChSetInitialTd(BCD_Driver_dmaComChannel, BCD_Driver_dmaComTd[0u]);
 277:Generated_Source\PSoC5/BCD_Driver.c ****     (void) CyDmaChSetInitialTd(BCD_Driver_dmaSegChannel, BCD_Driver_dmaSegLTd[0u]);
 278:Generated_Source\PSoC5/BCD_Driver.c ****     #if (BCD_Driver_BRIGHTNESS_EN == BCD_Driver_ENABLED)
 279:Generated_Source\PSoC5/BCD_Driver.c ****         (void) CyDmaChSetInitialTd(BCD_Driver_dmaBCChannel, BCD_Driver_dmaBCTd);
 280:Generated_Source\PSoC5/BCD_Driver.c ****     #endif /* (BCD_Driver_BRIGHTNESS_EN == BCD_Driver_ENABLED) */
 281:Generated_Source\PSoC5/BCD_Driver.c ****     
 282:Generated_Source\PSoC5/BCD_Driver.c ****     /* Enable all channels */
 283:Generated_Source\PSoC5/BCD_Driver.c ****     (void) CyDmaChEnable(BCD_Driver_dmaComChannel, 1u);
 284:Generated_Source\PSoC5/BCD_Driver.c ****     (void) CyDmaChEnable(BCD_Driver_dmaSegChannel, 1u);
 285:Generated_Source\PSoC5/BCD_Driver.c ****     #if (BCD_Driver_BRIGHTNESS_EN == BCD_Driver_ENABLED)
 286:Generated_Source\PSoC5/BCD_Driver.c ****         (void) CyDmaChEnable(BCD_Driver_dmaBCChannel, 1u);
 287:Generated_Source\PSoC5/BCD_Driver.c ****     #endif /* (BCD_Driver_BRIGHTNESS_EN == BCD_Driver_ENABLED) */
 288:Generated_Source\PSoC5/BCD_Driver.c **** }
 289:Generated_Source\PSoC5/BCD_Driver.c **** 
 290:Generated_Source\PSoC5/BCD_Driver.c **** 
 291:Generated_Source\PSoC5/BCD_Driver.c **** /*******************************************************************************
 292:Generated_Source\PSoC5/BCD_Driver.c **** * Function Name: BCD_Driver_DmaDisable
 293:Generated_Source\PSoC5/BCD_Driver.c **** ********************************************************************************
 294:Generated_Source\PSoC5/BCD_Driver.c **** *
 295:Generated_Source\PSoC5/BCD_Driver.c **** * Summary: 
 296:Generated_Source\PSoC5/BCD_Driver.c **** *  Disables the DMAs for transferring from register array to the control 
 297:Generated_Source\PSoC5/BCD_Driver.c **** *  register.
 298:Generated_Source\PSoC5/BCD_Driver.c **** *
 299:Generated_Source\PSoC5/BCD_Driver.c **** * Parameters:
 300:Generated_Source\PSoC5/BCD_Driver.c **** *  None
 301:Generated_Source\PSoC5/BCD_Driver.c **** *
 302:Generated_Source\PSoC5/BCD_Driver.c **** * Return: 
 303:Generated_Source\PSoC5/BCD_Driver.c **** *  None
 304:Generated_Source\PSoC5/BCD_Driver.c **** *
 305:Generated_Source\PSoC5/BCD_Driver.c **** * Side Effects: 
 306:Generated_Source\PSoC5/BCD_Driver.c **** *  None
 307:Generated_Source\PSoC5/BCD_Driver.c **** *
 308:Generated_Source\PSoC5/BCD_Driver.c **** *******************************************************************************/
 309:Generated_Source\PSoC5/BCD_Driver.c **** static void BCD_Driver_DmaDisable(void) 
 310:Generated_Source\PSoC5/BCD_Driver.c **** {
 311:Generated_Source\PSoC5/BCD_Driver.c ****     uint8 i;
 312:Generated_Source\PSoC5/BCD_Driver.c ****     uint8 channel;
 313:Generated_Source\PSoC5/BCD_Driver.c ****     uint8 dmaChannelList[BCD_Driver_CHANNEL_LIMIT];
 314:Generated_Source\PSoC5/BCD_Driver.c ****     
 315:Generated_Source\PSoC5/BCD_Driver.c ****     dmaChannelList[0u] = BCD_Driver_dmaComChannel;
ARM GAS  C:\Users\mmoh0006\AppData\Local\Temp\cc2nB4gH.s 			page 7


 316:Generated_Source\PSoC5/BCD_Driver.c ****     dmaChannelList[1u] = BCD_Driver_dmaSegChannel;
 317:Generated_Source\PSoC5/BCD_Driver.c ****     #if (BCD_Driver_BRIGHTNESS_EN == BCD_Driver_ENABLED)
 318:Generated_Source\PSoC5/BCD_Driver.c ****         dmaChannelList[2u] = BCD_Driver_dmaBCChannel;
 319:Generated_Source\PSoC5/BCD_Driver.c ****     #endif /* (BCD_Driver_BRIGHTNESS_EN == BCD_Driver_ENABLED) */
 320:Generated_Source\PSoC5/BCD_Driver.c **** 
 321:Generated_Source\PSoC5/BCD_Driver.c ****     for(i = 0u; i < BCD_Driver_CHANNEL_LIMIT; i++)
 322:Generated_Source\PSoC5/BCD_Driver.c ****     {
 323:Generated_Source\PSoC5/BCD_Driver.c ****         channel = dmaChannelList[i];
 324:Generated_Source\PSoC5/BCD_Driver.c ****         (void) CyDmaChDisable(channel);
 325:Generated_Source\PSoC5/BCD_Driver.c ****         
 326:Generated_Source\PSoC5/BCD_Driver.c ****         BCD_Driver_Com_Driver_Write(BCD_Driver_CLEAR);
 327:Generated_Source\PSoC5/BCD_Driver.c ****         
 328:Generated_Source\PSoC5/BCD_Driver.c ****         /* Clear any potential DMA requests and re-reset TD pointers */
 329:Generated_Source\PSoC5/BCD_Driver.c ****         while(0u != (CY_DMA_CH_STRUCT_PTR[channel].basic_status[0u] & CY_DMA_STATUS_TD_ACTIVE))
 330:Generated_Source\PSoC5/BCD_Driver.c ****         {
 331:Generated_Source\PSoC5/BCD_Driver.c ****             ; /* Wait for to be cleared */
 332:Generated_Source\PSoC5/BCD_Driver.c ****         }
 333:Generated_Source\PSoC5/BCD_Driver.c **** 
 334:Generated_Source\PSoC5/BCD_Driver.c ****         (void) CyDmaChSetRequest(channel, CY_DMA_CPU_TERM_CHAIN);
 335:Generated_Source\PSoC5/BCD_Driver.c ****         (void) CyDmaChEnable    (channel, 1u);
 336:Generated_Source\PSoC5/BCD_Driver.c **** 
 337:Generated_Source\PSoC5/BCD_Driver.c ****         while(0u != (CY_DMA_CH_STRUCT_PTR[channel].basic_cfg[0u] & CY_DMA_STATUS_CHAIN_ACTIVE))
 338:Generated_Source\PSoC5/BCD_Driver.c ****         {
 339:Generated_Source\PSoC5/BCD_Driver.c ****             ; /* Wait for to be cleared */
 340:Generated_Source\PSoC5/BCD_Driver.c ****         }
 341:Generated_Source\PSoC5/BCD_Driver.c ****     }
 342:Generated_Source\PSoC5/BCD_Driver.c **** }
 343:Generated_Source\PSoC5/BCD_Driver.c **** 
 344:Generated_Source\PSoC5/BCD_Driver.c **** 
 345:Generated_Source\PSoC5/BCD_Driver.c **** /*******************************************************************************
 346:Generated_Source\PSoC5/BCD_Driver.c **** * Function Name: BCD_Driver_Init
 347:Generated_Source\PSoC5/BCD_Driver.c **** ********************************************************************************
 348:Generated_Source\PSoC5/BCD_Driver.c **** *
 349:Generated_Source\PSoC5/BCD_Driver.c **** * Summary: 
 350:Generated_Source\PSoC5/BCD_Driver.c **** *  Performs initialization required for the component to operate.
 351:Generated_Source\PSoC5/BCD_Driver.c **** *
 352:Generated_Source\PSoC5/BCD_Driver.c **** * Parameters:
 353:Generated_Source\PSoC5/BCD_Driver.c **** *  None
 354:Generated_Source\PSoC5/BCD_Driver.c **** *
 355:Generated_Source\PSoC5/BCD_Driver.c **** * Return: 
 356:Generated_Source\PSoC5/BCD_Driver.c **** *  None
 357:Generated_Source\PSoC5/BCD_Driver.c **** *
 358:Generated_Source\PSoC5/BCD_Driver.c **** * Side Effects: 
 359:Generated_Source\PSoC5/BCD_Driver.c **** *  This action clears the display.
 360:Generated_Source\PSoC5/BCD_Driver.c **** *
 361:Generated_Source\PSoC5/BCD_Driver.c **** *******************************************************************************/
 362:Generated_Source\PSoC5/BCD_Driver.c **** void BCD_Driver_Init(void) 
 363:Generated_Source\PSoC5/BCD_Driver.c **** {
 364:Generated_Source\PSoC5/BCD_Driver.c ****     static uint8 BCD_Driver_dmaInitDone = 0u;
 365:Generated_Source\PSoC5/BCD_Driver.c ****     #if (BCD_Driver_BRIGHTNESS_EN == BCD_Driver_ENABLED)
 366:Generated_Source\PSoC5/BCD_Driver.c ****         uint8 i;
 367:Generated_Source\PSoC5/BCD_Driver.c ****     #endif /* (BCD_Driver_BRIGHTNESS_EN == BCD_Driver_ENABLED) */
 368:Generated_Source\PSoC5/BCD_Driver.c ****     
 369:Generated_Source\PSoC5/BCD_Driver.c ****     /* Start fresh by clearing the display */
 370:Generated_Source\PSoC5/BCD_Driver.c ****     BCD_Driver_ClearDisplayAll();
 371:Generated_Source\PSoC5/BCD_Driver.c ****     
 372:Generated_Source\PSoC5/BCD_Driver.c ****     /* Initialize the DMAs */
ARM GAS  C:\Users\mmoh0006\AppData\Local\Temp\cc2nB4gH.s 			page 8


 373:Generated_Source\PSoC5/BCD_Driver.c ****     if(0u == BCD_Driver_dmaInitDone)
 374:Generated_Source\PSoC5/BCD_Driver.c ****     {
 375:Generated_Source\PSoC5/BCD_Driver.c ****         BCD_Driver_DmaInit();
 376:Generated_Source\PSoC5/BCD_Driver.c ****         BCD_Driver_dmaInitDone = 1u;
 377:Generated_Source\PSoC5/BCD_Driver.c ****     }
 378:Generated_Source\PSoC5/BCD_Driver.c ****     
 379:Generated_Source\PSoC5/BCD_Driver.c ****     /* Set the brightness to full */
 380:Generated_Source\PSoC5/BCD_Driver.c ****     #if (BCD_Driver_BRIGHTNESS_EN == BCD_Driver_ENABLED)
 381:Generated_Source\PSoC5/BCD_Driver.c ****         for(i = 0u; i<(BCD_Driver_NUM_COM); i++)
 382:Generated_Source\PSoC5/BCD_Driver.c ****         {
 383:Generated_Source\PSoC5/BCD_Driver.c ****             BCD_Driver_brightnessReg[i] = BCD_Driver_INIT_BRIGHT;
 384:Generated_Source\PSoC5/BCD_Driver.c ****         }
 385:Generated_Source\PSoC5/BCD_Driver.c ****     #endif /* (BCD_Driver_BRIGHTNESS_EN == BCD_Driver_ENABLED) */
 386:Generated_Source\PSoC5/BCD_Driver.c **** }
 387:Generated_Source\PSoC5/BCD_Driver.c **** 
 388:Generated_Source\PSoC5/BCD_Driver.c **** 
 389:Generated_Source\PSoC5/BCD_Driver.c **** /*******************************************************************************
 390:Generated_Source\PSoC5/BCD_Driver.c **** * Function Name: BCD_Driver_Enable
 391:Generated_Source\PSoC5/BCD_Driver.c **** ********************************************************************************
 392:Generated_Source\PSoC5/BCD_Driver.c **** *
 393:Generated_Source\PSoC5/BCD_Driver.c **** * Summary: 
 394:Generated_Source\PSoC5/BCD_Driver.c **** *  Turns on the display.
 395:Generated_Source\PSoC5/BCD_Driver.c **** *
 396:Generated_Source\PSoC5/BCD_Driver.c **** * Parameters:
 397:Generated_Source\PSoC5/BCD_Driver.c **** *  None
 398:Generated_Source\PSoC5/BCD_Driver.c **** *
 399:Generated_Source\PSoC5/BCD_Driver.c **** * Return: 
 400:Generated_Source\PSoC5/BCD_Driver.c **** *  None
 401:Generated_Source\PSoC5/BCD_Driver.c **** *
 402:Generated_Source\PSoC5/BCD_Driver.c **** * Side Effects: 
 403:Generated_Source\PSoC5/BCD_Driver.c **** *  None
 404:Generated_Source\PSoC5/BCD_Driver.c **** *
 405:Generated_Source\PSoC5/BCD_Driver.c **** *******************************************************************************/
 406:Generated_Source\PSoC5/BCD_Driver.c **** void BCD_Driver_Enable(void) 
 407:Generated_Source\PSoC5/BCD_Driver.c **** {
  28              		.loc 1 407 0
  29              		.cfi_startproc
  30              		@ args = 0, pretend = 0, frame = 0
  31              		@ frame_needed = 0, uses_anonymous_args = 0
  32 0000 10B5     		push	{r4, lr}
  33              		.cfi_def_cfa_offset 8
  34              		.cfi_offset 4, -8
  35              		.cfi_offset 14, -4
  36              	.LBB18:
  37              	.LBB19:
 276:Generated_Source\PSoC5/BCD_Driver.c ****     (void) CyDmaChSetInitialTd(BCD_Driver_dmaSegChannel, BCD_Driver_dmaSegLTd[0u]);
  38              		.loc 1 276 0
  39 0002 0A4C     		ldr	r4, .L2
  40 0004 2178     		ldrb	r1, [r4]	@ zero_extendqisi2
  41 0006 207A     		ldrb	r0, [r4, #8]	@ zero_extendqisi2
  42 0008 FFF7FEFF 		bl	CyDmaChSetInitialTd
  43              	.LVL0:
 277:Generated_Source\PSoC5/BCD_Driver.c ****     #if (BCD_Driver_BRIGHTNESS_EN == BCD_Driver_ENABLED)
  44              		.loc 1 277 0
  45 000c 617A     		ldrb	r1, [r4, #9]	@ zero_extendqisi2
  46 000e 607B     		ldrb	r0, [r4, #13]	@ zero_extendqisi2
  47 0010 FFF7FEFF 		bl	CyDmaChSetInitialTd
ARM GAS  C:\Users\mmoh0006\AppData\Local\Temp\cc2nB4gH.s 			page 9


  48              	.LVL1:
 283:Generated_Source\PSoC5/BCD_Driver.c ****     (void) CyDmaChEnable(BCD_Driver_dmaSegChannel, 1u);
  49              		.loc 1 283 0
  50 0014 0121     		movs	r1, #1
  51 0016 207A     		ldrb	r0, [r4, #8]	@ zero_extendqisi2
  52 0018 FFF7FEFF 		bl	CyDmaChEnable
  53              	.LVL2:
 284:Generated_Source\PSoC5/BCD_Driver.c ****     #if (BCD_Driver_BRIGHTNESS_EN == BCD_Driver_ENABLED)
  54              		.loc 1 284 0
  55 001c 0121     		movs	r1, #1
  56 001e 607B     		ldrb	r0, [r4, #13]	@ zero_extendqisi2
  57 0020 FFF7FEFF 		bl	CyDmaChEnable
  58              	.LVL3:
  59              	.LBE19:
  60              	.LBE18:
 408:Generated_Source\PSoC5/BCD_Driver.c ****     /* Enable the DMAs */
 409:Generated_Source\PSoC5/BCD_Driver.c ****     BCD_Driver_DmaEnable();
 410:Generated_Source\PSoC5/BCD_Driver.c ****  
 411:Generated_Source\PSoC5/BCD_Driver.c ****     #if (BCD_Driver_BRIGHTNESS_EN == BCD_Driver_ENABLED)
 412:Generated_Source\PSoC5/BCD_Driver.c ****        /* Initialize to zero */
 413:Generated_Source\PSoC5/BCD_Driver.c ****        BCD_Driver_COUNTER_REG = 0x00u;
 414:Generated_Source\PSoC5/BCD_Driver.c ****        BCD_Driver_COMPARE_REG = 0x00u;
 415:Generated_Source\PSoC5/BCD_Driver.c ****        
 416:Generated_Source\PSoC5/BCD_Driver.c ****         /* Enable the PWM for brightness control */
 417:Generated_Source\PSoC5/BCD_Driver.c ****        BCD_Driver_CONTROL_REG = BCD_Driver_CTRL_ENABLE;
 418:Generated_Source\PSoC5/BCD_Driver.c ****     #endif /* (BCD_Driver_BRIGHTNESS_EN == BCD_Driver_ENABLED) */
 419:Generated_Source\PSoC5/BCD_Driver.c ****     
 420:Generated_Source\PSoC5/BCD_Driver.c ****     BCD_Driver_enableVar = BCD_Driver_CTRL_ENABLE;
  61              		.loc 1 420 0
  62 0024 0123     		movs	r3, #1
  63 0026 A373     		strb	r3, [r4, #14]
  64 0028 10BD     		pop	{r4, pc}
  65              	.L3:
  66 002a 00BF     		.align	2
  67              	.L2:
  68 002c 00000000 		.word	.LANCHOR0
  69              		.cfi_endproc
  70              	.LFE4:
  71              		.size	BCD_Driver_Enable, .-BCD_Driver_Enable
  72              		.section	.text.BCD_Driver_SetDisplayRAM,"ax",%progbits
  73              		.align	1
  74              		.global	BCD_Driver_SetDisplayRAM
  75              		.thumb
  76              		.thumb_func
  77              		.type	BCD_Driver_SetDisplayRAM, %function
  78              	BCD_Driver_SetDisplayRAM:
  79              	.LFB7:
 421:Generated_Source\PSoC5/BCD_Driver.c **** }
 422:Generated_Source\PSoC5/BCD_Driver.c **** 
 423:Generated_Source\PSoC5/BCD_Driver.c **** 
 424:Generated_Source\PSoC5/BCD_Driver.c **** /*******************************************************************************
 425:Generated_Source\PSoC5/BCD_Driver.c **** * Function Name: BCD_Driver_Start
 426:Generated_Source\PSoC5/BCD_Driver.c **** ********************************************************************************
 427:Generated_Source\PSoC5/BCD_Driver.c **** *
 428:Generated_Source\PSoC5/BCD_Driver.c **** * Summary:
 429:Generated_Source\PSoC5/BCD_Driver.c **** *  Configures the hardware (DMA and optional PWM) and enables the LED
 430:Generated_Source\PSoC5/BCD_Driver.c **** *  display. Whatever is currently in the display RAM will be displayed on the 
ARM GAS  C:\Users\mmoh0006\AppData\Local\Temp\cc2nB4gH.s 			page 10


 431:Generated_Source\PSoC5/BCD_Driver.c **** *  LED display. The display RAM is an array of 1 to 24 bytes called 
 432:Generated_Source\PSoC5/BCD_Driver.c **** *  LED_Driver_1_SegmentRam[].
 433:Generated_Source\PSoC5/BCD_Driver.c **** *
 434:Generated_Source\PSoC5/BCD_Driver.c **** * Parameters:
 435:Generated_Source\PSoC5/BCD_Driver.c **** *  None
 436:Generated_Source\PSoC5/BCD_Driver.c **** *
 437:Generated_Source\PSoC5/BCD_Driver.c **** * Return:
 438:Generated_Source\PSoC5/BCD_Driver.c **** *  None
 439:Generated_Source\PSoC5/BCD_Driver.c **** *
 440:Generated_Source\PSoC5/BCD_Driver.c **** * Side effects: 
 441:Generated_Source\PSoC5/BCD_Driver.c **** *  None
 442:Generated_Source\PSoC5/BCD_Driver.c **** *
 443:Generated_Source\PSoC5/BCD_Driver.c **** *******************************************************************************/
 444:Generated_Source\PSoC5/BCD_Driver.c **** void BCD_Driver_Start(void) 
 445:Generated_Source\PSoC5/BCD_Driver.c **** {
 446:Generated_Source\PSoC5/BCD_Driver.c ****     if(0u == BCD_Driver_initVar)
 447:Generated_Source\PSoC5/BCD_Driver.c ****     {
 448:Generated_Source\PSoC5/BCD_Driver.c ****         BCD_Driver_Init();
 449:Generated_Source\PSoC5/BCD_Driver.c ****         BCD_Driver_initVar = 1u;
 450:Generated_Source\PSoC5/BCD_Driver.c ****     }
 451:Generated_Source\PSoC5/BCD_Driver.c **** 
 452:Generated_Source\PSoC5/BCD_Driver.c ****     BCD_Driver_Enable();
 453:Generated_Source\PSoC5/BCD_Driver.c **** }
 454:Generated_Source\PSoC5/BCD_Driver.c **** 
 455:Generated_Source\PSoC5/BCD_Driver.c **** 
 456:Generated_Source\PSoC5/BCD_Driver.c **** /*******************************************************************************
 457:Generated_Source\PSoC5/BCD_Driver.c **** * Function Name: BCD_Driver_Stop
 458:Generated_Source\PSoC5/BCD_Driver.c **** ********************************************************************************
 459:Generated_Source\PSoC5/BCD_Driver.c **** *
 460:Generated_Source\PSoC5/BCD_Driver.c **** * Summary:
 461:Generated_Source\PSoC5/BCD_Driver.c **** *  Clears the display SRAM, disables all DMA channels and the stops the PWM
 462:Generated_Source\PSoC5/BCD_Driver.c **** *  (if enabled in the customizer).
 463:Generated_Source\PSoC5/BCD_Driver.c **** *
 464:Generated_Source\PSoC5/BCD_Driver.c **** * Parameters:
 465:Generated_Source\PSoC5/BCD_Driver.c **** *  None
 466:Generated_Source\PSoC5/BCD_Driver.c **** *
 467:Generated_Source\PSoC5/BCD_Driver.c **** * Return:
 468:Generated_Source\PSoC5/BCD_Driver.c **** *  None
 469:Generated_Source\PSoC5/BCD_Driver.c **** *
 470:Generated_Source\PSoC5/BCD_Driver.c **** * Side effects:
 471:Generated_Source\PSoC5/BCD_Driver.c **** *  None
 472:Generated_Source\PSoC5/BCD_Driver.c **** *
 473:Generated_Source\PSoC5/BCD_Driver.c **** *******************************************************************************/
 474:Generated_Source\PSoC5/BCD_Driver.c **** void BCD_Driver_Stop(void) 
 475:Generated_Source\PSoC5/BCD_Driver.c **** {
 476:Generated_Source\PSoC5/BCD_Driver.c ****     #if (BCD_Driver_BRIGHTNESS_EN == BCD_Driver_ENABLED)
 477:Generated_Source\PSoC5/BCD_Driver.c ****         /* Disable the PWM */
 478:Generated_Source\PSoC5/BCD_Driver.c ****         BCD_Driver_CONTROL_REG = BCD_Driver_CTRL_DISABLE;
 479:Generated_Source\PSoC5/BCD_Driver.c ****     #endif /* (BCD_Driver_BRIGHTNESS_EN == BCD_Driver_ENABLED) */
 480:Generated_Source\PSoC5/BCD_Driver.c ****     
 481:Generated_Source\PSoC5/BCD_Driver.c ****     BCD_Driver_DmaDisable();
 482:Generated_Source\PSoC5/BCD_Driver.c ****     BCD_Driver_ClearDisplayAll();
 483:Generated_Source\PSoC5/BCD_Driver.c ****     
 484:Generated_Source\PSoC5/BCD_Driver.c ****     BCD_Driver_enableVar  = BCD_Driver_CTRL_DISABLE;
 485:Generated_Source\PSoC5/BCD_Driver.c **** }
 486:Generated_Source\PSoC5/BCD_Driver.c **** 
 487:Generated_Source\PSoC5/BCD_Driver.c **** 
ARM GAS  C:\Users\mmoh0006\AppData\Local\Temp\cc2nB4gH.s 			page 11


 488:Generated_Source\PSoC5/BCD_Driver.c **** /*******************************************************************************
 489:Generated_Source\PSoC5/BCD_Driver.c **** * Function Name: BCD_Driver_SetDisplayRAM
 490:Generated_Source\PSoC5/BCD_Driver.c **** ********************************************************************************
 491:Generated_Source\PSoC5/BCD_Driver.c **** *
 492:Generated_Source\PSoC5/BCD_Driver.c **** * Summary:
 493:Generated_Source\PSoC5/BCD_Driver.c **** *  Writes 'value' directly into the display RAM. It is not necessary to use 
 494:Generated_Source\PSoC5/BCD_Driver.c **** *  this API to manipulate the display RAM, you can also access the display 
 495:Generated_Source\PSoC5/BCD_Driver.c **** *  RAM directly by writing to BCD_Driver_segLBuffer,
 496:Generated_Source\PSoC5/BCD_Driver.c **** *  BCD_Driver_segMBuffer, BCD_Driver_segHBuffer.
 497:Generated_Source\PSoC5/BCD_Driver.c **** *
 498:Generated_Source\PSoC5/BCD_Driver.c **** * Parameters:
 499:Generated_Source\PSoC5/BCD_Driver.c **** *  uint8 value: Desired value to write into the display RAM. A '1' enables the
 500:Generated_Source\PSoC5/BCD_Driver.c **** *               segment, a '0' disables the segment.
 501:Generated_Source\PSoC5/BCD_Driver.c **** *  uint8 position: Position of the display that is modified.
 502:Generated_Source\PSoC5/BCD_Driver.c **** *
 503:Generated_Source\PSoC5/BCD_Driver.c **** * Return:
 504:Generated_Source\PSoC5/BCD_Driver.c **** *  None
 505:Generated_Source\PSoC5/BCD_Driver.c **** *
 506:Generated_Source\PSoC5/BCD_Driver.c **** * Side effects:
 507:Generated_Source\PSoC5/BCD_Driver.c **** *  None
 508:Generated_Source\PSoC5/BCD_Driver.c **** *
 509:Generated_Source\PSoC5/BCD_Driver.c **** *******************************************************************************/
 510:Generated_Source\PSoC5/BCD_Driver.c **** void BCD_Driver_SetDisplayRAM(uint8 value, uint8 position) 
 511:Generated_Source\PSoC5/BCD_Driver.c **** {
  80              		.loc 1 511 0
  81              		.cfi_startproc
  82              		@ args = 0, pretend = 0, frame = 0
  83              		@ frame_needed = 0, uses_anonymous_args = 0
  84              		@ link register save eliminated.
  85              	.LVL4:
 512:Generated_Source\PSoC5/BCD_Driver.c ****     uint8 relPosition;
 513:Generated_Source\PSoC5/BCD_Driver.c ****     
 514:Generated_Source\PSoC5/BCD_Driver.c ****     if(position < BCD_Driver_NUM_COM)
  86              		.loc 1 514 0
  87 0000 0329     		cmp	r1, #3
  88              	.LVL5:
 515:Generated_Source\PSoC5/BCD_Driver.c ****     {
 516:Generated_Source\PSoC5/BCD_Driver.c ****         relPosition = position;
 517:Generated_Source\PSoC5/BCD_Driver.c ****         #if(BCD_Driver_SEG_DRIVE == BCD_Driver_HIGH)
 518:Generated_Source\PSoC5/BCD_Driver.c ****             BCD_Driver_segLBuffer[relPosition] = value;
 519:Generated_Source\PSoC5/BCD_Driver.c ****         #else
 520:Generated_Source\PSoC5/BCD_Driver.c ****             BCD_Driver_segLBuffer[relPosition] = ((uint8) ~value);
  89              		.loc 1 520 0
  90 0002 9EBF     		ittt	ls
  91 0004 C043     		mvnls	r0, r0
  92              	.LVL6:
  93 0006 014B     		ldrls	r3, .L6
  94 0008 5854     		strbls	r0, [r3, r1]
  95 000a 7047     		bx	lr
  96              	.L7:
  97              		.align	2
  98              	.L6:
  99 000c 00000000 		.word	BCD_Driver_segLBuffer
 100              		.cfi_endproc
 101              	.LFE7:
 102              		.size	BCD_Driver_SetDisplayRAM, .-BCD_Driver_SetDisplayRAM
 103              		.section	.text.BCD_Driver_SetRC,"ax",%progbits
ARM GAS  C:\Users\mmoh0006\AppData\Local\Temp\cc2nB4gH.s 			page 12


 104              		.align	1
 105              		.global	BCD_Driver_SetRC
 106              		.thumb
 107              		.thumb_func
 108              		.type	BCD_Driver_SetRC, %function
 109              	BCD_Driver_SetRC:
 110              	.LFB8:
 521:Generated_Source\PSoC5/BCD_Driver.c ****         #endif /* BCD_Driver_SEG_DRIVE == BCD_Driver_HIGH */
 522:Generated_Source\PSoC5/BCD_Driver.c ****     }    
 523:Generated_Source\PSoC5/BCD_Driver.c ****     else if (position < BCD_Driver_TWO_NUM_COM)
 524:Generated_Source\PSoC5/BCD_Driver.c ****     {
 525:Generated_Source\PSoC5/BCD_Driver.c ****         #if (BCD_Driver_NUM_SEG > 8u)
 526:Generated_Source\PSoC5/BCD_Driver.c ****             relPosition = position - BCD_Driver_NUM_COM;
 527:Generated_Source\PSoC5/BCD_Driver.c ****             #if(BCD_Driver_SEG_DRIVE == BCD_Driver_HIGH)
 528:Generated_Source\PSoC5/BCD_Driver.c ****                 BCD_Driver_segMBuffer[relPosition] = value;
 529:Generated_Source\PSoC5/BCD_Driver.c ****             #else
 530:Generated_Source\PSoC5/BCD_Driver.c ****                 BCD_Driver_segMBuffer[relPosition] = ((uint8) ~value);
 531:Generated_Source\PSoC5/BCD_Driver.c ****             #endif /* BCD_Driver_SEG_DRIVE == BCD_Driver_HIGH */
 532:Generated_Source\PSoC5/BCD_Driver.c ****         #endif /* (BCD_Driver_NUM_SEG > 8u) */
 533:Generated_Source\PSoC5/BCD_Driver.c ****     }
 534:Generated_Source\PSoC5/BCD_Driver.c ****     else
 535:Generated_Source\PSoC5/BCD_Driver.c ****     {
 536:Generated_Source\PSoC5/BCD_Driver.c ****         #if (BCD_Driver_NUM_SEG > 16u)
 537:Generated_Source\PSoC5/BCD_Driver.c ****             relPosition = position - BCD_Driver_TWO_NUM_COM;
 538:Generated_Source\PSoC5/BCD_Driver.c ****             if(relPosition < BCD_Driver_NUM_COM)
 539:Generated_Source\PSoC5/BCD_Driver.c ****             {
 540:Generated_Source\PSoC5/BCD_Driver.c ****                 #if(BCD_Driver_SEG_DRIVE == BCD_Driver_HIGH)
 541:Generated_Source\PSoC5/BCD_Driver.c ****                     BCD_Driver_segHBuffer[relPosition] = value;
 542:Generated_Source\PSoC5/BCD_Driver.c ****                 #else
 543:Generated_Source\PSoC5/BCD_Driver.c ****                     BCD_Driver_segMBuffer[relPosition] = ((uint8) ~value);
 544:Generated_Source\PSoC5/BCD_Driver.c ****                 #endif /* BCD_Driver_SEG_DRIVE == BCD_Driver_HIGH */
 545:Generated_Source\PSoC5/BCD_Driver.c ****             }
 546:Generated_Source\PSoC5/BCD_Driver.c ****         #endif /* (BCD_Driver_NUM_SEG > 16u) */
 547:Generated_Source\PSoC5/BCD_Driver.c ****     }
 548:Generated_Source\PSoC5/BCD_Driver.c **** }
 549:Generated_Source\PSoC5/BCD_Driver.c **** 
 550:Generated_Source\PSoC5/BCD_Driver.c **** 
 551:Generated_Source\PSoC5/BCD_Driver.c **** /*******************************************************************************
 552:Generated_Source\PSoC5/BCD_Driver.c **** * Function Name: BCD_Driver_SetRC
 553:Generated_Source\PSoC5/BCD_Driver.c **** ********************************************************************************
 554:Generated_Source\PSoC5/BCD_Driver.c **** *
 555:Generated_Source\PSoC5/BCD_Driver.c **** * Summary:
 556:Generated_Source\PSoC5/BCD_Driver.c **** *  Sets the bit in the display RAM corresponding to the LED in the designated
 557:Generated_Source\PSoC5/BCD_Driver.c **** *  row and column. Rows are the segments and columns are the commons.
 558:Generated_Source\PSoC5/BCD_Driver.c **** *
 559:Generated_Source\PSoC5/BCD_Driver.c **** * Parameters:
 560:Generated_Source\PSoC5/BCD_Driver.c **** *  uint8 row: Row value 0 to 23.
 561:Generated_Source\PSoC5/BCD_Driver.c **** *  uint8 col: Column between 0 and 7.
 562:Generated_Source\PSoC5/BCD_Driver.c **** *
 563:Generated_Source\PSoC5/BCD_Driver.c **** * Return:
 564:Generated_Source\PSoC5/BCD_Driver.c **** *  None
 565:Generated_Source\PSoC5/BCD_Driver.c **** *
 566:Generated_Source\PSoC5/BCD_Driver.c **** * Side effects:
 567:Generated_Source\PSoC5/BCD_Driver.c **** *  None
 568:Generated_Source\PSoC5/BCD_Driver.c **** *
 569:Generated_Source\PSoC5/BCD_Driver.c **** *******************************************************************************/
 570:Generated_Source\PSoC5/BCD_Driver.c **** void BCD_Driver_SetRC(uint8 row, uint8 column) 
ARM GAS  C:\Users\mmoh0006\AppData\Local\Temp\cc2nB4gH.s 			page 13


 571:Generated_Source\PSoC5/BCD_Driver.c **** {
 111              		.loc 1 571 0
 112              		.cfi_startproc
 113              		@ args = 0, pretend = 0, frame = 0
 114              		@ frame_needed = 0, uses_anonymous_args = 0
 115              		@ link register save eliminated.
 116              	.LVL7:
 572:Generated_Source\PSoC5/BCD_Driver.c ****     uint8 rowSeg;
 573:Generated_Source\PSoC5/BCD_Driver.c ****     
 574:Generated_Source\PSoC5/BCD_Driver.c ****     if(column < BCD_Driver_NUM_COM)
 117              		.loc 1 574 0
 118 0000 0329     		cmp	r1, #3
 119 0002 09D8     		bhi	.L8
 575:Generated_Source\PSoC5/BCD_Driver.c ****     {
 576:Generated_Source\PSoC5/BCD_Driver.c ****         if(row < 8u)
 120              		.loc 1 576 0
 121 0004 0728     		cmp	r0, #7
 122 0006 07D8     		bhi	.L8
 123              	.LVL8:
 577:Generated_Source\PSoC5/BCD_Driver.c ****         {
 578:Generated_Source\PSoC5/BCD_Driver.c ****             rowSeg = row;
 579:Generated_Source\PSoC5/BCD_Driver.c ****             #if(BCD_Driver_SEG_DRIVE == BCD_Driver_HIGH)
 580:Generated_Source\PSoC5/BCD_Driver.c ****                 BCD_Driver_segLBuffer[column] |= ((uint8)((uint8)0x01u << rowSeg));
 581:Generated_Source\PSoC5/BCD_Driver.c ****             #else
 582:Generated_Source\PSoC5/BCD_Driver.c ****                 BCD_Driver_segLBuffer[column] &= ((uint8)~((uint8)((uint8)0x01u << rowSeg)));
 124              		.loc 1 582 0
 125 0008 044A     		ldr	r2, .L11
 126 000a 0123     		movs	r3, #1
 127 000c 03FA00F0 		lsl	r0, r3, r0
 128              	.LVL9:
 129 0010 535C     		ldrb	r3, [r2, r1]	@ zero_extendqisi2
 130 0012 23EA0000 		bic	r0, r3, r0
 131 0016 5054     		strb	r0, [r2, r1]
 132              	.LVL10:
 133              	.L8:
 134 0018 7047     		bx	lr
 135              	.L12:
 136 001a 00BF     		.align	2
 137              	.L11:
 138 001c 00000000 		.word	BCD_Driver_segLBuffer
 139              		.cfi_endproc
 140              	.LFE8:
 141              		.size	BCD_Driver_SetRC, .-BCD_Driver_SetRC
 142              		.section	.text.BCD_Driver_ClearRC,"ax",%progbits
 143              		.align	1
 144              		.global	BCD_Driver_ClearRC
 145              		.thumb
 146              		.thumb_func
 147              		.type	BCD_Driver_ClearRC, %function
 148              	BCD_Driver_ClearRC:
 149              	.LFB9:
 583:Generated_Source\PSoC5/BCD_Driver.c ****             #endif /* BCD_Driver_SEG_DRIVE == BCD_Driver_HIGH */
 584:Generated_Source\PSoC5/BCD_Driver.c ****         }
 585:Generated_Source\PSoC5/BCD_Driver.c ****         else if (row < 16u)
 586:Generated_Source\PSoC5/BCD_Driver.c ****         {
 587:Generated_Source\PSoC5/BCD_Driver.c ****             #if (BCD_Driver_NUM_SEG > 8u) 
 588:Generated_Source\PSoC5/BCD_Driver.c ****                 rowSeg = row - 8u;
ARM GAS  C:\Users\mmoh0006\AppData\Local\Temp\cc2nB4gH.s 			page 14


 589:Generated_Source\PSoC5/BCD_Driver.c ****                 #if(BCD_Driver_SEG_DRIVE == BCD_Driver_HIGH)
 590:Generated_Source\PSoC5/BCD_Driver.c ****                     BCD_Driver_segMBuffer[column] |= ((uint8)((uint8)0x01u << rowSeg));
 591:Generated_Source\PSoC5/BCD_Driver.c ****                 #else
 592:Generated_Source\PSoC5/BCD_Driver.c ****                     BCD_Driver_segMBuffer[column] &= ((uint8)~((uint8)((uint8)0x01u << rowSeg)));
 593:Generated_Source\PSoC5/BCD_Driver.c ****                 #endif /* BCD_Driver_SEG_DRIVE == BCD_Driver_HIGH */
 594:Generated_Source\PSoC5/BCD_Driver.c ****             #endif /* (BCD_Driver_NUM_SEG > 8u) */
 595:Generated_Source\PSoC5/BCD_Driver.c ****         }
 596:Generated_Source\PSoC5/BCD_Driver.c ****         else
 597:Generated_Source\PSoC5/BCD_Driver.c ****         {
 598:Generated_Source\PSoC5/BCD_Driver.c ****             #if (BCD_Driver_NUM_SEG > 16u)
 599:Generated_Source\PSoC5/BCD_Driver.c ****                 rowSeg = row - 16u;
 600:Generated_Source\PSoC5/BCD_Driver.c ****                 #if(BCD_Driver_SEG_DRIVE == BCD_Driver_HIGH)
 601:Generated_Source\PSoC5/BCD_Driver.c ****                     BCD_Driver_segHBuffer[column] |= ((uint8)((uint8)0x01u << rowSeg));
 602:Generated_Source\PSoC5/BCD_Driver.c ****                 #else
 603:Generated_Source\PSoC5/BCD_Driver.c ****                     BCD_Driver_segHBuffer[column] &= ((uint8)~((uint8)((uint8)0x01u << rowSeg)));
 604:Generated_Source\PSoC5/BCD_Driver.c ****                 #endif /* BCD_Driver_SEG_DRIVE == BCD_Driver_HIGH */
 605:Generated_Source\PSoC5/BCD_Driver.c ****             #endif /* (BCD_Driver_NUM_SEG > 16u) */
 606:Generated_Source\PSoC5/BCD_Driver.c ****         }
 607:Generated_Source\PSoC5/BCD_Driver.c ****     }
 608:Generated_Source\PSoC5/BCD_Driver.c **** }
 609:Generated_Source\PSoC5/BCD_Driver.c **** 
 610:Generated_Source\PSoC5/BCD_Driver.c **** 
 611:Generated_Source\PSoC5/BCD_Driver.c **** /*******************************************************************************
 612:Generated_Source\PSoC5/BCD_Driver.c **** * Function Name: BCD_Driver_ClearRC
 613:Generated_Source\PSoC5/BCD_Driver.c **** ********************************************************************************
 614:Generated_Source\PSoC5/BCD_Driver.c **** *
 615:Generated_Source\PSoC5/BCD_Driver.c **** * Summary:
 616:Generated_Source\PSoC5/BCD_Driver.c **** *  Clears the bit in the display RAM corresponding to the LED in the designated
 617:Generated_Source\PSoC5/BCD_Driver.c **** *  row and column.
 618:Generated_Source\PSoC5/BCD_Driver.c **** *
 619:Generated_Source\PSoC5/BCD_Driver.c **** * Parameters:
 620:Generated_Source\PSoC5/BCD_Driver.c **** *  uint8 row: Row value 0 to 23.
 621:Generated_Source\PSoC5/BCD_Driver.c **** *  uint8 col: Column between 0 and 7.
 622:Generated_Source\PSoC5/BCD_Driver.c **** *
 623:Generated_Source\PSoC5/BCD_Driver.c **** * Return:
 624:Generated_Source\PSoC5/BCD_Driver.c **** *  None
 625:Generated_Source\PSoC5/BCD_Driver.c **** *
 626:Generated_Source\PSoC5/BCD_Driver.c **** * Side effects:
 627:Generated_Source\PSoC5/BCD_Driver.c **** *  None
 628:Generated_Source\PSoC5/BCD_Driver.c **** *
 629:Generated_Source\PSoC5/BCD_Driver.c **** *******************************************************************************/
 630:Generated_Source\PSoC5/BCD_Driver.c **** void BCD_Driver_ClearRC(uint8 row, uint8 column) 
 631:Generated_Source\PSoC5/BCD_Driver.c **** {
 150              		.loc 1 631 0
 151              		.cfi_startproc
 152              		@ args = 0, pretend = 0, frame = 0
 153              		@ frame_needed = 0, uses_anonymous_args = 0
 154              		@ link register save eliminated.
 155              	.LVL11:
 632:Generated_Source\PSoC5/BCD_Driver.c ****     uint8 rowSeg;
 633:Generated_Source\PSoC5/BCD_Driver.c ****     uint8 rowSelect;
 634:Generated_Source\PSoC5/BCD_Driver.c ****     
 635:Generated_Source\PSoC5/BCD_Driver.c ****     if(column < BCD_Driver_NUM_COM)
 156              		.loc 1 635 0
 157 0000 0329     		cmp	r1, #3
 158 0002 08D8     		bhi	.L13
 636:Generated_Source\PSoC5/BCD_Driver.c ****     {
ARM GAS  C:\Users\mmoh0006\AppData\Local\Temp\cc2nB4gH.s 			page 15


 637:Generated_Source\PSoC5/BCD_Driver.c ****         if(row < 8u)
 159              		.loc 1 637 0
 160 0004 0728     		cmp	r0, #7
 161 0006 06D8     		bhi	.L13
 162              	.LVL12:
 638:Generated_Source\PSoC5/BCD_Driver.c ****         {
 639:Generated_Source\PSoC5/BCD_Driver.c ****             rowSeg = row;
 640:Generated_Source\PSoC5/BCD_Driver.c ****             rowSelect = ((uint8)((uint8)0x01u << rowSeg));
 641:Generated_Source\PSoC5/BCD_Driver.c ****             #if(BCD_Driver_SEG_DRIVE == BCD_Driver_HIGH)
 642:Generated_Source\PSoC5/BCD_Driver.c ****                 BCD_Driver_segLBuffer[column] &= ((uint8)(~(uint8)rowSelect));
 643:Generated_Source\PSoC5/BCD_Driver.c ****             #else
 644:Generated_Source\PSoC5/BCD_Driver.c ****                 BCD_Driver_segLBuffer[column] |= rowSelect;
 163              		.loc 1 644 0
 164 0008 034A     		ldr	r2, .L15
 165 000a 0123     		movs	r3, #1
 166 000c 03FA00F0 		lsl	r0, r3, r0
 167              	.LVL13:
 168 0010 535C     		ldrb	r3, [r2, r1]	@ zero_extendqisi2
 169 0012 1843     		orrs	r0, r0, r3
 170 0014 5054     		strb	r0, [r2, r1]
 171              	.LVL14:
 172              	.L13:
 173 0016 7047     		bx	lr
 174              	.L16:
 175              		.align	2
 176              	.L15:
 177 0018 00000000 		.word	BCD_Driver_segLBuffer
 178              		.cfi_endproc
 179              	.LFE9:
 180              		.size	BCD_Driver_ClearRC, .-BCD_Driver_ClearRC
 181              		.section	.text.BCD_Driver_ToggleRC,"ax",%progbits
 182              		.align	1
 183              		.global	BCD_Driver_ToggleRC
 184              		.thumb
 185              		.thumb_func
 186              		.type	BCD_Driver_ToggleRC, %function
 187              	BCD_Driver_ToggleRC:
 188              	.LFB10:
 645:Generated_Source\PSoC5/BCD_Driver.c ****             #endif /* BCD_Driver_SEG_DRIVE == BCD_Driver_HIGH */
 646:Generated_Source\PSoC5/BCD_Driver.c ****         }    
 647:Generated_Source\PSoC5/BCD_Driver.c ****         else if (row < 16u)
 648:Generated_Source\PSoC5/BCD_Driver.c ****         {
 649:Generated_Source\PSoC5/BCD_Driver.c ****             #if (BCD_Driver_NUM_SEG > 8u) 
 650:Generated_Source\PSoC5/BCD_Driver.c ****                 rowSeg = row - 8u;
 651:Generated_Source\PSoC5/BCD_Driver.c ****                 rowSelect = ((uint8)((uint8)0x01u << rowSeg));
 652:Generated_Source\PSoC5/BCD_Driver.c ****                 #if(BCD_Driver_SEG_DRIVE == BCD_Driver_HIGH)
 653:Generated_Source\PSoC5/BCD_Driver.c ****                     BCD_Driver_segMBuffer[column] &= ((uint8)(~(uint8)rowSelect));
 654:Generated_Source\PSoC5/BCD_Driver.c ****                 #else
 655:Generated_Source\PSoC5/BCD_Driver.c ****                     BCD_Driver_segMBuffer[column] |= rowSelect;
 656:Generated_Source\PSoC5/BCD_Driver.c ****                 #endif /* BCD_Driver_SEG_DRIVE == BCD_Driver_HIGH */
 657:Generated_Source\PSoC5/BCD_Driver.c ****             #endif /* (BCD_Driver_NUM_SEG > 8u) */
 658:Generated_Source\PSoC5/BCD_Driver.c ****         }
 659:Generated_Source\PSoC5/BCD_Driver.c ****         else
 660:Generated_Source\PSoC5/BCD_Driver.c ****         {
 661:Generated_Source\PSoC5/BCD_Driver.c ****             #if (BCD_Driver_NUM_SEG > 16u)
 662:Generated_Source\PSoC5/BCD_Driver.c ****                 rowSeg = row - 16u;
 663:Generated_Source\PSoC5/BCD_Driver.c ****                 rowSelect = ((uint8)((uint8)0x01u << rowSeg));
ARM GAS  C:\Users\mmoh0006\AppData\Local\Temp\cc2nB4gH.s 			page 16


 664:Generated_Source\PSoC5/BCD_Driver.c ****                 #if(BCD_Driver_SEG_DRIVE == BCD_Driver_HIGH)
 665:Generated_Source\PSoC5/BCD_Driver.c ****                     BCD_Driver_segHBuffer[column] &= ((uint8)(~(uint8)rowSelect));
 666:Generated_Source\PSoC5/BCD_Driver.c ****                 #else
 667:Generated_Source\PSoC5/BCD_Driver.c ****                     BCD_Driver_segHBuffer[column] |= rowSelect;
 668:Generated_Source\PSoC5/BCD_Driver.c ****                 #endif /* BCD_Driver_SEG_DRIVE == BCD_Driver_HIGH */
 669:Generated_Source\PSoC5/BCD_Driver.c ****             #endif /* (BCD_Driver_NUM_SEG > 16u) */
 670:Generated_Source\PSoC5/BCD_Driver.c ****         }
 671:Generated_Source\PSoC5/BCD_Driver.c ****     }
 672:Generated_Source\PSoC5/BCD_Driver.c **** }
 673:Generated_Source\PSoC5/BCD_Driver.c **** 
 674:Generated_Source\PSoC5/BCD_Driver.c **** 
 675:Generated_Source\PSoC5/BCD_Driver.c **** /*******************************************************************************
 676:Generated_Source\PSoC5/BCD_Driver.c **** * Function Name: BCD_Driver_ToggleRC
 677:Generated_Source\PSoC5/BCD_Driver.c **** ********************************************************************************
 678:Generated_Source\PSoC5/BCD_Driver.c **** *
 679:Generated_Source\PSoC5/BCD_Driver.c **** * Summary:
 680:Generated_Source\PSoC5/BCD_Driver.c **** *  Toggles the bit in the display RAM corresponding to the LED in the designated
 681:Generated_Source\PSoC5/BCD_Driver.c **** *  row and column.
 682:Generated_Source\PSoC5/BCD_Driver.c **** *
 683:Generated_Source\PSoC5/BCD_Driver.c **** * Parameters:
 684:Generated_Source\PSoC5/BCD_Driver.c **** *  uint8 row: Row value 0 to 23.
 685:Generated_Source\PSoC5/BCD_Driver.c **** *  uint8 col: Column between 0 and 7.
 686:Generated_Source\PSoC5/BCD_Driver.c **** *
 687:Generated_Source\PSoC5/BCD_Driver.c **** * Return:
 688:Generated_Source\PSoC5/BCD_Driver.c **** *  None
 689:Generated_Source\PSoC5/BCD_Driver.c **** *
 690:Generated_Source\PSoC5/BCD_Driver.c **** * Side effects:
 691:Generated_Source\PSoC5/BCD_Driver.c **** *  None
 692:Generated_Source\PSoC5/BCD_Driver.c **** *
 693:Generated_Source\PSoC5/BCD_Driver.c **** *******************************************************************************/
 694:Generated_Source\PSoC5/BCD_Driver.c **** void BCD_Driver_ToggleRC(uint8 row, uint8 column) 
 695:Generated_Source\PSoC5/BCD_Driver.c **** {
 189              		.loc 1 695 0
 190              		.cfi_startproc
 191              		@ args = 0, pretend = 0, frame = 0
 192              		@ frame_needed = 0, uses_anonymous_args = 0
 193              		@ link register save eliminated.
 194              	.LVL15:
 696:Generated_Source\PSoC5/BCD_Driver.c ****     uint8 rowSeg;
 697:Generated_Source\PSoC5/BCD_Driver.c ****     
 698:Generated_Source\PSoC5/BCD_Driver.c ****     if(column < BCD_Driver_NUM_COM)
 195              		.loc 1 698 0
 196 0000 0329     		cmp	r1, #3
 197 0002 08D8     		bhi	.L17
 699:Generated_Source\PSoC5/BCD_Driver.c ****     {
 700:Generated_Source\PSoC5/BCD_Driver.c ****         if(row < 8u)
 198              		.loc 1 700 0
 199 0004 0728     		cmp	r0, #7
 200 0006 06D8     		bhi	.L17
 201              	.LVL16:
 701:Generated_Source\PSoC5/BCD_Driver.c ****         {
 702:Generated_Source\PSoC5/BCD_Driver.c ****             rowSeg = row;
 703:Generated_Source\PSoC5/BCD_Driver.c ****             BCD_Driver_segLBuffer[column] ^= ((uint8)((uint8)0x01u << rowSeg));
 202              		.loc 1 703 0
 203 0008 034A     		ldr	r2, .L19
 204 000a 0123     		movs	r3, #1
 205 000c 03FA00F0 		lsl	r0, r3, r0
ARM GAS  C:\Users\mmoh0006\AppData\Local\Temp\cc2nB4gH.s 			page 17


 206              	.LVL17:
 207 0010 535C     		ldrb	r3, [r2, r1]	@ zero_extendqisi2
 208 0012 5840     		eors	r0, r0, r3
 209 0014 5054     		strb	r0, [r2, r1]
 210              	.LVL18:
 211              	.L17:
 212 0016 7047     		bx	lr
 213              	.L20:
 214              		.align	2
 215              	.L19:
 216 0018 00000000 		.word	BCD_Driver_segLBuffer
 217              		.cfi_endproc
 218              	.LFE10:
 219              		.size	BCD_Driver_ToggleRC, .-BCD_Driver_ToggleRC
 220              		.section	.text.BCD_Driver_GetRC,"ax",%progbits
 221              		.align	1
 222              		.global	BCD_Driver_GetRC
 223              		.thumb
 224              		.thumb_func
 225              		.type	BCD_Driver_GetRC, %function
 226              	BCD_Driver_GetRC:
 227              	.LFB11:
 704:Generated_Source\PSoC5/BCD_Driver.c ****         }    
 705:Generated_Source\PSoC5/BCD_Driver.c ****         else if (row < 16u)
 706:Generated_Source\PSoC5/BCD_Driver.c ****         {
 707:Generated_Source\PSoC5/BCD_Driver.c ****             #if (BCD_Driver_NUM_SEG > 8u)
 708:Generated_Source\PSoC5/BCD_Driver.c ****                 rowSeg = row - 8u;
 709:Generated_Source\PSoC5/BCD_Driver.c ****                 BCD_Driver_segMBuffer[column] ^= ((uint8)((uint8)0x01u << rowSeg));
 710:Generated_Source\PSoC5/BCD_Driver.c ****             #endif /* (BCD_Driver_NUM_SEG > 8u) */
 711:Generated_Source\PSoC5/BCD_Driver.c ****         } 
 712:Generated_Source\PSoC5/BCD_Driver.c ****         else
 713:Generated_Source\PSoC5/BCD_Driver.c ****         {
 714:Generated_Source\PSoC5/BCD_Driver.c ****             #if (BCD_Driver_NUM_SEG > 16u)
 715:Generated_Source\PSoC5/BCD_Driver.c ****                 rowSeg = row - 16u;
 716:Generated_Source\PSoC5/BCD_Driver.c ****                 BCD_Driver_segHBuffer[column] ^= ((uint8)((uint8)0x01u << rowSeg));
 717:Generated_Source\PSoC5/BCD_Driver.c ****             #endif /* (BCD_Driver_NUM_SEG > 16u) */
 718:Generated_Source\PSoC5/BCD_Driver.c ****         }
 719:Generated_Source\PSoC5/BCD_Driver.c ****     }
 720:Generated_Source\PSoC5/BCD_Driver.c **** }
 721:Generated_Source\PSoC5/BCD_Driver.c **** 
 722:Generated_Source\PSoC5/BCD_Driver.c **** 
 723:Generated_Source\PSoC5/BCD_Driver.c **** /*******************************************************************************
 724:Generated_Source\PSoC5/BCD_Driver.c **** * Function Name: BCD_Driver_GetRC
 725:Generated_Source\PSoC5/BCD_Driver.c **** ********************************************************************************
 726:Generated_Source\PSoC5/BCD_Driver.c **** *
 727:Generated_Source\PSoC5/BCD_Driver.c **** * Summary:
 728:Generated_Source\PSoC5/BCD_Driver.c **** *  Returns the bit value in the display RAM corresponding to the LED in the
 729:Generated_Source\PSoC5/BCD_Driver.c **** *  designated row and column.
 730:Generated_Source\PSoC5/BCD_Driver.c **** *
 731:Generated_Source\PSoC5/BCD_Driver.c **** * Parameters:
 732:Generated_Source\PSoC5/BCD_Driver.c **** *  uint8 row: Row value 0 to 23.
 733:Generated_Source\PSoC5/BCD_Driver.c **** *  uint8 col: Column between 0 and 7.
 734:Generated_Source\PSoC5/BCD_Driver.c **** *
 735:Generated_Source\PSoC5/BCD_Driver.c **** * Return:
 736:Generated_Source\PSoC5/BCD_Driver.c **** *  uint8 - bit value of the display RAM at the corresponding row and column. 
 737:Generated_Source\PSoC5/BCD_Driver.c **** *
 738:Generated_Source\PSoC5/BCD_Driver.c **** * Side effects:
ARM GAS  C:\Users\mmoh0006\AppData\Local\Temp\cc2nB4gH.s 			page 18


 739:Generated_Source\PSoC5/BCD_Driver.c **** *  None
 740:Generated_Source\PSoC5/BCD_Driver.c **** *
 741:Generated_Source\PSoC5/BCD_Driver.c **** *******************************************************************************/
 742:Generated_Source\PSoC5/BCD_Driver.c **** uint8 BCD_Driver_GetRC(uint8 row, uint8 column) 
 743:Generated_Source\PSoC5/BCD_Driver.c **** {
 228              		.loc 1 743 0
 229              		.cfi_startproc
 230              		@ args = 0, pretend = 0, frame = 0
 231              		@ frame_needed = 0, uses_anonymous_args = 0
 232              		@ link register save eliminated.
 233              	.LVL19:
 744:Generated_Source\PSoC5/BCD_Driver.c ****     uint8 valueRC = 0u;
 745:Generated_Source\PSoC5/BCD_Driver.c ****     uint8 rowSeg;
 746:Generated_Source\PSoC5/BCD_Driver.c ****     uint8 rowSegSelect = 0u;
 747:Generated_Source\PSoC5/BCD_Driver.c ****     
 748:Generated_Source\PSoC5/BCD_Driver.c ****     if(column < BCD_Driver_NUM_COM)
 234              		.loc 1 748 0
 235 0000 0329     		cmp	r1, #3
 236 0002 0DD8     		bhi	.L24
 749:Generated_Source\PSoC5/BCD_Driver.c ****     {
 750:Generated_Source\PSoC5/BCD_Driver.c ****         if(row < 8u)
 237              		.loc 1 750 0
 238 0004 0728     		cmp	r0, #7
 239              	.LVL20:
 751:Generated_Source\PSoC5/BCD_Driver.c ****         {
 752:Generated_Source\PSoC5/BCD_Driver.c ****             rowSeg = row;
 753:Generated_Source\PSoC5/BCD_Driver.c ****             rowSegSelect = (uint8)((uint8)BCD_Driver_segLBuffer[column] >> rowSeg);
 240              		.loc 1 753 0
 241 0006 97BF     		itett	ls
 242 0008 064B     		ldrls	r3, .L26
 746:Generated_Source\PSoC5/BCD_Driver.c ****     
 243              		.loc 1 746 0
 244 000a 0020     		movhi	r0, #0
 245              	.LVL21:
 246              		.loc 1 753 0
 247 000c 5B5C     		ldrbls	r3, [r3, r1]	@ zero_extendqisi2
 248 000e 43FA00F0 		asrls	r0, r3, r0
 249 0012 98BF     		it	ls
 250 0014 C0B2     		uxtbls	r0, r0
 251              	.LVL22:
 252 0016 00F00100 		and	r0, r0, #1
 253              	.LVL23:
 254 001a 80F00100 		eor	r0, r0, #1
 255              	.LVL24:
 256 001e 7047     		bx	lr
 257              	.LVL25:
 258              	.L24:
 744:Generated_Source\PSoC5/BCD_Driver.c ****     uint8 rowSeg;
 259              		.loc 1 744 0
 260 0020 0020     		movs	r0, #0
 261              	.LVL26:
 754:Generated_Source\PSoC5/BCD_Driver.c ****         }    
 755:Generated_Source\PSoC5/BCD_Driver.c ****         else if (row < 16u)
 756:Generated_Source\PSoC5/BCD_Driver.c ****         {
 757:Generated_Source\PSoC5/BCD_Driver.c ****             #if (BCD_Driver_NUM_SEG > 8u) 
 758:Generated_Source\PSoC5/BCD_Driver.c ****                 rowSeg = row - 8u;
 759:Generated_Source\PSoC5/BCD_Driver.c ****                 rowSegSelect = (uint8)((uint8)BCD_Driver_segMBuffer[column] >> rowSeg);
ARM GAS  C:\Users\mmoh0006\AppData\Local\Temp\cc2nB4gH.s 			page 19


 760:Generated_Source\PSoC5/BCD_Driver.c ****             #endif /* (BCD_Driver_NUM_SEG > 8u) */
 761:Generated_Source\PSoC5/BCD_Driver.c ****         }
 762:Generated_Source\PSoC5/BCD_Driver.c ****         else
 763:Generated_Source\PSoC5/BCD_Driver.c ****         {
 764:Generated_Source\PSoC5/BCD_Driver.c ****             #if (BCD_Driver_NUM_SEG > 16u)
 765:Generated_Source\PSoC5/BCD_Driver.c ****                 rowSeg = row - 16u;
 766:Generated_Source\PSoC5/BCD_Driver.c ****                 rowSegSelect = (uint8)((uint8)BCD_Driver_segHBuffer[column] >> rowSeg);
 767:Generated_Source\PSoC5/BCD_Driver.c ****             #endif /* (BCD_Driver_NUM_SEG > 16u) */
 768:Generated_Source\PSoC5/BCD_Driver.c ****         }
 769:Generated_Source\PSoC5/BCD_Driver.c ****         
 770:Generated_Source\PSoC5/BCD_Driver.c ****         #if(BCD_Driver_SEG_DRIVE == BCD_Driver_HIGH)
 771:Generated_Source\PSoC5/BCD_Driver.c ****             valueRC = (uint8)((uint8)rowSegSelect & 0x01u);
 772:Generated_Source\PSoC5/BCD_Driver.c ****         #else
 773:Generated_Source\PSoC5/BCD_Driver.c ****             valueRC = (uint8)((uint8)((uint8)~rowSegSelect) & 0x01u);
 774:Generated_Source\PSoC5/BCD_Driver.c ****         #endif /* BCD_Driver_SEG_DRIVE == BCD_Driver_HIGH */
 775:Generated_Source\PSoC5/BCD_Driver.c ****     }
 776:Generated_Source\PSoC5/BCD_Driver.c ****     
 777:Generated_Source\PSoC5/BCD_Driver.c ****     return(valueRC);
 778:Generated_Source\PSoC5/BCD_Driver.c **** }
 262              		.loc 1 778 0
 263 0022 7047     		bx	lr
 264              	.L27:
 265              		.align	2
 266              	.L26:
 267 0024 00000000 		.word	BCD_Driver_segLBuffer
 268              		.cfi_endproc
 269              	.LFE11:
 270              		.size	BCD_Driver_GetRC, .-BCD_Driver_GetRC
 271              		.section	.text.BCD_Driver_ClearDisplay,"ax",%progbits
 272              		.align	1
 273              		.global	BCD_Driver_ClearDisplay
 274              		.thumb
 275              		.thumb_func
 276              		.type	BCD_Driver_ClearDisplay, %function
 277              	BCD_Driver_ClearDisplay:
 278              	.LFB12:
 779:Generated_Source\PSoC5/BCD_Driver.c **** 
 780:Generated_Source\PSoC5/BCD_Driver.c **** 
 781:Generated_Source\PSoC5/BCD_Driver.c **** /*******************************************************************************
 782:Generated_Source\PSoC5/BCD_Driver.c **** * Function Name: BCD_Driver_ClearDisplay
 783:Generated_Source\PSoC5/BCD_Driver.c **** ********************************************************************************
 784:Generated_Source\PSoC5/BCD_Driver.c **** *
 785:Generated_Source\PSoC5/BCD_Driver.c **** * Summary:
 786:Generated_Source\PSoC5/BCD_Driver.c **** *  Clears the display (disables all the LEDs) for the associated position by
 787:Generated_Source\PSoC5/BCD_Driver.c **** *  setting the display RAM to zero.
 788:Generated_Source\PSoC5/BCD_Driver.c **** *
 789:Generated_Source\PSoC5/BCD_Driver.c **** * Parameters:
 790:Generated_Source\PSoC5/BCD_Driver.c **** *  uint8 position: The digit position to clear.
 791:Generated_Source\PSoC5/BCD_Driver.c **** *
 792:Generated_Source\PSoC5/BCD_Driver.c **** * Return:
 793:Generated_Source\PSoC5/BCD_Driver.c **** *  None
 794:Generated_Source\PSoC5/BCD_Driver.c **** *
 795:Generated_Source\PSoC5/BCD_Driver.c **** * Side effects:
 796:Generated_Source\PSoC5/BCD_Driver.c **** *  None
 797:Generated_Source\PSoC5/BCD_Driver.c **** *
 798:Generated_Source\PSoC5/BCD_Driver.c **** *******************************************************************************/
 799:Generated_Source\PSoC5/BCD_Driver.c **** void BCD_Driver_ClearDisplay(uint8 position) 
ARM GAS  C:\Users\mmoh0006\AppData\Local\Temp\cc2nB4gH.s 			page 20


 800:Generated_Source\PSoC5/BCD_Driver.c **** {  
 279              		.loc 1 800 0
 280              		.cfi_startproc
 281              		@ args = 0, pretend = 0, frame = 0
 282              		@ frame_needed = 0, uses_anonymous_args = 0
 283              		@ link register save eliminated.
 284              	.LVL27:
 801:Generated_Source\PSoC5/BCD_Driver.c ****     uint8 relPosition;
 802:Generated_Source\PSoC5/BCD_Driver.c ****     
 803:Generated_Source\PSoC5/BCD_Driver.c ****     if(position < BCD_Driver_NUM_COM)
 285              		.loc 1 803 0
 286 0000 0328     		cmp	r0, #3
 287              	.LVL28:
 804:Generated_Source\PSoC5/BCD_Driver.c ****     {
 805:Generated_Source\PSoC5/BCD_Driver.c ****         relPosition = position;
 806:Generated_Source\PSoC5/BCD_Driver.c ****         BCD_Driver_segLBuffer[relPosition] = BCD_Driver_CLEAR;
 288              		.loc 1 806 0
 289 0002 9EBF     		ittt	ls
 290 0004 014B     		ldrls	r3, .L30
 291 0006 FF22     		movls	r2, #255
 292 0008 1A54     		strbls	r2, [r3, r0]
 293 000a 7047     		bx	lr
 294              	.L31:
 295              		.align	2
 296              	.L30:
 297 000c 00000000 		.word	BCD_Driver_segLBuffer
 298              		.cfi_endproc
 299              	.LFE12:
 300              		.size	BCD_Driver_ClearDisplay, .-BCD_Driver_ClearDisplay
 301              		.section	.text.BCD_Driver_ClearDisplayAll,"ax",%progbits
 302              		.align	1
 303              		.global	BCD_Driver_ClearDisplayAll
 304              		.thumb
 305              		.thumb_func
 306              		.type	BCD_Driver_ClearDisplayAll, %function
 307              	BCD_Driver_ClearDisplayAll:
 308              	.LFB13:
 807:Generated_Source\PSoC5/BCD_Driver.c ****     }    
 808:Generated_Source\PSoC5/BCD_Driver.c ****     else if (position < BCD_Driver_TWO_NUM_COM)
 809:Generated_Source\PSoC5/BCD_Driver.c ****     {
 810:Generated_Source\PSoC5/BCD_Driver.c ****         #if (BCD_Driver_NUM_SEG > 8u)
 811:Generated_Source\PSoC5/BCD_Driver.c ****             relPosition = position - BCD_Driver_NUM_COM;
 812:Generated_Source\PSoC5/BCD_Driver.c ****             BCD_Driver_segMBuffer[relPosition] = BCD_Driver_CLEAR;
 813:Generated_Source\PSoC5/BCD_Driver.c ****         #endif /* (BCD_Driver_NUM_SEG > 8u) */
 814:Generated_Source\PSoC5/BCD_Driver.c ****     }
 815:Generated_Source\PSoC5/BCD_Driver.c ****     else
 816:Generated_Source\PSoC5/BCD_Driver.c ****     {
 817:Generated_Source\PSoC5/BCD_Driver.c ****         #if (BCD_Driver_NUM_SEG > 16u)
 818:Generated_Source\PSoC5/BCD_Driver.c ****             relPosition = position - BCD_Driver_TWO_NUM_COM;
 819:Generated_Source\PSoC5/BCD_Driver.c ****             if(relPosition < BCD_Driver_NUM_COM)
 820:Generated_Source\PSoC5/BCD_Driver.c ****             {
 821:Generated_Source\PSoC5/BCD_Driver.c ****                 BCD_Driver_segHBuffer[relPosition] = BCD_Driver_CLEAR;
 822:Generated_Source\PSoC5/BCD_Driver.c ****             }
 823:Generated_Source\PSoC5/BCD_Driver.c ****         #endif /* (BCD_Driver_NUM_SEG > 16u) */
 824:Generated_Source\PSoC5/BCD_Driver.c ****     }
 825:Generated_Source\PSoC5/BCD_Driver.c **** }
 826:Generated_Source\PSoC5/BCD_Driver.c **** 
ARM GAS  C:\Users\mmoh0006\AppData\Local\Temp\cc2nB4gH.s 			page 21


 827:Generated_Source\PSoC5/BCD_Driver.c **** 
 828:Generated_Source\PSoC5/BCD_Driver.c **** /*******************************************************************************
 829:Generated_Source\PSoC5/BCD_Driver.c **** * Function Name: BCD_Driver_ClearDisplayAll
 830:Generated_Source\PSoC5/BCD_Driver.c **** ********************************************************************************
 831:Generated_Source\PSoC5/BCD_Driver.c **** *
 832:Generated_Source\PSoC5/BCD_Driver.c **** * Summary:
 833:Generated_Source\PSoC5/BCD_Driver.c **** *  Clears the entire display by writing zeros to all the display RAM locations.
 834:Generated_Source\PSoC5/BCD_Driver.c **** *
 835:Generated_Source\PSoC5/BCD_Driver.c **** * Parameters:
 836:Generated_Source\PSoC5/BCD_Driver.c **** *  None
 837:Generated_Source\PSoC5/BCD_Driver.c **** *
 838:Generated_Source\PSoC5/BCD_Driver.c **** * Return:
 839:Generated_Source\PSoC5/BCD_Driver.c **** *  None
 840:Generated_Source\PSoC5/BCD_Driver.c **** *
 841:Generated_Source\PSoC5/BCD_Driver.c **** * Side effects:
 842:Generated_Source\PSoC5/BCD_Driver.c **** *  None
 843:Generated_Source\PSoC5/BCD_Driver.c **** *
 844:Generated_Source\PSoC5/BCD_Driver.c **** *******************************************************************************/
 845:Generated_Source\PSoC5/BCD_Driver.c **** void BCD_Driver_ClearDisplayAll(void) 
 846:Generated_Source\PSoC5/BCD_Driver.c **** {
 309              		.loc 1 846 0
 310              		.cfi_startproc
 311              		@ args = 0, pretend = 0, frame = 0
 312              		@ frame_needed = 0, uses_anonymous_args = 0
 313              		@ link register save eliminated.
 314              	.LVL29:
 847:Generated_Source\PSoC5/BCD_Driver.c ****     uint8 position;
 848:Generated_Source\PSoC5/BCD_Driver.c ****     
 849:Generated_Source\PSoC5/BCD_Driver.c ****     for(position = 0u; position < BCD_Driver_NUM_COM; position++)
 850:Generated_Source\PSoC5/BCD_Driver.c ****     {
 851:Generated_Source\PSoC5/BCD_Driver.c ****         BCD_Driver_segLBuffer[position] = BCD_Driver_CLEAR; 
 315              		.loc 1 851 0
 316 0000 034B     		ldr	r3, .L33
 317 0002 FF22     		movs	r2, #255
 318 0004 1A70     		strb	r2, [r3]
 319              	.LVL30:
 320 0006 5A70     		strb	r2, [r3, #1]
 321              	.LVL31:
 322 0008 9A70     		strb	r2, [r3, #2]
 323              	.LVL32:
 324 000a DA70     		strb	r2, [r3, #3]
 325              	.LVL33:
 326 000c 7047     		bx	lr
 327              	.L34:
 328 000e 00BF     		.align	2
 329              	.L33:
 330 0010 00000000 		.word	BCD_Driver_segLBuffer
 331              		.cfi_endproc
 332              	.LFE13:
 333              		.size	BCD_Driver_ClearDisplayAll, .-BCD_Driver_ClearDisplayAll
 334              		.section	.text.BCD_Driver_Init,"ax",%progbits
 335              		.align	1
 336              		.global	BCD_Driver_Init
 337              		.thumb
 338              		.thumb_func
 339              		.type	BCD_Driver_Init, %function
 340              	BCD_Driver_Init:
ARM GAS  C:\Users\mmoh0006\AppData\Local\Temp\cc2nB4gH.s 			page 22


 341              	.LFB3:
 363:Generated_Source\PSoC5/BCD_Driver.c ****     static uint8 BCD_Driver_dmaInitDone = 0u;
 342              		.loc 1 363 0
 343              		.cfi_startproc
 344              		@ args = 0, pretend = 0, frame = 0
 345              		@ frame_needed = 0, uses_anonymous_args = 0
 346 0000 F8B5     		push	{r3, r4, r5, r6, r7, lr}
 347              		.cfi_def_cfa_offset 24
 348              		.cfi_offset 3, -24
 349              		.cfi_offset 4, -20
 350              		.cfi_offset 5, -16
 351              		.cfi_offset 6, -12
 352              		.cfi_offset 7, -8
 353              		.cfi_offset 14, -4
 373:Generated_Source\PSoC5/BCD_Driver.c ****     {
 354              		.loc 1 373 0
 355 0002 394C     		ldr	r4, .L56
 370:Generated_Source\PSoC5/BCD_Driver.c ****     
 356              		.loc 1 370 0
 357 0004 FFF7FEFF 		bl	BCD_Driver_ClearDisplayAll
 358              	.LVL34:
 373:Generated_Source\PSoC5/BCD_Driver.c ****     {
 359              		.loc 1 373 0
 360 0008 E57B     		ldrb	r5, [r4, #15]	@ zero_extendqisi2
 361 000a 002D     		cmp	r5, #0
 362 000c 6BD1     		bne	.L35
 363              	.LBB22:
 364              	.LBB23:
 102:Generated_Source\PSoC5/BCD_Driver.c ****                                         HI16(BCD_Driver_SRAM_BASE), HI16(BCD_Driver_CONTROL_REG_BAS
 365              		.loc 1 102 0
 366 000e 0121     		movs	r1, #1
 367 0010 4FF48043 		mov	r3, #16384
 368 0014 41F6FF72 		movw	r2, #8191
 369 0018 0846     		mov	r0, r1
 370 001a FFF7FEFF 		bl	BCD_Driver_DMA_Com_DmaInitialize
 371              	.LVL35:
 106:Generated_Source\PSoC5/BCD_Driver.c ****     {
 372              		.loc 1 106 0
 373 001e FF28     		cmp	r0, #255
 102:Generated_Source\PSoC5/BCD_Driver.c ****                                         HI16(BCD_Driver_SRAM_BASE), HI16(BCD_Driver_CONTROL_REG_BAS
 374              		.loc 1 102 0
 375 0020 2072     		strb	r0, [r4, #8]
 106:Generated_Source\PSoC5/BCD_Driver.c ****     {
 376              		.loc 1 106 0
 377 0022 0BD1     		bne	.L40
 378              	.L45:
 148:Generated_Source\PSoC5/BCD_Driver.c ****                                         HI16(BCD_Driver_SRAM_BASE), HI16(BCD_Driver_CONTROL_REG_BAS
 379              		.loc 1 148 0
 380 0024 0121     		movs	r1, #1
 381 0026 4FF48043 		mov	r3, #16384
 382 002a 41F6FF72 		movw	r2, #8191
 383 002e 0846     		mov	r0, r1
 384 0030 FFF7FEFF 		bl	BCD_Driver_DMA_Seg_DmaInitialize
 385              	.LVL36:
 152:Generated_Source\PSoC5/BCD_Driver.c ****     {
 386              		.loc 1 152 0
 387 0034 FF28     		cmp	r0, #255
ARM GAS  C:\Users\mmoh0006\AppData\Local\Temp\cc2nB4gH.s 			page 23


 148:Generated_Source\PSoC5/BCD_Driver.c ****                                         HI16(BCD_Driver_SRAM_BASE), HI16(BCD_Driver_CONTROL_REG_BAS
 388              		.loc 1 148 0
 389 0036 6073     		strb	r0, [r4, #13]
 152:Generated_Source\PSoC5/BCD_Driver.c ****     {
 390              		.loc 1 152 0
 391 0038 2CD1     		bne	.L38
 392 003a 51E0     		b	.L39
 393              	.L40:
 394              	.LVL37:
 111:Generated_Source\PSoC5/BCD_Driver.c ****         }
 395              		.loc 1 111 0
 396 003c FFF7FEFF 		bl	CyDmaTdAllocate
 397              	.LVL38:
 398 0040 6055     		strb	r0, [r4, r5]
 399              	.LVL39:
 400 0042 0135     		adds	r5, r5, #1
 401              	.LVL40:
 109:Generated_Source\PSoC5/BCD_Driver.c ****         {
 402              		.loc 1 109 0
 403 0044 082D     		cmp	r5, #8
 404 0046 F9D1     		bne	.L40
 405 0048 274D     		ldr	r5, .L56
 406 004a 0026     		movs	r6, #0
 407              	.L43:
 408              	.LVL41:
 118:Generated_Source\PSoC5/BCD_Driver.c ****             {
 409              		.loc 1 118 0
 410 004c F307     		lsls	r3, r6, #31
 128:Generated_Source\PSoC5/BCD_Driver.c ****                                                 BCD_Driver_dmaComTd[i+1u], TD_INC_SRC_ADR);
 411              		.loc 1 128 0
 412 004e 4BBF     		itete	mi
 413 0050 0123     		movmi	r3, #1
 121:Generated_Source\PSoC5/BCD_Driver.c ****                                                 BCD_Driver_dmaComTd[i+1u],
 414              		.loc 1 121 0
 415 0052 6A78     		ldrbpl	r2, [r5, #1]	@ zero_extendqisi2
 128:Generated_Source\PSoC5/BCD_Driver.c ****                                                 BCD_Driver_dmaComTd[i+1u], TD_INC_SRC_ADR);
 416              		.loc 1 128 0
 417 0054 6A78     		ldrbmi	r2, [r5, #1]	@ zero_extendqisi2
 121:Generated_Source\PSoC5/BCD_Driver.c ****                                                 BCD_Driver_dmaComTd[i+1u],
 418              		.loc 1 121 0
 419 0056 0523     		movpl	r3, #5
 420 0058 54BF     		ite	pl
 421 005a 0121     		movpl	r1, #1
 128:Generated_Source\PSoC5/BCD_Driver.c ****                                                 BCD_Driver_dmaComTd[i+1u], TD_INC_SRC_ADR);
 422              		.loc 1 128 0
 423 005c 1946     		movmi	r1, r3
 424 005e 2878     		ldrb	r0, [r5]	@ zero_extendqisi2
 425 0060 0136     		adds	r6, r6, #1
 426              	.LVL42:
 427 0062 FFF7FEFF 		bl	CyDmaTdSetConfiguration
 428              	.LVL43:
 115:Generated_Source\PSoC5/BCD_Driver.c ****         {
 429              		.loc 1 115 0
 430 0066 072E     		cmp	r6, #7
 431 0068 05F10105 		add	r5, r5, #1
 432 006c EED1     		bne	.L43
 133:Generated_Source\PSoC5/BCD_Driver.c ****                                         1u, BCD_Driver_dmaComTd[0u], TD_INC_SRC_ADR);
ARM GAS  C:\Users\mmoh0006\AppData\Local\Temp\cc2nB4gH.s 			page 24


 433              		.loc 1 133 0
 434 006e 0123     		movs	r3, #1
 435 0070 2278     		ldrb	r2, [r4]	@ zero_extendqisi2
 436 0072 1946     		mov	r1, r3
 437 0074 E079     		ldrb	r0, [r4, #7]	@ zero_extendqisi2
 438 0076 FFF7FEFF 		bl	CyDmaTdSetConfiguration
 439              	.LVL44:
 139:Generated_Source\PSoC5/BCD_Driver.c ****                                         LO16((uint32) &BCD_Driver_comBuffer[i]),
 440              		.loc 1 139 0
 441 007a 1C4E     		ldr	r6, .L56+4
 133:Generated_Source\PSoC5/BCD_Driver.c ****                                         1u, BCD_Driver_dmaComTd[0u], TD_INC_SRC_ADR);
 442              		.loc 1 133 0
 443 007c 0025     		movs	r5, #0
 444              	.LVL45:
 445              	.L44:
 139:Generated_Source\PSoC5/BCD_Driver.c ****                                         LO16((uint32) &BCD_Driver_comBuffer[i]),
 446              		.loc 1 139 0
 447 007e 7119     		adds	r1, r6, r5
 448 0080 605D     		ldrb	r0, [r4, r5]	@ zero_extendqisi2
 449 0082 46F27B42 		movw	r2, #25723
 450 0086 89B2     		uxth	r1, r1
 451 0088 0135     		adds	r5, r5, #1
 452              	.LVL46:
 453 008a FFF7FEFF 		bl	CyDmaTdSetAddress
 454              	.LVL47:
 137:Generated_Source\PSoC5/BCD_Driver.c ****         {
 455              		.loc 1 137 0
 456 008e 082D     		cmp	r5, #8
 457 0090 F5D1     		bne	.L44
 458 0092 C7E7     		b	.L45
 459              	.L38:
 157:Generated_Source\PSoC5/BCD_Driver.c ****             #if (BCD_Driver_NUM_SEG > 8u)
 460              		.loc 1 157 0
 461 0094 164F     		ldr	r7, .L56+8
 152:Generated_Source\PSoC5/BCD_Driver.c ****     {
 462              		.loc 1 152 0
 463 0096 0025     		movs	r5, #0
 464              	.L46:
 465              	.LVL48:
 157:Generated_Source\PSoC5/BCD_Driver.c ****             #if (BCD_Driver_NUM_SEG > 8u)
 466              		.loc 1 157 0
 467 0098 FFF7FEFF 		bl	CyDmaTdAllocate
 468              	.LVL49:
 469 009c 7855     		strb	r0, [r7, r5]
 470              	.LVL50:
 471 009e 0135     		adds	r5, r5, #1
 472              	.LVL51:
 155:Generated_Source\PSoC5/BCD_Driver.c ****         {
 473              		.loc 1 155 0
 474 00a0 042D     		cmp	r5, #4
 475 00a2 134E     		ldr	r6, .L56+8
 476 00a4 F8D1     		bne	.L46
 477 00a6 3546     		mov	r5, r6
 478 00a8 F71C     		adds	r7, r6, #3
 479              	.L47:
 480              	.LVL52:
 170:Generated_Source\PSoC5/BCD_Driver.c ****                                                 TD_INC_SRC_ADR | BCD_Driver_DMA_Seg__TD_TERMOUT_EN)
ARM GAS  C:\Users\mmoh0006\AppData\Local\Temp\cc2nB4gH.s 			page 25


 481              		.loc 1 170 0
 482 00aa 2878     		ldrb	r0, [r5]	@ zero_extendqisi2
 483 00ac 15F8012F 		ldrb	r2, [r5, #1]!	@ zero_extendqisi2
 484              	.LVL53:
 485 00b0 0523     		movs	r3, #5
 486 00b2 0121     		movs	r1, #1
 487 00b4 FFF7FEFF 		bl	CyDmaTdSetConfiguration
 488              	.LVL54:
 167:Generated_Source\PSoC5/BCD_Driver.c ****         {
 489              		.loc 1 167 0
 490 00b8 BD42     		cmp	r5, r7
 491 00ba F6D1     		bne	.L47
 190:Generated_Source\PSoC5/BCD_Driver.c ****                                             1u, BCD_Driver_dmaSegLTd[0u], 
 492              		.loc 1 190 0
 493 00bc 0523     		movs	r3, #5
 494 00be 627A     		ldrb	r2, [r4, #9]	@ zero_extendqisi2
 495 00c0 0121     		movs	r1, #1
 496 00c2 207B     		ldrb	r0, [r4, #12]	@ zero_extendqisi2
 497 00c4 FFF7FEFF 		bl	CyDmaTdSetConfiguration
 498              	.LVL55:
 214:Generated_Source\PSoC5/BCD_Driver.c ****                                             LO16((uint32) &BCD_Driver_segLBuffer[i]),
 499              		.loc 1 214 0
 500 00c8 0A4F     		ldr	r7, .L56+12
 190:Generated_Source\PSoC5/BCD_Driver.c ****                                             1u, BCD_Driver_dmaSegLTd[0u], 
 501              		.loc 1 190 0
 502 00ca 0025     		movs	r5, #0
 503              	.LVL56:
 504              	.L48:
 214:Generated_Source\PSoC5/BCD_Driver.c ****                                             LO16((uint32) &BCD_Driver_segLBuffer[i]),
 505              		.loc 1 214 0
 506 00cc 7919     		adds	r1, r7, r5
 507 00ce 705D     		ldrb	r0, [r6, r5]	@ zero_extendqisi2
 508 00d0 46F27B52 		movw	r2, #25979
 509 00d4 89B2     		uxth	r1, r1
 510 00d6 0135     		adds	r5, r5, #1
 511              	.LVL57:
 512 00d8 FFF7FEFF 		bl	CyDmaTdSetAddress
 513              	.LVL58:
 212:Generated_Source\PSoC5/BCD_Driver.c ****         {
 514              		.loc 1 212 0
 515 00dc 042D     		cmp	r5, #4
 516 00de F5D1     		bne	.L48
 517              	.L39:
 518              	.LBE23:
 519              	.LBE22:
 376:Generated_Source\PSoC5/BCD_Driver.c ****     }
 520              		.loc 1 376 0
 521 00e0 0123     		movs	r3, #1
 522 00e2 E373     		strb	r3, [r4, #15]
 523 00e4 F8BD     		pop	{r3, r4, r5, r6, r7, pc}
 524              	.L35:
 525 00e6 F8BD     		pop	{r3, r4, r5, r6, r7, pc}
 526              	.L57:
 527              		.align	2
 528              	.L56:
 529 00e8 00000000 		.word	.LANCHOR0
 530 00ec 00000000 		.word	.LANCHOR1
ARM GAS  C:\Users\mmoh0006\AppData\Local\Temp\cc2nB4gH.s 			page 26


 531 00f0 09000000 		.word	.LANCHOR0+9
 532 00f4 00000000 		.word	BCD_Driver_segLBuffer
 533              		.cfi_endproc
 534              	.LFE3:
 535              		.size	BCD_Driver_Init, .-BCD_Driver_Init
 536              		.section	.text.BCD_Driver_Start,"ax",%progbits
 537              		.align	1
 538              		.global	BCD_Driver_Start
 539              		.thumb
 540              		.thumb_func
 541              		.type	BCD_Driver_Start, %function
 542              	BCD_Driver_Start:
 543              	.LFB5:
 445:Generated_Source\PSoC5/BCD_Driver.c ****     if(0u == BCD_Driver_initVar)
 544              		.loc 1 445 0
 545              		.cfi_startproc
 546              		@ args = 0, pretend = 0, frame = 0
 547              		@ frame_needed = 0, uses_anonymous_args = 0
 548 0000 10B5     		push	{r4, lr}
 549              		.cfi_def_cfa_offset 8
 550              		.cfi_offset 4, -8
 551              		.cfi_offset 14, -4
 446:Generated_Source\PSoC5/BCD_Driver.c ****     {
 552              		.loc 1 446 0
 553 0002 054C     		ldr	r4, .L60
 554 0004 237C     		ldrb	r3, [r4, #16]	@ zero_extendqisi2
 555 0006 1BB9     		cbnz	r3, .L59
 448:Generated_Source\PSoC5/BCD_Driver.c ****         BCD_Driver_initVar = 1u;
 556              		.loc 1 448 0
 557 0008 FFF7FEFF 		bl	BCD_Driver_Init
 558              	.LVL59:
 449:Generated_Source\PSoC5/BCD_Driver.c ****     }
 559              		.loc 1 449 0
 560 000c 0123     		movs	r3, #1
 561 000e 2374     		strb	r3, [r4, #16]
 562              	.L59:
 453:Generated_Source\PSoC5/BCD_Driver.c **** 
 563              		.loc 1 453 0
 564 0010 BDE81040 		pop	{r4, lr}
 565              		.cfi_restore 14
 566              		.cfi_restore 4
 567              		.cfi_def_cfa_offset 0
 452:Generated_Source\PSoC5/BCD_Driver.c **** }
 568              		.loc 1 452 0
 569 0014 FFF7FEBF 		b	BCD_Driver_Enable
 570              	.LVL60:
 571              	.L61:
 572              		.align	2
 573              	.L60:
 574 0018 00000000 		.word	.LANCHOR0
 575              		.cfi_endproc
 576              	.LFE5:
 577              		.size	BCD_Driver_Start, .-BCD_Driver_Start
 578              		.section	.text.BCD_Driver_Stop,"ax",%progbits
 579              		.align	1
 580              		.global	BCD_Driver_Stop
 581              		.thumb
ARM GAS  C:\Users\mmoh0006\AppData\Local\Temp\cc2nB4gH.s 			page 27


 582              		.thumb_func
 583              		.type	BCD_Driver_Stop, %function
 584              	BCD_Driver_Stop:
 585              	.LFB6:
 475:Generated_Source\PSoC5/BCD_Driver.c ****     #if (BCD_Driver_BRIGHTNESS_EN == BCD_Driver_ENABLED)
 586              		.loc 1 475 0
 587              		.cfi_startproc
 588              		@ args = 0, pretend = 0, frame = 8
 589              		@ frame_needed = 0, uses_anonymous_args = 0
 590              	.LBB26:
 591              	.LBB27:
 315:Generated_Source\PSoC5/BCD_Driver.c ****     dmaChannelList[1u] = BCD_Driver_dmaSegChannel;
 592              		.loc 1 315 0
 593 0000 154B     		ldr	r3, .L69
 594              	.LBE27:
 595              	.LBE26:
 475:Generated_Source\PSoC5/BCD_Driver.c ****     #if (BCD_Driver_BRIGHTNESS_EN == BCD_Driver_ENABLED)
 596              		.loc 1 475 0
 597 0002 F7B5     		push	{r0, r1, r2, r4, r5, r6, r7, lr}
 598              		.cfi_def_cfa_offset 32
 599              		.cfi_offset 4, -20
 600              		.cfi_offset 5, -16
 601              		.cfi_offset 6, -12
 602              		.cfi_offset 7, -8
 603              		.cfi_offset 14, -4
 604 0004 1F46     		mov	r7, r3
 605              	.LBB29:
 606              	.LBB28:
 315:Generated_Source\PSoC5/BCD_Driver.c ****     dmaChannelList[1u] = BCD_Driver_dmaSegChannel;
 607              		.loc 1 315 0
 608 0006 1A7A     		ldrb	r2, [r3, #8]	@ zero_extendqisi2
 316:Generated_Source\PSoC5/BCD_Driver.c ****     #if (BCD_Driver_BRIGHTNESS_EN == BCD_Driver_ENABLED)
 609              		.loc 1 316 0
 610 0008 0024     		movs	r4, #0
 315:Generated_Source\PSoC5/BCD_Driver.c ****     dmaChannelList[1u] = BCD_Driver_dmaSegChannel;
 611              		.loc 1 315 0
 612 000a 8DF80420 		strb	r2, [sp, #4]
 316:Generated_Source\PSoC5/BCD_Driver.c ****     #if (BCD_Driver_BRIGHTNESS_EN == BCD_Driver_ENABLED)
 613              		.loc 1 316 0
 614 000e 5A7B     		ldrb	r2, [r3, #13]	@ zero_extendqisi2
 615 0010 8DF80520 		strb	r2, [sp, #5]
 616              	.LVL61:
 617              	.L65:
 323:Generated_Source\PSoC5/BCD_Driver.c ****         (void) CyDmaChDisable(channel);
 618              		.loc 1 323 0
 619 0014 01AB     		add	r3, sp, #4
 620 0016 E65C     		ldrb	r6, [r4, r3]	@ zero_extendqisi2
 621              	.LVL62:
 329:Generated_Source\PSoC5/BCD_Driver.c ****         {
 622              		.loc 1 329 0
 623 0018 104D     		ldr	r5, .L69+4
 324:Generated_Source\PSoC5/BCD_Driver.c ****         
 624              		.loc 1 324 0
 625 001a 3046     		mov	r0, r6
 626 001c FFF7FEFF 		bl	CyDmaChDisable
 627              	.LVL63:
 326:Generated_Source\PSoC5/BCD_Driver.c ****         
ARM GAS  C:\Users\mmoh0006\AppData\Local\Temp\cc2nB4gH.s 			page 28


 628              		.loc 1 326 0
 629 0020 FF20     		movs	r0, #255
 630 0022 FFF7FEFF 		bl	BCD_Driver_Com_Driver_Write
 631              	.LVL64:
 329:Generated_Source\PSoC5/BCD_Driver.c ****         {
 632              		.loc 1 329 0
 633 0026 3301     		lsls	r3, r6, #4
 634 0028 1D44     		add	r5, r5, r3
 635              	.L63:
 636 002a 2B7A     		ldrb	r3, [r5, #8]	@ zero_extendqisi2
 637 002c 9B07     		lsls	r3, r3, #30
 638 002e FCD4     		bmi	.L63
 334:Generated_Source\PSoC5/BCD_Driver.c ****         (void) CyDmaChEnable    (channel, 1u);
 639              		.loc 1 334 0
 640 0030 0421     		movs	r1, #4
 641 0032 3046     		mov	r0, r6
 642 0034 FFF7FEFF 		bl	CyDmaChSetRequest
 643              	.LVL65:
 335:Generated_Source\PSoC5/BCD_Driver.c **** 
 644              		.loc 1 335 0
 645 0038 0121     		movs	r1, #1
 646 003a 3046     		mov	r0, r6
 647 003c FFF7FEFF 		bl	CyDmaChEnable
 648              	.LVL66:
 649              	.L64:
 337:Generated_Source\PSoC5/BCD_Driver.c ****         {
 650              		.loc 1 337 0
 651 0040 2B78     		ldrb	r3, [r5]	@ zero_extendqisi2
 652 0042 13F00101 		ands	r1, r3, #1
 653 0046 FBD1     		bne	.L64
 654              	.LVL67:
 655 0048 0134     		adds	r4, r4, #1
 656              	.LVL68:
 321:Generated_Source\PSoC5/BCD_Driver.c ****     {
 657              		.loc 1 321 0
 658 004a 022C     		cmp	r4, #2
 659 004c E2D1     		bne	.L65
 660              	.LVL69:
 661              	.LBE28:
 662              	.LBE29:
 482:Generated_Source\PSoC5/BCD_Driver.c ****     
 663              		.loc 1 482 0
 664 004e FFF7FEFF 		bl	BCD_Driver_ClearDisplayAll
 665              	.LVL70:
 484:Generated_Source\PSoC5/BCD_Driver.c **** }
 666              		.loc 1 484 0
 667 0052 B973     		strb	r1, [r7, #14]
 485:Generated_Source\PSoC5/BCD_Driver.c **** 
 668              		.loc 1 485 0
 669 0054 03B0     		add	sp, sp, #12
 670              		.cfi_def_cfa_offset 20
 671              		@ sp needed
 672 0056 F0BD     		pop	{r4, r5, r6, r7, pc}
 673              	.L70:
 674              		.align	2
 675              	.L69:
 676 0058 00000000 		.word	.LANCHOR0
ARM GAS  C:\Users\mmoh0006\AppData\Local\Temp\cc2nB4gH.s 			page 29


 677 005c 10700040 		.word	1073770512
 678              		.cfi_endproc
 679              	.LFE6:
 680              		.size	BCD_Driver_Stop, .-BCD_Driver_Stop
 681              		.section	.text.BCD_Driver_Write7SegNumberDec,"ax",%progbits
 682              		.align	1
 683              		.global	BCD_Driver_Write7SegNumberDec
 684              		.thumb
 685              		.thumb_func
 686              		.type	BCD_Driver_Write7SegNumberDec, %function
 687              	BCD_Driver_Write7SegNumberDec:
 688              	.LFB14:
 852:Generated_Source\PSoC5/BCD_Driver.c ****         
 853:Generated_Source\PSoC5/BCD_Driver.c ****         #if (BCD_Driver_NUM_SEG > 8u) 
 854:Generated_Source\PSoC5/BCD_Driver.c ****             BCD_Driver_segMBuffer[position] = BCD_Driver_CLEAR;
 855:Generated_Source\PSoC5/BCD_Driver.c ****         #endif /* (BCD_Driver_NUM_SEG > 8u) */
 856:Generated_Source\PSoC5/BCD_Driver.c ****         
 857:Generated_Source\PSoC5/BCD_Driver.c ****         #if (BCD_Driver_NUM_SEG > 16u)
 858:Generated_Source\PSoC5/BCD_Driver.c ****             BCD_Driver_segHBuffer[position] = BCD_Driver_CLEAR;
 859:Generated_Source\PSoC5/BCD_Driver.c ****         #endif /* (BCD_Driver_NUM_SEG > 16u) */
 860:Generated_Source\PSoC5/BCD_Driver.c ****     }
 861:Generated_Source\PSoC5/BCD_Driver.c **** }
 862:Generated_Source\PSoC5/BCD_Driver.c **** 
 863:Generated_Source\PSoC5/BCD_Driver.c **** 
 864:Generated_Source\PSoC5/BCD_Driver.c **** /*******************************************************************************
 865:Generated_Source\PSoC5/BCD_Driver.c **** * Function Name: BCD_Driver_Write7SegNumberDec
 866:Generated_Source\PSoC5/BCD_Driver.c **** ********************************************************************************
 867:Generated_Source\PSoC5/BCD_Driver.c **** *
 868:Generated_Source\PSoC5/BCD_Driver.c **** * Summary:
 869:Generated_Source\PSoC5/BCD_Driver.c **** *  Displays a signed integer up to 8 characters long, starting at 'position' 
 870:Generated_Source\PSoC5/BCD_Driver.c **** *  and extending for 'digits' characters. The negative sign will consume one 
 871:Generated_Source\PSoC5/BCD_Driver.c **** *  digit if it is required. If you do not use the correct number of digits for
 872:Generated_Source\PSoC5/BCD_Driver.c **** *  your number, the least significant digits will be displayed. For example, 
 873:Generated_Source\PSoC5/BCD_Driver.c **** *  if value is -1234, display is 0 and digits is 4, the result will be: -234.
 874:Generated_Source\PSoC5/BCD_Driver.c **** *
 875:Generated_Source\PSoC5/BCD_Driver.c **** * Parameters:
 876:Generated_Source\PSoC5/BCD_Driver.c **** *  int32 number: a signed integer number to display. It is the responsibility 
 877:Generated_Source\PSoC5/BCD_Driver.c **** *                of the user to ensure that the display has enough digits to 
 878:Generated_Source\PSoC5/BCD_Driver.c **** *                accurately represent the number passed to this function. If 
 879:Generated_Source\PSoC5/BCD_Driver.c **** *                not, the least significant digits will be displayed. Also note
 880:Generated_Source\PSoC5/BCD_Driver.c **** *                that a negative number will require 1 more digit than the
 881:Generated_Source\PSoC5/BCD_Driver.c **** *                equivalent positive number to display the negative sign.
 882:Generated_Source\PSoC5/BCD_Driver.c **** *  uint8 position: Digit position of the Display/Common RAM to start.
 883:Generated_Source\PSoC5/BCD_Driver.c **** *  uint8 digits: The number of digits you wish to use to display the value 
 884:Generated_Source\PSoC5/BCD_Driver.c **** *                passed into the function. The negative sign will consume one 
 885:Generated_Source\PSoC5/BCD_Driver.c **** *                digit if it is required.
 886:Generated_Source\PSoC5/BCD_Driver.c **** *  uint8 alignment: How to align the provided number in the allocated digits.
 887:Generated_Source\PSoC5/BCD_Driver.c **** *       RIGHT_ALIGN - Least significant digit occupies the rightmost digit
 888:Generated_Source\PSoC5/BCD_Driver.c **** *                     (position + digits). Unused digits are turned off unless
 889:Generated_Source\PSoC5/BCD_Driver.c **** *                     ZERO_PAD enabled.
 890:Generated_Source\PSoC5/BCD_Driver.c **** *       LEFT_ALIGN - Most significant digit (or negative sign) occupies the
 891:Generated_Source\PSoC5/BCD_Driver.c **** *                    digit specified by position. Unused digits are turned off.
 892:Generated_Source\PSoC5/BCD_Driver.c **** *       ZERO_PAD - Unused digits to the left are padded with leading zeros.
 893:Generated_Source\PSoC5/BCD_Driver.c **** *
 894:Generated_Source\PSoC5/BCD_Driver.c **** * Return:
 895:Generated_Source\PSoC5/BCD_Driver.c **** *  None
 896:Generated_Source\PSoC5/BCD_Driver.c **** *
ARM GAS  C:\Users\mmoh0006\AppData\Local\Temp\cc2nB4gH.s 			page 30


 897:Generated_Source\PSoC5/BCD_Driver.c **** * Side effects:
 898:Generated_Source\PSoC5/BCD_Driver.c **** *  None
 899:Generated_Source\PSoC5/BCD_Driver.c **** *
 900:Generated_Source\PSoC5/BCD_Driver.c **** *******************************************************************************/
 901:Generated_Source\PSoC5/BCD_Driver.c **** void BCD_Driver_Write7SegNumberDec(int32 number, uint8 position, uint8 digits, uint8 alignment)
 902:Generated_Source\PSoC5/BCD_Driver.c **** 
 903:Generated_Source\PSoC5/BCD_Driver.c **** {
 689              		.loc 1 903 0
 690              		.cfi_startproc
 691              		@ args = 0, pretend = 0, frame = 8
 692              		@ frame_needed = 0, uses_anonymous_args = 0
 693              	.LVL71:
 694 0000 2DE9F341 		push	{r0, r1, r4, r5, r6, r7, r8, lr}
 695              		.cfi_def_cfa_offset 32
 696              		.cfi_offset 4, -24
 697              		.cfi_offset 5, -20
 698              		.cfi_offset 6, -16
 699              		.cfi_offset 7, -12
 700              		.cfi_offset 8, -8
 701              		.cfi_offset 14, -4
 904:Generated_Source\PSoC5/BCD_Driver.c ****     uint8 i;
 905:Generated_Source\PSoC5/BCD_Driver.c ****     uint8 relPosition;
 906:Generated_Source\PSoC5/BCD_Driver.c ****     uint8 choiceReg;
 907:Generated_Source\PSoC5/BCD_Driver.c ****     uint8 numberSign;
 908:Generated_Source\PSoC5/BCD_Driver.c ****     uint8 selectVal;
 909:Generated_Source\PSoC5/BCD_Driver.c ****     uint8 zeroCount = 0u;
 910:Generated_Source\PSoC5/BCD_Driver.c ****     uint8 bufArray[8u] = {0u};
 911:Generated_Source\PSoC5/BCD_Driver.c ****     uint32 numberVal;
 912:Generated_Source\PSoC5/BCD_Driver.c ****         
 913:Generated_Source\PSoC5/BCD_Driver.c ****     /* Choose to use either the low, mid or high control registers */
 914:Generated_Source\PSoC5/BCD_Driver.c ****     if(position < BCD_Driver_NUM_COM)
 702              		.loc 1 914 0
 703 0004 0329     		cmp	r1, #3
 910:Generated_Source\PSoC5/BCD_Driver.c ****     uint32 numberVal;
 704              		.loc 1 910 0
 705 0006 4FF00004 		mov	r4, #0
 706 000a 0094     		str	r4, [sp]
 707 000c 0194     		str	r4, [sp, #4]
 708              		.loc 1 914 0
 709 000e 08D9     		bls	.L72
 915:Generated_Source\PSoC5/BCD_Driver.c ****     {
 916:Generated_Source\PSoC5/BCD_Driver.c ****         choiceReg = BCD_Driver_SEG_REG_LOW;
 917:Generated_Source\PSoC5/BCD_Driver.c ****         relPosition = position;
 918:Generated_Source\PSoC5/BCD_Driver.c ****     }
 919:Generated_Source\PSoC5/BCD_Driver.c ****     else if (position < BCD_Driver_TWO_NUM_COM)
 710              		.loc 1 919 0
 711 0010 0729     		cmp	r1, #7
 712              	.LVL72:
 920:Generated_Source\PSoC5/BCD_Driver.c ****     {
 921:Generated_Source\PSoC5/BCD_Driver.c ****         choiceReg = BCD_Driver_SEG_REG_MID;
 922:Generated_Source\PSoC5/BCD_Driver.c ****         relPosition = position - BCD_Driver_NUM_COM;
 713              		.loc 1 922 0
 714 0012 97BF     		itett	ls
 715 0014 0439     		subls	r1, r1, #4
 716              	.LVL73:
 923:Generated_Source\PSoC5/BCD_Driver.c ****     }
 924:Generated_Source\PSoC5/BCD_Driver.c ****     else
ARM GAS  C:\Users\mmoh0006\AppData\Local\Temp\cc2nB4gH.s 			page 31


 925:Generated_Source\PSoC5/BCD_Driver.c ****     {
 926:Generated_Source\PSoC5/BCD_Driver.c ****         choiceReg = BCD_Driver_SEG_REG_HIGH;
 927:Generated_Source\PSoC5/BCD_Driver.c ****         relPosition = position - BCD_Driver_TWO_NUM_COM;
 717              		.loc 1 927 0
 718 0016 0839     		subhi	r1, r1, #8
 922:Generated_Source\PSoC5/BCD_Driver.c ****     }
 719              		.loc 1 922 0
 720 0018 C9B2     		uxtbls	r1, r1
 921:Generated_Source\PSoC5/BCD_Driver.c ****         relPosition = position - BCD_Driver_NUM_COM;
 721              		.loc 1 921 0
 722 001a 0124     		movls	r4, #1
 723              	.LVL74:
 724              		.loc 1 927 0
 725 001c 84BF     		itt	hi
 726 001e C9B2     		uxtbhi	r1, r1
 727              	.LVL75:
 926:Generated_Source\PSoC5/BCD_Driver.c ****         relPosition = position - BCD_Driver_TWO_NUM_COM;
 728              		.loc 1 926 0
 729 0020 0224     		movhi	r4, #2
 730              	.LVL76:
 731              	.L72:
 928:Generated_Source\PSoC5/BCD_Driver.c ****     }
 929:Generated_Source\PSoC5/BCD_Driver.c ****     
 930:Generated_Source\PSoC5/BCD_Driver.c ****     /* Routine to extract the sign and to convert to unsigned */
 931:Generated_Source\PSoC5/BCD_Driver.c ****     if(number >= BCD_Driver_ZERO_NEG)
 732              		.loc 1 931 0
 733 0022 0028     		cmp	r0, #0
 932:Generated_Source\PSoC5/BCD_Driver.c ****     {
 933:Generated_Source\PSoC5/BCD_Driver.c ****         numberVal = (uint32)number;
 734              		.loc 1 933 0
 735 0024 ACBF     		ite	ge
 736 0026 0546     		movge	r5, r0
 737              	.LVL77:
 934:Generated_Source\PSoC5/BCD_Driver.c ****         numberSign = BCD_Driver_UNSIGNED;
 935:Generated_Source\PSoC5/BCD_Driver.c ****     }
 936:Generated_Source\PSoC5/BCD_Driver.c ****     else
 937:Generated_Source\PSoC5/BCD_Driver.c ****     {
 938:Generated_Source\PSoC5/BCD_Driver.c ****         numberVal = (uint32)(-number);
 738              		.loc 1 938 0
 739 0028 4542     		rsblt	r5, r0, #0
 740              	.LVL78:
 939:Generated_Source\PSoC5/BCD_Driver.c ****         numberSign = BCD_Driver_SIGNED;
 940:Generated_Source\PSoC5/BCD_Driver.c ****     }
 941:Generated_Source\PSoC5/BCD_Driver.c ****     
 942:Generated_Source\PSoC5/BCD_Driver.c ****     /* Fill up the temporary array */
 943:Generated_Source\PSoC5/BCD_Driver.c ****     for(i = digits; i > 0u; i--)
 741              		.loc 1 943 0
 742 002a 1046     		mov	r0, r2
 743              	.LVL79:
 744              	.LBB30:
 745              	.LBB31:
 944:Generated_Source\PSoC5/BCD_Driver.c ****     {
 945:Generated_Source\PSoC5/BCD_Driver.c ****         selectVal = (uint8)(numberVal % 10u);
 946:Generated_Source\PSoC5/BCD_Driver.c ****         bufArray[i-1u] = BCD_Driver_EncodeNumber7Seg(selectVal);
 947:Generated_Source\PSoC5/BCD_Driver.c ****         numberVal = numberVal / 10u;
 948:Generated_Source\PSoC5/BCD_Driver.c ****     }
 949:Generated_Source\PSoC5/BCD_Driver.c ****     
ARM GAS  C:\Users\mmoh0006\AppData\Local\Temp\cc2nB4gH.s 			page 32


 950:Generated_Source\PSoC5/BCD_Driver.c ****     /* Clean up the array and place sign if needed */
 951:Generated_Source\PSoC5/BCD_Driver.c ****     if(alignment == BCD_Driver_ZERO_PAD)
 952:Generated_Source\PSoC5/BCD_Driver.c ****     {
 953:Generated_Source\PSoC5/BCD_Driver.c ****         if(numberSign == BCD_Driver_SIGNED)
 954:Generated_Source\PSoC5/BCD_Driver.c ****         {
 955:Generated_Source\PSoC5/BCD_Driver.c ****             /* Place sign on the MSB */
 956:Generated_Source\PSoC5/BCD_Driver.c ****             bufArray[0u] = BCD_Driver_EncodeChar7Seg('-');
 957:Generated_Source\PSoC5/BCD_Driver.c ****         }
 958:Generated_Source\PSoC5/BCD_Driver.c ****     }
 959:Generated_Source\PSoC5/BCD_Driver.c ****     else
 960:Generated_Source\PSoC5/BCD_Driver.c ****     {
 961:Generated_Source\PSoC5/BCD_Driver.c ****         for(i = 0u; i < digits; i++)
 962:Generated_Source\PSoC5/BCD_Driver.c ****         {
 963:Generated_Source\PSoC5/BCD_Driver.c ****             if (bufArray[i] != BCD_Driver_ZERO_7CHAR)
 964:Generated_Source\PSoC5/BCD_Driver.c ****             {
 965:Generated_Source\PSoC5/BCD_Driver.c ****                 if(numberSign == BCD_Driver_SIGNED)
 966:Generated_Source\PSoC5/BCD_Driver.c ****                 {
 967:Generated_Source\PSoC5/BCD_Driver.c ****                     if(i == 0u)
 968:Generated_Source\PSoC5/BCD_Driver.c ****                     {
 969:Generated_Source\PSoC5/BCD_Driver.c ****                         /* Place sign on the MSB */
 970:Generated_Source\PSoC5/BCD_Driver.c ****                         bufArray[i] = BCD_Driver_EncodeChar7Seg('-');
 971:Generated_Source\PSoC5/BCD_Driver.c ****                     }
 972:Generated_Source\PSoC5/BCD_Driver.c ****                     else
 973:Generated_Source\PSoC5/BCD_Driver.c ****                     {
 974:Generated_Source\PSoC5/BCD_Driver.c ****                         /* Place sign before MSB */
 975:Generated_Source\PSoC5/BCD_Driver.c ****                         bufArray[i-1u] = BCD_Driver_EncodeChar7Seg('-');
 976:Generated_Source\PSoC5/BCD_Driver.c ****                     }
 977:Generated_Source\PSoC5/BCD_Driver.c ****                 }
 978:Generated_Source\PSoC5/BCD_Driver.c ****                 /* Exit when encountering non-zero number */
 979:Generated_Source\PSoC5/BCD_Driver.c ****                 break;
 980:Generated_Source\PSoC5/BCD_Driver.c ****             }
 981:Generated_Source\PSoC5/BCD_Driver.c ****             else
 982:Generated_Source\PSoC5/BCD_Driver.c ****             {
 983:Generated_Source\PSoC5/BCD_Driver.c ****                 if(zeroCount != (digits - 1u))
 984:Generated_Source\PSoC5/BCD_Driver.c ****                 {
 985:Generated_Source\PSoC5/BCD_Driver.c ****                     /* Turn off the display */
 986:Generated_Source\PSoC5/BCD_Driver.c ****                     bufArray[i] = BCD_Driver_CLEAR;
 987:Generated_Source\PSoC5/BCD_Driver.c ****                     zeroCount++;
 988:Generated_Source\PSoC5/BCD_Driver.c ****                 }
 989:Generated_Source\PSoC5/BCD_Driver.c ****             }    
 990:Generated_Source\PSoC5/BCD_Driver.c ****         }
 991:Generated_Source\PSoC5/BCD_Driver.c ****     }
 992:Generated_Source\PSoC5/BCD_Driver.c ****     
 993:Generated_Source\PSoC5/BCD_Driver.c ****     /* Place the values in the segment array according to alignment */
 994:Generated_Source\PSoC5/BCD_Driver.c ****     if(alignment == BCD_Driver_LEFT_ALIGN)
 995:Generated_Source\PSoC5/BCD_Driver.c ****     {
 996:Generated_Source\PSoC5/BCD_Driver.c ****         for(i = 0u; i < digits; i++)
 997:Generated_Source\PSoC5/BCD_Driver.c ****         {
 998:Generated_Source\PSoC5/BCD_Driver.c ****             if(bufArray[i] != BCD_Driver_CLEAR)
 999:Generated_Source\PSoC5/BCD_Driver.c ****             {
1000:Generated_Source\PSoC5/BCD_Driver.c ****                 if(relPosition < BCD_Driver_NUM_COM)
1001:Generated_Source\PSoC5/BCD_Driver.c ****                 {
1002:Generated_Source\PSoC5/BCD_Driver.c ****                     /* Only show displays that are not empty */
1003:Generated_Source\PSoC5/BCD_Driver.c ****                     switch(choiceReg)
1004:Generated_Source\PSoC5/BCD_Driver.c ****                     {
1005:Generated_Source\PSoC5/BCD_Driver.c ****                         case BCD_Driver_SEG_REG_LOW :
1006:Generated_Source\PSoC5/BCD_Driver.c ****                             BCD_Driver_segLBuffer[relPosition] = bufArray[i];
ARM GAS  C:\Users\mmoh0006\AppData\Local\Temp\cc2nB4gH.s 			page 33


1007:Generated_Source\PSoC5/BCD_Driver.c ****                             break;
1008:Generated_Source\PSoC5/BCD_Driver.c ****                         case BCD_Driver_SEG_REG_MID :
1009:Generated_Source\PSoC5/BCD_Driver.c ****                             #if (BCD_Driver_NUM_SEG > 8u)
1010:Generated_Source\PSoC5/BCD_Driver.c ****                                 BCD_Driver_segMBuffer[relPosition] = bufArray[i];
1011:Generated_Source\PSoC5/BCD_Driver.c ****                             #endif /* (BCD_Driver_NUM_SEG > 8u) */
1012:Generated_Source\PSoC5/BCD_Driver.c ****                             break;
1013:Generated_Source\PSoC5/BCD_Driver.c ****                         case BCD_Driver_SEG_REG_HIGH :
1014:Generated_Source\PSoC5/BCD_Driver.c ****                             #if (BCD_Driver_NUM_SEG > 16u)
1015:Generated_Source\PSoC5/BCD_Driver.c ****                                 BCD_Driver_segHBuffer[relPosition] = bufArray[i];
1016:Generated_Source\PSoC5/BCD_Driver.c ****                             #endif /* (BCD_Driver_NUM_SEG > 16u) */
1017:Generated_Source\PSoC5/BCD_Driver.c ****                             break;
1018:Generated_Source\PSoC5/BCD_Driver.c ****                         default :
1019:Generated_Source\PSoC5/BCD_Driver.c ****                             BCD_Driver_segLBuffer[relPosition] = bufArray[i];
1020:Generated_Source\PSoC5/BCD_Driver.c ****                             break;
1021:Generated_Source\PSoC5/BCD_Driver.c ****                     }
1022:Generated_Source\PSoC5/BCD_Driver.c ****                 }
1023:Generated_Source\PSoC5/BCD_Driver.c ****                 relPosition++;
1024:Generated_Source\PSoC5/BCD_Driver.c ****             }
1025:Generated_Source\PSoC5/BCD_Driver.c ****         }
1026:Generated_Source\PSoC5/BCD_Driver.c ****         /* Clear the rest of the positions to the right of value */
1027:Generated_Source\PSoC5/BCD_Driver.c ****         while(relPosition < digits)
1028:Generated_Source\PSoC5/BCD_Driver.c ****         {
1029:Generated_Source\PSoC5/BCD_Driver.c ****             switch(choiceReg)
1030:Generated_Source\PSoC5/BCD_Driver.c ****             {
1031:Generated_Source\PSoC5/BCD_Driver.c ****                 case BCD_Driver_SEG_REG_LOW :
1032:Generated_Source\PSoC5/BCD_Driver.c ****                     BCD_Driver_segLBuffer[relPosition] = BCD_Driver_CLEAR;
1033:Generated_Source\PSoC5/BCD_Driver.c ****                     break;
1034:Generated_Source\PSoC5/BCD_Driver.c ****                 case BCD_Driver_SEG_REG_MID :
1035:Generated_Source\PSoC5/BCD_Driver.c ****                     #if (BCD_Driver_NUM_SEG > 8u)
1036:Generated_Source\PSoC5/BCD_Driver.c ****                         BCD_Driver_segMBuffer[relPosition] = BCD_Driver_CLEAR;
1037:Generated_Source\PSoC5/BCD_Driver.c ****                     #endif /* (BCD_Driver_NUM_SEG > 8u) */
1038:Generated_Source\PSoC5/BCD_Driver.c ****                     break;
1039:Generated_Source\PSoC5/BCD_Driver.c ****                 case BCD_Driver_SEG_REG_HIGH :
1040:Generated_Source\PSoC5/BCD_Driver.c ****                     #if (BCD_Driver_NUM_SEG > 16u)
1041:Generated_Source\PSoC5/BCD_Driver.c ****                         BCD_Driver_segHBuffer[relPosition] = BCD_Driver_CLEAR;
1042:Generated_Source\PSoC5/BCD_Driver.c ****                     #endif /* (BCD_Driver_NUM_SEG > 16u) */
1043:Generated_Source\PSoC5/BCD_Driver.c ****                     break;
1044:Generated_Source\PSoC5/BCD_Driver.c ****                 default :
1045:Generated_Source\PSoC5/BCD_Driver.c ****                     BCD_Driver_segLBuffer[relPosition] = BCD_Driver_CLEAR;
1046:Generated_Source\PSoC5/BCD_Driver.c ****                     break;
1047:Generated_Source\PSoC5/BCD_Driver.c ****             }
1048:Generated_Source\PSoC5/BCD_Driver.c ****             relPosition++;
1049:Generated_Source\PSoC5/BCD_Driver.c ****         }
1050:Generated_Source\PSoC5/BCD_Driver.c ****     }
1051:Generated_Source\PSoC5/BCD_Driver.c ****     else
1052:Generated_Source\PSoC5/BCD_Driver.c ****     {
1053:Generated_Source\PSoC5/BCD_Driver.c ****         /* Alignment for Right and zero padded */
1054:Generated_Source\PSoC5/BCD_Driver.c ****         for(i = digits; i > 0u; i--)
1055:Generated_Source\PSoC5/BCD_Driver.c ****         {
1056:Generated_Source\PSoC5/BCD_Driver.c ****             if(((i + relPosition) - 1u) < BCD_Driver_NUM_COM)
1057:Generated_Source\PSoC5/BCD_Driver.c ****             {
1058:Generated_Source\PSoC5/BCD_Driver.c ****                 /* Decide which row to use */
1059:Generated_Source\PSoC5/BCD_Driver.c ****                 switch(choiceReg)
1060:Generated_Source\PSoC5/BCD_Driver.c ****                 {
1061:Generated_Source\PSoC5/BCD_Driver.c ****                     case BCD_Driver_SEG_REG_LOW :
1062:Generated_Source\PSoC5/BCD_Driver.c ****                         BCD_Driver_segLBuffer[(i + relPosition) - 1u] = bufArray[i-1u];
1063:Generated_Source\PSoC5/BCD_Driver.c ****                         break;
ARM GAS  C:\Users\mmoh0006\AppData\Local\Temp\cc2nB4gH.s 			page 34


1064:Generated_Source\PSoC5/BCD_Driver.c ****                     case BCD_Driver_SEG_REG_MID :
1065:Generated_Source\PSoC5/BCD_Driver.c ****                         #if (BCD_Driver_NUM_SEG > 8u)
1066:Generated_Source\PSoC5/BCD_Driver.c ****                             BCD_Driver_segMBuffer[(i + relPosition) - 1u] = bufArray[i-1u];
1067:Generated_Source\PSoC5/BCD_Driver.c ****                         #endif /* (BCD_Driver_NUM_SEG > 8u) */
1068:Generated_Source\PSoC5/BCD_Driver.c ****                         break;
1069:Generated_Source\PSoC5/BCD_Driver.c ****                     case BCD_Driver_SEG_REG_HIGH :
1070:Generated_Source\PSoC5/BCD_Driver.c ****                         #if (BCD_Driver_NUM_SEG > 16u)
1071:Generated_Source\PSoC5/BCD_Driver.c ****                             BCD_Driver_segHBuffer[(i + relPosition) - 1u] = bufArray[i-1u];
1072:Generated_Source\PSoC5/BCD_Driver.c ****                         #endif /* (BCD_Driver_NUM_SEG > 16u) */
1073:Generated_Source\PSoC5/BCD_Driver.c ****                         break;
1074:Generated_Source\PSoC5/BCD_Driver.c ****                     default :
1075:Generated_Source\PSoC5/BCD_Driver.c ****                         BCD_Driver_segLBuffer[(i + relPosition) - 1u] = bufArray[i-1u];
1076:Generated_Source\PSoC5/BCD_Driver.c ****                         break;
1077:Generated_Source\PSoC5/BCD_Driver.c ****                 }
1078:Generated_Source\PSoC5/BCD_Driver.c ****             }
1079:Generated_Source\PSoC5/BCD_Driver.c ****         }
1080:Generated_Source\PSoC5/BCD_Driver.c ****     }
1081:Generated_Source\PSoC5/BCD_Driver.c **** }
1082:Generated_Source\PSoC5/BCD_Driver.c **** 
1083:Generated_Source\PSoC5/BCD_Driver.c **** 
1084:Generated_Source\PSoC5/BCD_Driver.c **** /*******************************************************************************
1085:Generated_Source\PSoC5/BCD_Driver.c **** * Function Name: BCD_Driver_Write7SegNumberHex
1086:Generated_Source\PSoC5/BCD_Driver.c **** ********************************************************************************
1087:Generated_Source\PSoC5/BCD_Driver.c **** *
1088:Generated_Source\PSoC5/BCD_Driver.c **** * Summary:
1089:Generated_Source\PSoC5/BCD_Driver.c **** *  Displays a hexadecimal number up to 8 characters long, starting at 'position'
1090:Generated_Source\PSoC5/BCD_Driver.c **** *  and extending for 'digits' characters. If you do not use the correct number 
1091:Generated_Source\PSoC5/BCD_Driver.c **** *  of digits for your number, the least significant digits will be displayed. 
1092:Generated_Source\PSoC5/BCD_Driver.c **** *  For example, if value is 0xDEADBEEF, display is 0 and digits is 4, the result 
1093:Generated_Source\PSoC5/BCD_Driver.c **** *  will be: BEEF.
1094:Generated_Source\PSoC5/BCD_Driver.c **** *
1095:Generated_Source\PSoC5/BCD_Driver.c **** * Parameters:
1096:Generated_Source\PSoC5/BCD_Driver.c **** *  uint32 number: The hexadecimal number to display. It is the responsibility of
1097:Generated_Source\PSoC5/BCD_Driver.c **** *                 the user to ensure that the display has enough digits to 
1098:Generated_Source\PSoC5/BCD_Driver.c **** *                 accurately representthe number passed to this function. If 
1099:Generated_Source\PSoC5/BCD_Driver.c **** *                 not, the least significant digits will be displayed.
1100:Generated_Source\PSoC5/BCD_Driver.c **** *  uint8 position: Position of the Display/Common to start number.
1101:Generated_Source\PSoC5/BCD_Driver.c **** *  uint8 digits: The number of digits you wish to use to display the value 
1102:Generated_Source\PSoC5/BCD_Driver.c **** *                passed into the function. If you do not use the correct number 
1103:Generated_Source\PSoC5/BCD_Driver.c **** *                of digits for your number, the least significant digits will be
1104:Generated_Source\PSoC5/BCD_Driver.c **** *                displayed.
1105:Generated_Source\PSoC5/BCD_Driver.c **** *  uint8 alignment: How to align the provided number in the allocated digits.
1106:Generated_Source\PSoC5/BCD_Driver.c **** *       RIGHT_ALIGN - Least significant digit occupies the rightmost digit
1107:Generated_Source\PSoC5/BCD_Driver.c **** *                     (position + digits). Unused digits are turned off unless
1108:Generated_Source\PSoC5/BCD_Driver.c **** *                     ZERO_PAD enabled.
1109:Generated_Source\PSoC5/BCD_Driver.c **** *       LEFT_ALIGN - Most significant digit (or negative sign) occupies the
1110:Generated_Source\PSoC5/BCD_Driver.c **** *                    digit specified by position. Unused digits are turned off.
1111:Generated_Source\PSoC5/BCD_Driver.c **** *       ZERO_PAD - Unused digits to the left are padded with leading zeros.
1112:Generated_Source\PSoC5/BCD_Driver.c **** *
1113:Generated_Source\PSoC5/BCD_Driver.c **** * Return:
1114:Generated_Source\PSoC5/BCD_Driver.c **** *  None
1115:Generated_Source\PSoC5/BCD_Driver.c **** *
1116:Generated_Source\PSoC5/BCD_Driver.c **** * Side effects:
1117:Generated_Source\PSoC5/BCD_Driver.c **** *  None
1118:Generated_Source\PSoC5/BCD_Driver.c **** *
1119:Generated_Source\PSoC5/BCD_Driver.c **** *******************************************************************************/
1120:Generated_Source\PSoC5/BCD_Driver.c **** void BCD_Driver_Write7SegNumberHex(uint32 number, uint8 position, uint8 digits, uint8 alignment)
ARM GAS  C:\Users\mmoh0006\AppData\Local\Temp\cc2nB4gH.s 			page 35


1121:Generated_Source\PSoC5/BCD_Driver.c **** 
1122:Generated_Source\PSoC5/BCD_Driver.c **** {
1123:Generated_Source\PSoC5/BCD_Driver.c ****     uint8 i;
1124:Generated_Source\PSoC5/BCD_Driver.c ****     uint8 relPosition;
1125:Generated_Source\PSoC5/BCD_Driver.c ****     uint8 choiceReg;
1126:Generated_Source\PSoC5/BCD_Driver.c ****     uint8 selectVal;
1127:Generated_Source\PSoC5/BCD_Driver.c ****     uint8 zeroCount = 0u;
1128:Generated_Source\PSoC5/BCD_Driver.c ****     uint8 bufArray[8u] = {0u};
1129:Generated_Source\PSoC5/BCD_Driver.c ****     uint32 numberVal;
1130:Generated_Source\PSoC5/BCD_Driver.c ****         
1131:Generated_Source\PSoC5/BCD_Driver.c ****     numberVal = number;
1132:Generated_Source\PSoC5/BCD_Driver.c ****     
1133:Generated_Source\PSoC5/BCD_Driver.c ****     /* Choose to use either the low, mid or high control registers */
1134:Generated_Source\PSoC5/BCD_Driver.c ****     if(position < BCD_Driver_NUM_COM)
1135:Generated_Source\PSoC5/BCD_Driver.c ****     {
1136:Generated_Source\PSoC5/BCD_Driver.c ****         choiceReg = BCD_Driver_SEG_REG_LOW;
1137:Generated_Source\PSoC5/BCD_Driver.c ****         relPosition = position;
1138:Generated_Source\PSoC5/BCD_Driver.c ****     }
1139:Generated_Source\PSoC5/BCD_Driver.c ****     else if (position < BCD_Driver_TWO_NUM_COM)
1140:Generated_Source\PSoC5/BCD_Driver.c ****     {
1141:Generated_Source\PSoC5/BCD_Driver.c ****         choiceReg = BCD_Driver_SEG_REG_MID;
1142:Generated_Source\PSoC5/BCD_Driver.c ****         relPosition = position - BCD_Driver_NUM_COM;
1143:Generated_Source\PSoC5/BCD_Driver.c ****     }
1144:Generated_Source\PSoC5/BCD_Driver.c ****     else
1145:Generated_Source\PSoC5/BCD_Driver.c ****     {
1146:Generated_Source\PSoC5/BCD_Driver.c ****         choiceReg = BCD_Driver_SEG_REG_HIGH;
1147:Generated_Source\PSoC5/BCD_Driver.c ****         relPosition = position - BCD_Driver_TWO_NUM_COM;
1148:Generated_Source\PSoC5/BCD_Driver.c ****     }
1149:Generated_Source\PSoC5/BCD_Driver.c ****     
1150:Generated_Source\PSoC5/BCD_Driver.c ****     /* Fill up the temporary array */
1151:Generated_Source\PSoC5/BCD_Driver.c ****     for(i = digits; i > 0u; i--)
1152:Generated_Source\PSoC5/BCD_Driver.c ****     {
1153:Generated_Source\PSoC5/BCD_Driver.c ****         selectVal = (uint8)((uint8)numberVal & BCD_Driver_NIBBLE_MASK);
1154:Generated_Source\PSoC5/BCD_Driver.c ****         bufArray[i-1u] = BCD_Driver_EncodeNumber7Seg(selectVal);
1155:Generated_Source\PSoC5/BCD_Driver.c ****         numberVal = (uint32)((uint32)numberVal >> BCD_Driver_SHIFT_NIBBLE);
1156:Generated_Source\PSoC5/BCD_Driver.c ****     }
1157:Generated_Source\PSoC5/BCD_Driver.c ****     
1158:Generated_Source\PSoC5/BCD_Driver.c ****     /* Clean up the array */
1159:Generated_Source\PSoC5/BCD_Driver.c ****     if(alignment != BCD_Driver_ZERO_PAD)
1160:Generated_Source\PSoC5/BCD_Driver.c ****     {
1161:Generated_Source\PSoC5/BCD_Driver.c ****         for(i = 0u; i < digits; i++)
1162:Generated_Source\PSoC5/BCD_Driver.c ****         {
1163:Generated_Source\PSoC5/BCD_Driver.c ****             if (bufArray[i] != BCD_Driver_ZERO_7CHAR)
1164:Generated_Source\PSoC5/BCD_Driver.c ****             {
1165:Generated_Source\PSoC5/BCD_Driver.c ****                 /* Exit when encountering non-zero number */
1166:Generated_Source\PSoC5/BCD_Driver.c ****                 break;
1167:Generated_Source\PSoC5/BCD_Driver.c ****             }
1168:Generated_Source\PSoC5/BCD_Driver.c ****             else
1169:Generated_Source\PSoC5/BCD_Driver.c ****             {
1170:Generated_Source\PSoC5/BCD_Driver.c ****                 if(zeroCount != (digits - 1u))
1171:Generated_Source\PSoC5/BCD_Driver.c ****                 {
1172:Generated_Source\PSoC5/BCD_Driver.c ****                     /* Turn off the display */
1173:Generated_Source\PSoC5/BCD_Driver.c ****                     bufArray[i] = BCD_Driver_CLEAR;
1174:Generated_Source\PSoC5/BCD_Driver.c ****                     zeroCount++;
1175:Generated_Source\PSoC5/BCD_Driver.c ****                 }
1176:Generated_Source\PSoC5/BCD_Driver.c ****             }    
1177:Generated_Source\PSoC5/BCD_Driver.c ****         }
ARM GAS  C:\Users\mmoh0006\AppData\Local\Temp\cc2nB4gH.s 			page 36


1178:Generated_Source\PSoC5/BCD_Driver.c ****     }
1179:Generated_Source\PSoC5/BCD_Driver.c ****     
1180:Generated_Source\PSoC5/BCD_Driver.c ****     /* Place the values in the segment array according to alignment */
1181:Generated_Source\PSoC5/BCD_Driver.c ****     if(alignment == BCD_Driver_LEFT_ALIGN)
1182:Generated_Source\PSoC5/BCD_Driver.c ****     {
1183:Generated_Source\PSoC5/BCD_Driver.c ****         for(i = 0u; i < digits; i++)
1184:Generated_Source\PSoC5/BCD_Driver.c ****         {
1185:Generated_Source\PSoC5/BCD_Driver.c ****             if(bufArray[i] != BCD_Driver_CLEAR)
1186:Generated_Source\PSoC5/BCD_Driver.c ****             {
1187:Generated_Source\PSoC5/BCD_Driver.c ****                 if(relPosition < BCD_Driver_NUM_COM)
1188:Generated_Source\PSoC5/BCD_Driver.c ****                 {
1189:Generated_Source\PSoC5/BCD_Driver.c ****                     /* Only show displays that are not empty */
1190:Generated_Source\PSoC5/BCD_Driver.c ****                     switch(choiceReg)
1191:Generated_Source\PSoC5/BCD_Driver.c ****                     {
1192:Generated_Source\PSoC5/BCD_Driver.c ****                         case BCD_Driver_SEG_REG_LOW :
1193:Generated_Source\PSoC5/BCD_Driver.c ****                             BCD_Driver_segLBuffer[relPosition] = bufArray[i];
1194:Generated_Source\PSoC5/BCD_Driver.c ****                             break;
1195:Generated_Source\PSoC5/BCD_Driver.c ****                         case BCD_Driver_SEG_REG_MID :
1196:Generated_Source\PSoC5/BCD_Driver.c ****                             #if (BCD_Driver_NUM_SEG > 8u)
1197:Generated_Source\PSoC5/BCD_Driver.c ****                                 BCD_Driver_segMBuffer[relPosition] = bufArray[i];
1198:Generated_Source\PSoC5/BCD_Driver.c ****                             #endif /* (BCD_Driver_NUM_SEG > 8u) */
1199:Generated_Source\PSoC5/BCD_Driver.c ****                             break;
1200:Generated_Source\PSoC5/BCD_Driver.c ****                         case BCD_Driver_SEG_REG_HIGH :
1201:Generated_Source\PSoC5/BCD_Driver.c ****                             #if (BCD_Driver_NUM_SEG > 16u)
1202:Generated_Source\PSoC5/BCD_Driver.c ****                                 BCD_Driver_segHBuffer[relPosition] = bufArray[i];
1203:Generated_Source\PSoC5/BCD_Driver.c ****                             #endif /* (BCD_Driver_NUM_SEG > 16u) */
1204:Generated_Source\PSoC5/BCD_Driver.c ****                             break;
1205:Generated_Source\PSoC5/BCD_Driver.c ****                         default :
1206:Generated_Source\PSoC5/BCD_Driver.c ****                             BCD_Driver_segLBuffer[relPosition] = bufArray[i];
1207:Generated_Source\PSoC5/BCD_Driver.c ****                             break;
1208:Generated_Source\PSoC5/BCD_Driver.c ****                     }
1209:Generated_Source\PSoC5/BCD_Driver.c ****                 }
1210:Generated_Source\PSoC5/BCD_Driver.c ****                 relPosition++;
1211:Generated_Source\PSoC5/BCD_Driver.c ****             }
1212:Generated_Source\PSoC5/BCD_Driver.c ****         }
1213:Generated_Source\PSoC5/BCD_Driver.c ****         /* Clear the rest of the positions to the right of value */
1214:Generated_Source\PSoC5/BCD_Driver.c ****         while(relPosition < digits)
1215:Generated_Source\PSoC5/BCD_Driver.c ****         {
1216:Generated_Source\PSoC5/BCD_Driver.c ****             switch(choiceReg)
1217:Generated_Source\PSoC5/BCD_Driver.c ****             {
1218:Generated_Source\PSoC5/BCD_Driver.c ****                 case BCD_Driver_SEG_REG_LOW :
1219:Generated_Source\PSoC5/BCD_Driver.c ****                     BCD_Driver_segLBuffer[relPosition] = BCD_Driver_CLEAR;
1220:Generated_Source\PSoC5/BCD_Driver.c ****                     break;
1221:Generated_Source\PSoC5/BCD_Driver.c ****                 case BCD_Driver_SEG_REG_MID :
1222:Generated_Source\PSoC5/BCD_Driver.c ****                     #if (BCD_Driver_NUM_SEG > 8u)
1223:Generated_Source\PSoC5/BCD_Driver.c ****                         BCD_Driver_segMBuffer[relPosition] = BCD_Driver_CLEAR;
1224:Generated_Source\PSoC5/BCD_Driver.c ****                     #endif /* (BCD_Driver_NUM_SEG > 8u) */
1225:Generated_Source\PSoC5/BCD_Driver.c ****                     break;
1226:Generated_Source\PSoC5/BCD_Driver.c ****                 case BCD_Driver_SEG_REG_HIGH :
1227:Generated_Source\PSoC5/BCD_Driver.c ****                     #if (BCD_Driver_NUM_SEG > 16u)
1228:Generated_Source\PSoC5/BCD_Driver.c ****                         BCD_Driver_segHBuffer[relPosition] = BCD_Driver_CLEAR;
1229:Generated_Source\PSoC5/BCD_Driver.c ****                     #endif /* (BCD_Driver_NUM_SEG > 16u) */
1230:Generated_Source\PSoC5/BCD_Driver.c ****                     break;
1231:Generated_Source\PSoC5/BCD_Driver.c ****                 default :
1232:Generated_Source\PSoC5/BCD_Driver.c ****                     BCD_Driver_segLBuffer[relPosition] = BCD_Driver_CLEAR;
1233:Generated_Source\PSoC5/BCD_Driver.c ****                     break;
1234:Generated_Source\PSoC5/BCD_Driver.c ****             }
ARM GAS  C:\Users\mmoh0006\AppData\Local\Temp\cc2nB4gH.s 			page 37


1235:Generated_Source\PSoC5/BCD_Driver.c ****             relPosition++;
1236:Generated_Source\PSoC5/BCD_Driver.c ****         }
1237:Generated_Source\PSoC5/BCD_Driver.c ****     }
1238:Generated_Source\PSoC5/BCD_Driver.c ****     else
1239:Generated_Source\PSoC5/BCD_Driver.c ****     {
1240:Generated_Source\PSoC5/BCD_Driver.c ****         /* Alignment for right and zero padded */
1241:Generated_Source\PSoC5/BCD_Driver.c ****         for(i = digits; i > 0u; i--)
1242:Generated_Source\PSoC5/BCD_Driver.c ****         {
1243:Generated_Source\PSoC5/BCD_Driver.c ****             if(((i + relPosition) - 1u) < BCD_Driver_NUM_COM)
1244:Generated_Source\PSoC5/BCD_Driver.c ****             {
1245:Generated_Source\PSoC5/BCD_Driver.c ****                 /* Decide which row to use */
1246:Generated_Source\PSoC5/BCD_Driver.c ****                 switch(choiceReg)
1247:Generated_Source\PSoC5/BCD_Driver.c ****                 {
1248:Generated_Source\PSoC5/BCD_Driver.c ****                     case BCD_Driver_SEG_REG_LOW :
1249:Generated_Source\PSoC5/BCD_Driver.c ****                         BCD_Driver_segLBuffer[(i + relPosition) - 1u] = bufArray[i-1u];
1250:Generated_Source\PSoC5/BCD_Driver.c ****                         break;
1251:Generated_Source\PSoC5/BCD_Driver.c ****                     case BCD_Driver_SEG_REG_MID :
1252:Generated_Source\PSoC5/BCD_Driver.c ****                         #if (BCD_Driver_NUM_SEG > 8u)
1253:Generated_Source\PSoC5/BCD_Driver.c ****                             BCD_Driver_segMBuffer[(i + relPosition) - 1u] = bufArray[i-1u];
1254:Generated_Source\PSoC5/BCD_Driver.c ****                         #endif /* (BCD_Driver_NUM_SEG > 8u) */
1255:Generated_Source\PSoC5/BCD_Driver.c ****                         break;
1256:Generated_Source\PSoC5/BCD_Driver.c ****                     case BCD_Driver_SEG_REG_HIGH :
1257:Generated_Source\PSoC5/BCD_Driver.c ****                         #if (BCD_Driver_NUM_SEG > 16u)
1258:Generated_Source\PSoC5/BCD_Driver.c ****                             BCD_Driver_segHBuffer[(i + relPosition) - 1u] = bufArray[i-1u];
1259:Generated_Source\PSoC5/BCD_Driver.c ****                         #endif /* (BCD_Driver_NUM_SEG > 16u) */
1260:Generated_Source\PSoC5/BCD_Driver.c ****                         break;
1261:Generated_Source\PSoC5/BCD_Driver.c ****                     default :
1262:Generated_Source\PSoC5/BCD_Driver.c ****                         BCD_Driver_segLBuffer[(i + relPosition) - 1u] = bufArray[i-1u];
1263:Generated_Source\PSoC5/BCD_Driver.c ****                         break;
1264:Generated_Source\PSoC5/BCD_Driver.c ****                 }
1265:Generated_Source\PSoC5/BCD_Driver.c ****             }
1266:Generated_Source\PSoC5/BCD_Driver.c ****         }
1267:Generated_Source\PSoC5/BCD_Driver.c ****     }
1268:Generated_Source\PSoC5/BCD_Driver.c **** }
1269:Generated_Source\PSoC5/BCD_Driver.c **** 
1270:Generated_Source\PSoC5/BCD_Driver.c **** 
1271:Generated_Source\PSoC5/BCD_Driver.c **** /*******************************************************************************
1272:Generated_Source\PSoC5/BCD_Driver.c **** * Function Name: BCD_Driver_WriteString7Seg
1273:Generated_Source\PSoC5/BCD_Driver.c **** ********************************************************************************
1274:Generated_Source\PSoC5/BCD_Driver.c **** *
1275:Generated_Source\PSoC5/BCD_Driver.c **** * Summary:
1276:Generated_Source\PSoC5/BCD_Driver.c **** *  Displays a null terminated string starting at 'position' and ending at either
1277:Generated_Source\PSoC5/BCD_Driver.c **** *  at the end the string or the end of the display. The displayable characters 
1278:Generated_Source\PSoC5/BCD_Driver.c **** *  are the same for the LED_Driver_PutChar7Seg() function. Non-displayable
1279:Generated_Source\PSoC5/BCD_Driver.c **** *  characters will produce a blank space.
1280:Generated_Source\PSoC5/BCD_Driver.c **** *
1281:Generated_Source\PSoC5/BCD_Driver.c **** * Parameters:
1282:Generated_Source\PSoC5/BCD_Driver.c **** *  char8 const character[]: The null terminated string to be displayed.
1283:Generated_Source\PSoC5/BCD_Driver.c **** *  uint8 position: The position to start the string.
1284:Generated_Source\PSoC5/BCD_Driver.c **** *
1285:Generated_Source\PSoC5/BCD_Driver.c **** * Return:
1286:Generated_Source\PSoC5/BCD_Driver.c **** *  None
1287:Generated_Source\PSoC5/BCD_Driver.c **** *
1288:Generated_Source\PSoC5/BCD_Driver.c **** * Side effects:
1289:Generated_Source\PSoC5/BCD_Driver.c **** *  None
1290:Generated_Source\PSoC5/BCD_Driver.c **** *
1291:Generated_Source\PSoC5/BCD_Driver.c **** *******************************************************************************/
ARM GAS  C:\Users\mmoh0006\AppData\Local\Temp\cc2nB4gH.s 			page 38


1292:Generated_Source\PSoC5/BCD_Driver.c **** void BCD_Driver_WriteString7Seg(char8 const character[], uint8 position)
1293:Generated_Source\PSoC5/BCD_Driver.c **** 
1294:Generated_Source\PSoC5/BCD_Driver.c **** {
1295:Generated_Source\PSoC5/BCD_Driver.c ****     uint8 relPosition;
1296:Generated_Source\PSoC5/BCD_Driver.c ****     uint8 sizeLimit;
1297:Generated_Source\PSoC5/BCD_Driver.c ****     uint8 i = 0u;
1298:Generated_Source\PSoC5/BCD_Driver.c ****     
1299:Generated_Source\PSoC5/BCD_Driver.c ****     if(position < BCD_Driver_NUM_COM)
1300:Generated_Source\PSoC5/BCD_Driver.c ****     {
1301:Generated_Source\PSoC5/BCD_Driver.c ****         sizeLimit = (uint8)(strlen(character)) + position;
1302:Generated_Source\PSoC5/BCD_Driver.c ****         for(relPosition = position; relPosition < BCD_Driver_NUM_COM; relPosition++)
1303:Generated_Source\PSoC5/BCD_Driver.c ****         {
1304:Generated_Source\PSoC5/BCD_Driver.c ****             if(relPosition < sizeLimit)
1305:Generated_Source\PSoC5/BCD_Driver.c ****             {
1306:Generated_Source\PSoC5/BCD_Driver.c ****                 BCD_Driver_segLBuffer[relPosition] = BCD_Driver_EncodeChar7Seg(character[i]);
1307:Generated_Source\PSoC5/BCD_Driver.c ****                 i++;
1308:Generated_Source\PSoC5/BCD_Driver.c ****             }
1309:Generated_Source\PSoC5/BCD_Driver.c ****         }
1310:Generated_Source\PSoC5/BCD_Driver.c ****     }    
1311:Generated_Source\PSoC5/BCD_Driver.c ****     else if (position < BCD_Driver_TWO_NUM_COM)
1312:Generated_Source\PSoC5/BCD_Driver.c ****     {
1313:Generated_Source\PSoC5/BCD_Driver.c ****         #if (BCD_Driver_NUM_SEG > 8u) 
1314:Generated_Source\PSoC5/BCD_Driver.c ****             sizeLimit = ((uint8)(strlen(character)) + position) - BCD_Driver_NUM_COM;
1315:Generated_Source\PSoC5/BCD_Driver.c ****             for(relPosition = position - BCD_Driver_NUM_COM;
1316:Generated_Source\PSoC5/BCD_Driver.c ****                 relPosition < BCD_Driver_NUM_COM; 
1317:Generated_Source\PSoC5/BCD_Driver.c ****                 relPosition++)
1318:Generated_Source\PSoC5/BCD_Driver.c ****             {
1319:Generated_Source\PSoC5/BCD_Driver.c ****                 if(relPosition < sizeLimit)
1320:Generated_Source\PSoC5/BCD_Driver.c ****                 {
1321:Generated_Source\PSoC5/BCD_Driver.c ****                     BCD_Driver_segMBuffer[relPosition] = BCD_Driver_EncodeChar7Seg(character[i]);
1322:Generated_Source\PSoC5/BCD_Driver.c ****                     i++;
1323:Generated_Source\PSoC5/BCD_Driver.c ****                 }
1324:Generated_Source\PSoC5/BCD_Driver.c ****             }
1325:Generated_Source\PSoC5/BCD_Driver.c ****         #endif /* (BCD_Driver_NUM_SEG > 8u) */
1326:Generated_Source\PSoC5/BCD_Driver.c ****     }
1327:Generated_Source\PSoC5/BCD_Driver.c ****     else
1328:Generated_Source\PSoC5/BCD_Driver.c ****     {
1329:Generated_Source\PSoC5/BCD_Driver.c ****         #if (BCD_Driver_NUM_SEG > 16u)
1330:Generated_Source\PSoC5/BCD_Driver.c ****             sizeLimit = ((uint8)(strlen(character)) + position) - BCD_Driver_TWO_NUM_COM;
1331:Generated_Source\PSoC5/BCD_Driver.c ****             for(relPosition = position - BCD_Driver_TWO_NUM_COM;
1332:Generated_Source\PSoC5/BCD_Driver.c ****                 relPosition < BCD_Driver_NUM_COM; 
1333:Generated_Source\PSoC5/BCD_Driver.c ****                 relPosition++)
1334:Generated_Source\PSoC5/BCD_Driver.c ****             {
1335:Generated_Source\PSoC5/BCD_Driver.c ****                 if(relPosition < sizeLimit)
1336:Generated_Source\PSoC5/BCD_Driver.c ****                 {
1337:Generated_Source\PSoC5/BCD_Driver.c ****                     BCD_Driver_segHBuffer[relPosition] = BCD_Driver_EncodeChar7Seg(character[i]);
1338:Generated_Source\PSoC5/BCD_Driver.c ****                     i++;
1339:Generated_Source\PSoC5/BCD_Driver.c ****                 }    
1340:Generated_Source\PSoC5/BCD_Driver.c ****             }
1341:Generated_Source\PSoC5/BCD_Driver.c ****         #endif /* (BCD_Driver_NUM_SEG > 16u) */
1342:Generated_Source\PSoC5/BCD_Driver.c ****     }
1343:Generated_Source\PSoC5/BCD_Driver.c **** }
1344:Generated_Source\PSoC5/BCD_Driver.c **** 
1345:Generated_Source\PSoC5/BCD_Driver.c **** 
1346:Generated_Source\PSoC5/BCD_Driver.c **** /*******************************************************************************
1347:Generated_Source\PSoC5/BCD_Driver.c **** * Function Name: BCD_Driver_PutChar7Seg
1348:Generated_Source\PSoC5/BCD_Driver.c **** ********************************************************************************
ARM GAS  C:\Users\mmoh0006\AppData\Local\Temp\cc2nB4gH.s 			page 39


1349:Generated_Source\PSoC5/BCD_Driver.c **** *
1350:Generated_Source\PSoC5/BCD_Driver.c **** * Summary:
1351:Generated_Source\PSoC5/BCD_Driver.c **** *  Displays an ascii encoded character at 'position'. This function can display 
1352:Generated_Source\PSoC5/BCD_Driver.c **** *  all alphanumeric characters. The function can also display '-', '.', '_', 
1353:Generated_Source\PSoC5/BCD_Driver.c **** *  ' ', and '='. All unknown characters are displayed as a space.
1354:Generated_Source\PSoC5/BCD_Driver.c **** *
1355:Generated_Source\PSoC5/BCD_Driver.c **** * Parameters:
1356:Generated_Source\PSoC5/BCD_Driver.c **** *  char8 character: ASCII character.
1357:Generated_Source\PSoC5/BCD_Driver.c **** *  uint8 position: The position of the character.
1358:Generated_Source\PSoC5/BCD_Driver.c **** *
1359:Generated_Source\PSoC5/BCD_Driver.c **** * Return:
1360:Generated_Source\PSoC5/BCD_Driver.c **** *  None
1361:Generated_Source\PSoC5/BCD_Driver.c **** *
1362:Generated_Source\PSoC5/BCD_Driver.c **** * Side effects:
1363:Generated_Source\PSoC5/BCD_Driver.c **** *  None
1364:Generated_Source\PSoC5/BCD_Driver.c **** *
1365:Generated_Source\PSoC5/BCD_Driver.c **** *******************************************************************************/
1366:Generated_Source\PSoC5/BCD_Driver.c **** void BCD_Driver_PutChar7Seg(char8 character , uint8 position)
1367:Generated_Source\PSoC5/BCD_Driver.c **** 
1368:Generated_Source\PSoC5/BCD_Driver.c **** {
1369:Generated_Source\PSoC5/BCD_Driver.c ****     uint8 relPosition;
1370:Generated_Source\PSoC5/BCD_Driver.c ****     
1371:Generated_Source\PSoC5/BCD_Driver.c ****     if(position < BCD_Driver_NUM_COM)
1372:Generated_Source\PSoC5/BCD_Driver.c ****     {
1373:Generated_Source\PSoC5/BCD_Driver.c ****         relPosition = position;
1374:Generated_Source\PSoC5/BCD_Driver.c ****         BCD_Driver_segLBuffer[relPosition] = BCD_Driver_EncodeChar7Seg(character);
1375:Generated_Source\PSoC5/BCD_Driver.c ****     }    
1376:Generated_Source\PSoC5/BCD_Driver.c ****     else if (position < BCD_Driver_TWO_NUM_COM)
1377:Generated_Source\PSoC5/BCD_Driver.c ****     {
1378:Generated_Source\PSoC5/BCD_Driver.c ****         #if (BCD_Driver_NUM_SEG > 8u) 
1379:Generated_Source\PSoC5/BCD_Driver.c ****             relPosition = position - BCD_Driver_NUM_COM;
1380:Generated_Source\PSoC5/BCD_Driver.c ****             BCD_Driver_segMBuffer[relPosition] = BCD_Driver_EncodeChar7Seg(character);
1381:Generated_Source\PSoC5/BCD_Driver.c ****         #endif /* (BCD_Driver_NUM_SEG > 8u) */
1382:Generated_Source\PSoC5/BCD_Driver.c ****     }
1383:Generated_Source\PSoC5/BCD_Driver.c ****     else
1384:Generated_Source\PSoC5/BCD_Driver.c ****     {
1385:Generated_Source\PSoC5/BCD_Driver.c ****         #if (BCD_Driver_NUM_SEG > 16u)
1386:Generated_Source\PSoC5/BCD_Driver.c ****             relPosition = position - BCD_Driver_TWO_NUM_COM;
1387:Generated_Source\PSoC5/BCD_Driver.c ****             if(relPosition < BCD_Driver_NUM_COM)
1388:Generated_Source\PSoC5/BCD_Driver.c ****             {
1389:Generated_Source\PSoC5/BCD_Driver.c ****                 BCD_Driver_segHBuffer[relPosition] = BCD_Driver_EncodeChar7Seg(character);
1390:Generated_Source\PSoC5/BCD_Driver.c ****             }
1391:Generated_Source\PSoC5/BCD_Driver.c ****         #endif /* (BCD_Driver_NUM_SEG > 16u) */
1392:Generated_Source\PSoC5/BCD_Driver.c ****     }
1393:Generated_Source\PSoC5/BCD_Driver.c **** }
1394:Generated_Source\PSoC5/BCD_Driver.c **** 
1395:Generated_Source\PSoC5/BCD_Driver.c **** 
1396:Generated_Source\PSoC5/BCD_Driver.c **** /*******************************************************************************
1397:Generated_Source\PSoC5/BCD_Driver.c **** * Function Name: BCD_Driver_Write7SegDigitDec
1398:Generated_Source\PSoC5/BCD_Driver.c **** ********************************************************************************
1399:Generated_Source\PSoC5/BCD_Driver.c **** *
1400:Generated_Source\PSoC5/BCD_Driver.c **** * Summary:
1401:Generated_Source\PSoC5/BCD_Driver.c **** *  Displays a single digit on the specified display. The number in 'digit' 
1402:Generated_Source\PSoC5/BCD_Driver.c **** *  (0-9) is placed on 'position.'
1403:Generated_Source\PSoC5/BCD_Driver.c **** *
1404:Generated_Source\PSoC5/BCD_Driver.c **** * Parameters:
1405:Generated_Source\PSoC5/BCD_Driver.c **** *  uint8 digit: A number between 0 and 9 to display.
ARM GAS  C:\Users\mmoh0006\AppData\Local\Temp\cc2nB4gH.s 			page 40


1406:Generated_Source\PSoC5/BCD_Driver.c **** *  uint8 position: Position of the display in which to place the number.
1407:Generated_Source\PSoC5/BCD_Driver.c **** *
1408:Generated_Source\PSoC5/BCD_Driver.c **** * Return:
1409:Generated_Source\PSoC5/BCD_Driver.c **** *  None
1410:Generated_Source\PSoC5/BCD_Driver.c **** *
1411:Generated_Source\PSoC5/BCD_Driver.c **** * Side effects:
1412:Generated_Source\PSoC5/BCD_Driver.c **** *  None
1413:Generated_Source\PSoC5/BCD_Driver.c **** *
1414:Generated_Source\PSoC5/BCD_Driver.c **** *******************************************************************************/
1415:Generated_Source\PSoC5/BCD_Driver.c **** void BCD_Driver_Write7SegDigitDec(uint8 digit, uint8 position)
1416:Generated_Source\PSoC5/BCD_Driver.c **** 
1417:Generated_Source\PSoC5/BCD_Driver.c **** {
1418:Generated_Source\PSoC5/BCD_Driver.c ****     uint8 relPosition;
1419:Generated_Source\PSoC5/BCD_Driver.c ****     
1420:Generated_Source\PSoC5/BCD_Driver.c ****     /* Only display numerical values */
1421:Generated_Source\PSoC5/BCD_Driver.c ****     if (digit < 10u)
1422:Generated_Source\PSoC5/BCD_Driver.c ****     {
1423:Generated_Source\PSoC5/BCD_Driver.c ****         if(position < BCD_Driver_NUM_COM)
1424:Generated_Source\PSoC5/BCD_Driver.c ****         {
1425:Generated_Source\PSoC5/BCD_Driver.c ****             relPosition = position;
1426:Generated_Source\PSoC5/BCD_Driver.c ****             BCD_Driver_segLBuffer[relPosition] = BCD_Driver_EncodeNumber7Seg(digit);
1427:Generated_Source\PSoC5/BCD_Driver.c ****         }    
1428:Generated_Source\PSoC5/BCD_Driver.c ****         else if (position < BCD_Driver_TWO_NUM_COM)
1429:Generated_Source\PSoC5/BCD_Driver.c ****         {
1430:Generated_Source\PSoC5/BCD_Driver.c ****             #if (BCD_Driver_NUM_SEG > 8u)
1431:Generated_Source\PSoC5/BCD_Driver.c ****                 relPosition = position - BCD_Driver_NUM_COM;
1432:Generated_Source\PSoC5/BCD_Driver.c ****                 BCD_Driver_segMBuffer[relPosition] = BCD_Driver_EncodeNumber7Seg(digit);
1433:Generated_Source\PSoC5/BCD_Driver.c ****             #endif /* (BCD_Driver_NUM_SEG > 8u) */
1434:Generated_Source\PSoC5/BCD_Driver.c ****         } 
1435:Generated_Source\PSoC5/BCD_Driver.c ****         else
1436:Generated_Source\PSoC5/BCD_Driver.c ****         {
1437:Generated_Source\PSoC5/BCD_Driver.c ****             #if (BCD_Driver_NUM_SEG > 16u)
1438:Generated_Source\PSoC5/BCD_Driver.c ****                 relPosition = position - BCD_Driver_TWO_NUM_COM;
1439:Generated_Source\PSoC5/BCD_Driver.c ****                 if(relPosition < BCD_Driver_TWO_NUM_COM)
1440:Generated_Source\PSoC5/BCD_Driver.c ****                 {
1441:Generated_Source\PSoC5/BCD_Driver.c ****                     BCD_Driver_segHBuffer[relPosition] = BCD_Driver_EncodeNumber7Seg(digit);
1442:Generated_Source\PSoC5/BCD_Driver.c ****                 }
1443:Generated_Source\PSoC5/BCD_Driver.c ****             #endif /* (BCD_Driver_NUM_SEG > 16u) */
1444:Generated_Source\PSoC5/BCD_Driver.c ****         }
1445:Generated_Source\PSoC5/BCD_Driver.c ****     }
1446:Generated_Source\PSoC5/BCD_Driver.c **** }
1447:Generated_Source\PSoC5/BCD_Driver.c **** 
1448:Generated_Source\PSoC5/BCD_Driver.c **** 
1449:Generated_Source\PSoC5/BCD_Driver.c **** /*******************************************************************************
1450:Generated_Source\PSoC5/BCD_Driver.c **** * Function Name: BCD_Driver_Write7SegDigitHex
1451:Generated_Source\PSoC5/BCD_Driver.c **** ********************************************************************************
1452:Generated_Source\PSoC5/BCD_Driver.c **** *
1453:Generated_Source\PSoC5/BCD_Driver.c **** * Summary:
1454:Generated_Source\PSoC5/BCD_Driver.c **** *  Displays a single digit at the specified position. The number in 'digit' 
1455:Generated_Source\PSoC5/BCD_Driver.c **** *  (0-F) is placed on 'position'.
1456:Generated_Source\PSoC5/BCD_Driver.c **** *
1457:Generated_Source\PSoC5/BCD_Driver.c **** * Parameters:
1458:Generated_Source\PSoC5/BCD_Driver.c **** *  uint8 digit: A number between 0x0 and 0xF (0 to 15)
1459:Generated_Source\PSoC5/BCD_Driver.c **** *  uint8 position: The position in which to place the number.
1460:Generated_Source\PSoC5/BCD_Driver.c **** *
1461:Generated_Source\PSoC5/BCD_Driver.c **** * Return:
1462:Generated_Source\PSoC5/BCD_Driver.c **** *  None
ARM GAS  C:\Users\mmoh0006\AppData\Local\Temp\cc2nB4gH.s 			page 41


1463:Generated_Source\PSoC5/BCD_Driver.c **** *
1464:Generated_Source\PSoC5/BCD_Driver.c **** * Side effects:
1465:Generated_Source\PSoC5/BCD_Driver.c **** *  None
1466:Generated_Source\PSoC5/BCD_Driver.c **** *
1467:Generated_Source\PSoC5/BCD_Driver.c **** *******************************************************************************/
1468:Generated_Source\PSoC5/BCD_Driver.c **** void BCD_Driver_Write7SegDigitHex(uint8 digit, uint8 position)
1469:Generated_Source\PSoC5/BCD_Driver.c **** 
1470:Generated_Source\PSoC5/BCD_Driver.c **** {
1471:Generated_Source\PSoC5/BCD_Driver.c ****     uint8 relPosition;
1472:Generated_Source\PSoC5/BCD_Driver.c ****     
1473:Generated_Source\PSoC5/BCD_Driver.c ****     if(position < BCD_Driver_NUM_COM)
1474:Generated_Source\PSoC5/BCD_Driver.c ****     {
1475:Generated_Source\PSoC5/BCD_Driver.c ****         relPosition = position;
1476:Generated_Source\PSoC5/BCD_Driver.c ****         BCD_Driver_segLBuffer[relPosition] = BCD_Driver_EncodeNumber7Seg(digit);
1477:Generated_Source\PSoC5/BCD_Driver.c ****     }    
1478:Generated_Source\PSoC5/BCD_Driver.c ****     else if (position < BCD_Driver_TWO_NUM_COM)
1479:Generated_Source\PSoC5/BCD_Driver.c ****     {
1480:Generated_Source\PSoC5/BCD_Driver.c ****         #if (BCD_Driver_NUM_SEG > 8u) 
1481:Generated_Source\PSoC5/BCD_Driver.c ****             relPosition = position - BCD_Driver_NUM_COM;
1482:Generated_Source\PSoC5/BCD_Driver.c ****             BCD_Driver_segMBuffer[relPosition] = BCD_Driver_EncodeNumber7Seg(digit);
1483:Generated_Source\PSoC5/BCD_Driver.c ****         #endif /* (BCD_Driver_NUM_SEG > 8u) */
1484:Generated_Source\PSoC5/BCD_Driver.c ****     }
1485:Generated_Source\PSoC5/BCD_Driver.c ****     else
1486:Generated_Source\PSoC5/BCD_Driver.c ****     {
1487:Generated_Source\PSoC5/BCD_Driver.c ****         #if (BCD_Driver_NUM_SEG > 16u)
1488:Generated_Source\PSoC5/BCD_Driver.c ****             relPosition = position - BCD_Driver_TWO_NUM_COM;
1489:Generated_Source\PSoC5/BCD_Driver.c ****             if(relPosition < BCD_Driver_NUM_COM)
1490:Generated_Source\PSoC5/BCD_Driver.c ****             {
1491:Generated_Source\PSoC5/BCD_Driver.c ****                 BCD_Driver_segHBuffer[relPosition] = BCD_Driver_EncodeNumber7Seg(digit);
1492:Generated_Source\PSoC5/BCD_Driver.c ****             }
1493:Generated_Source\PSoC5/BCD_Driver.c ****         #endif /* (BCD_Driver_NUM_SEG > 16u) */
1494:Generated_Source\PSoC5/BCD_Driver.c ****     }
1495:Generated_Source\PSoC5/BCD_Driver.c **** }
1496:Generated_Source\PSoC5/BCD_Driver.c **** 
1497:Generated_Source\PSoC5/BCD_Driver.c **** 
1498:Generated_Source\PSoC5/BCD_Driver.c **** /*******************************************************************************
1499:Generated_Source\PSoC5/BCD_Driver.c **** * Function Name: BCD_Driver_Write14SegNumberDec
1500:Generated_Source\PSoC5/BCD_Driver.c **** ********************************************************************************
1501:Generated_Source\PSoC5/BCD_Driver.c **** *
1502:Generated_Source\PSoC5/BCD_Driver.c **** * Summary:
1503:Generated_Source\PSoC5/BCD_Driver.c **** *  Displays a signed integer up to 8 characters long, starting at 'position' and
1504:Generated_Source\PSoC5/BCD_Driver.c **** *  extending for 'digits' characters. The negative sign will take an extra digit
1505:Generated_Source\PSoC5/BCD_Driver.c **** *  if it is required. If you do not use the correct number of digits for your 
1506:Generated_Source\PSoC5/BCD_Driver.c **** *  number, only the least significant digits will be displayed.
1507:Generated_Source\PSoC5/BCD_Driver.c **** *
1508:Generated_Source\PSoC5/BCD_Driver.c **** * Parameters:
1509:Generated_Source\PSoC5/BCD_Driver.c **** *  int32 number: a signed integer number to display. It is the responsibility 
1510:Generated_Source\PSoC5/BCD_Driver.c **** *                of the user to ensure that the display has enough digits to 
1511:Generated_Source\PSoC5/BCD_Driver.c **** *                accurately represent the number passed to this function. Note 
1512:Generated_Source\PSoC5/BCD_Driver.c **** *                that a negative number will require 1 more digit than the 
1513:Generated_Source\PSoC5/BCD_Driver.c **** *                equivalent positive number to display the negative sign.
1514:Generated_Source\PSoC5/BCD_Driver.c **** *  uint8 position: Digit position of the Display/Common RAM to start.
1515:Generated_Source\PSoC5/BCD_Driver.c **** *  uint8 digits: The number of digits you wish to use to display the value 
1516:Generated_Source\PSoC5/BCD_Driver.c **** *                passed into the function. The negative sign will take an extra
1517:Generated_Source\PSoC5/BCD_Driver.c **** *                digit if it is required.
1518:Generated_Source\PSoC5/BCD_Driver.c **** *  uint8 alignment: How to align the provided number in the allocated digits.
1519:Generated_Source\PSoC5/BCD_Driver.c **** *       RIGHT_ALIGN - Least significant digit occupies the rightmost digit
ARM GAS  C:\Users\mmoh0006\AppData\Local\Temp\cc2nB4gH.s 			page 42


1520:Generated_Source\PSoC5/BCD_Driver.c **** *                     (position + digits). Unused digits are turned off unless
1521:Generated_Source\PSoC5/BCD_Driver.c **** *                     ZERO_PAD enabled.
1522:Generated_Source\PSoC5/BCD_Driver.c **** *       LEFT_ALIGN - Most significant digit (or negative sign) occupies the
1523:Generated_Source\PSoC5/BCD_Driver.c **** *                    digit specified by position. Unused digits are turned off.
1524:Generated_Source\PSoC5/BCD_Driver.c **** *       ZERO_PAD - Unused digits to the left are padded with leading zeros.
1525:Generated_Source\PSoC5/BCD_Driver.c **** * Return:
1526:Generated_Source\PSoC5/BCD_Driver.c **** *  None
1527:Generated_Source\PSoC5/BCD_Driver.c **** *
1528:Generated_Source\PSoC5/BCD_Driver.c **** * Side effects:
1529:Generated_Source\PSoC5/BCD_Driver.c **** *  None
1530:Generated_Source\PSoC5/BCD_Driver.c **** *
1531:Generated_Source\PSoC5/BCD_Driver.c **** *******************************************************************************/
1532:Generated_Source\PSoC5/BCD_Driver.c **** void BCD_Driver_Write14SegNumberDec(int32 number, uint8 position, uint8 digits, uint8 alignment)
1533:Generated_Source\PSoC5/BCD_Driver.c **** 
1534:Generated_Source\PSoC5/BCD_Driver.c **** {
1535:Generated_Source\PSoC5/BCD_Driver.c ****     uint8 i;
1536:Generated_Source\PSoC5/BCD_Driver.c ****     uint8 relPosition;
1537:Generated_Source\PSoC5/BCD_Driver.c ****     uint8 numberSign;
1538:Generated_Source\PSoC5/BCD_Driver.c ****     uint8 selectVal;
1539:Generated_Source\PSoC5/BCD_Driver.c ****     uint8 zeroCount = 0u;
1540:Generated_Source\PSoC5/BCD_Driver.c ****     uint16 bufArray[8u] = {0u};
1541:Generated_Source\PSoC5/BCD_Driver.c ****     uint32 numberVal;
1542:Generated_Source\PSoC5/BCD_Driver.c ****         
1543:Generated_Source\PSoC5/BCD_Driver.c ****     /* Routine to extract the sign and to convert to unsigned */
1544:Generated_Source\PSoC5/BCD_Driver.c ****     if(number >= BCD_Driver_ZERO_NEG)
1545:Generated_Source\PSoC5/BCD_Driver.c ****     {
1546:Generated_Source\PSoC5/BCD_Driver.c ****         numberVal = (uint32)number;
1547:Generated_Source\PSoC5/BCD_Driver.c ****         numberSign = BCD_Driver_UNSIGNED;
1548:Generated_Source\PSoC5/BCD_Driver.c ****     }
1549:Generated_Source\PSoC5/BCD_Driver.c ****     else
1550:Generated_Source\PSoC5/BCD_Driver.c ****     {
1551:Generated_Source\PSoC5/BCD_Driver.c ****         numberVal = (uint32)(-number);
1552:Generated_Source\PSoC5/BCD_Driver.c ****         numberSign = BCD_Driver_SIGNED;
1553:Generated_Source\PSoC5/BCD_Driver.c ****     }
1554:Generated_Source\PSoC5/BCD_Driver.c ****     
1555:Generated_Source\PSoC5/BCD_Driver.c ****     /* Fill up the temporary array */
1556:Generated_Source\PSoC5/BCD_Driver.c ****     for(i = digits; i > 0u; i--)
1557:Generated_Source\PSoC5/BCD_Driver.c ****     {
1558:Generated_Source\PSoC5/BCD_Driver.c ****         selectVal = (uint8)(numberVal % 10u);
1559:Generated_Source\PSoC5/BCD_Driver.c ****         bufArray[i-1u] = BCD_Driver_EncodeNumber14Seg(selectVal);
1560:Generated_Source\PSoC5/BCD_Driver.c ****         numberVal = numberVal / 10u;
1561:Generated_Source\PSoC5/BCD_Driver.c ****     }
1562:Generated_Source\PSoC5/BCD_Driver.c ****     
1563:Generated_Source\PSoC5/BCD_Driver.c ****     /* Clean up the array and place sign if needed */
1564:Generated_Source\PSoC5/BCD_Driver.c ****     if(alignment == BCD_Driver_ZERO_PAD)
1565:Generated_Source\PSoC5/BCD_Driver.c ****     {
1566:Generated_Source\PSoC5/BCD_Driver.c ****         if(numberSign == BCD_Driver_SIGNED)
1567:Generated_Source\PSoC5/BCD_Driver.c ****         {
1568:Generated_Source\PSoC5/BCD_Driver.c ****             /* Place sign on the MSB */
1569:Generated_Source\PSoC5/BCD_Driver.c ****             bufArray[0u] = BCD_Driver_EncodeChar14Seg('-');
1570:Generated_Source\PSoC5/BCD_Driver.c ****         }
1571:Generated_Source\PSoC5/BCD_Driver.c ****     }
1572:Generated_Source\PSoC5/BCD_Driver.c ****     else
1573:Generated_Source\PSoC5/BCD_Driver.c ****     {
1574:Generated_Source\PSoC5/BCD_Driver.c ****         for(i = 0u; i < digits; i++)
1575:Generated_Source\PSoC5/BCD_Driver.c ****         {
1576:Generated_Source\PSoC5/BCD_Driver.c ****             if (bufArray[i] != BCD_Driver_ZERO_14CHAR)
ARM GAS  C:\Users\mmoh0006\AppData\Local\Temp\cc2nB4gH.s 			page 43


1577:Generated_Source\PSoC5/BCD_Driver.c ****             {
1578:Generated_Source\PSoC5/BCD_Driver.c ****                 if(numberSign == BCD_Driver_SIGNED)
1579:Generated_Source\PSoC5/BCD_Driver.c ****                 {
1580:Generated_Source\PSoC5/BCD_Driver.c ****                     if(i == 0u)
1581:Generated_Source\PSoC5/BCD_Driver.c ****                     {
1582:Generated_Source\PSoC5/BCD_Driver.c ****                         /* Place sign on the MSB */
1583:Generated_Source\PSoC5/BCD_Driver.c ****                         bufArray[i] = BCD_Driver_EncodeChar14Seg('-');
1584:Generated_Source\PSoC5/BCD_Driver.c ****                     }
1585:Generated_Source\PSoC5/BCD_Driver.c ****                     else
1586:Generated_Source\PSoC5/BCD_Driver.c ****                     {
1587:Generated_Source\PSoC5/BCD_Driver.c ****                         /* Place sign before MSB */
1588:Generated_Source\PSoC5/BCD_Driver.c ****                         bufArray[i-1u] = BCD_Driver_EncodeChar14Seg('-');
1589:Generated_Source\PSoC5/BCD_Driver.c ****                     }
1590:Generated_Source\PSoC5/BCD_Driver.c ****                 }
1591:Generated_Source\PSoC5/BCD_Driver.c ****                 /* Exit when encountering non-zero number */
1592:Generated_Source\PSoC5/BCD_Driver.c ****                 break;
1593:Generated_Source\PSoC5/BCD_Driver.c ****             }
1594:Generated_Source\PSoC5/BCD_Driver.c ****             else
1595:Generated_Source\PSoC5/BCD_Driver.c ****             {
1596:Generated_Source\PSoC5/BCD_Driver.c ****                 if(zeroCount != (digits - 1u))
1597:Generated_Source\PSoC5/BCD_Driver.c ****                 {
1598:Generated_Source\PSoC5/BCD_Driver.c ****                     /* Turn off the display */
1599:Generated_Source\PSoC5/BCD_Driver.c ****                     bufArray[i] = BCD_Driver_CLEAR_16;
1600:Generated_Source\PSoC5/BCD_Driver.c ****                     zeroCount++;
1601:Generated_Source\PSoC5/BCD_Driver.c ****                 }
1602:Generated_Source\PSoC5/BCD_Driver.c ****             }    
1603:Generated_Source\PSoC5/BCD_Driver.c ****         }
1604:Generated_Source\PSoC5/BCD_Driver.c ****     }
1605:Generated_Source\PSoC5/BCD_Driver.c ****     
1606:Generated_Source\PSoC5/BCD_Driver.c ****     relPosition = position;
1607:Generated_Source\PSoC5/BCD_Driver.c ****     
1608:Generated_Source\PSoC5/BCD_Driver.c ****     /* Place the values in the segment array according to alignment */
1609:Generated_Source\PSoC5/BCD_Driver.c ****     if(alignment == BCD_Driver_LEFT_ALIGN)
1610:Generated_Source\PSoC5/BCD_Driver.c ****     {
1611:Generated_Source\PSoC5/BCD_Driver.c ****         for(i = 0u; i < digits; i++)
1612:Generated_Source\PSoC5/BCD_Driver.c ****         {
1613:Generated_Source\PSoC5/BCD_Driver.c ****             if(bufArray[i] != BCD_Driver_CLEAR_16)
1614:Generated_Source\PSoC5/BCD_Driver.c ****             {
1615:Generated_Source\PSoC5/BCD_Driver.c ****                 if(relPosition < BCD_Driver_NUM_COM)
1616:Generated_Source\PSoC5/BCD_Driver.c ****                 {
1617:Generated_Source\PSoC5/BCD_Driver.c ****                     /* Only show displays that are not empty */
1618:Generated_Source\PSoC5/BCD_Driver.c ****                     BCD_Driver_segLBuffer[relPosition] = LO8(bufArray[i]);
1619:Generated_Source\PSoC5/BCD_Driver.c ****                 #if (BCD_Driver_NUM_SEG > 8u)
1620:Generated_Source\PSoC5/BCD_Driver.c ****                     BCD_Driver_segMBuffer[relPosition] = HI8(bufArray[i]);
1621:Generated_Source\PSoC5/BCD_Driver.c ****                 #endif /* (BCD_Driver_NUM_SEG > 8u) */
1622:Generated_Source\PSoC5/BCD_Driver.c ****                 }
1623:Generated_Source\PSoC5/BCD_Driver.c ****                 relPosition++;
1624:Generated_Source\PSoC5/BCD_Driver.c ****             }
1625:Generated_Source\PSoC5/BCD_Driver.c ****         }
1626:Generated_Source\PSoC5/BCD_Driver.c ****         /* Clear the rest of the positions to the right of value */
1627:Generated_Source\PSoC5/BCD_Driver.c ****         while(relPosition < digits)
1628:Generated_Source\PSoC5/BCD_Driver.c ****         {
1629:Generated_Source\PSoC5/BCD_Driver.c ****             /* Only show displays that are not empty */
1630:Generated_Source\PSoC5/BCD_Driver.c ****             BCD_Driver_segLBuffer[relPosition] = BCD_Driver_CLEAR;
1631:Generated_Source\PSoC5/BCD_Driver.c ****             #if (BCD_Driver_NUM_SEG > 8u)
1632:Generated_Source\PSoC5/BCD_Driver.c ****                 BCD_Driver_segMBuffer[relPosition] = BCD_Driver_CLEAR;
1633:Generated_Source\PSoC5/BCD_Driver.c ****             #endif /* (BCD_Driver_NUM_SEG > 8u) */
ARM GAS  C:\Users\mmoh0006\AppData\Local\Temp\cc2nB4gH.s 			page 44


1634:Generated_Source\PSoC5/BCD_Driver.c ****             
1635:Generated_Source\PSoC5/BCD_Driver.c ****             relPosition++;
1636:Generated_Source\PSoC5/BCD_Driver.c ****         }
1637:Generated_Source\PSoC5/BCD_Driver.c ****     }
1638:Generated_Source\PSoC5/BCD_Driver.c ****     else
1639:Generated_Source\PSoC5/BCD_Driver.c ****     {
1640:Generated_Source\PSoC5/BCD_Driver.c ****         for(i = digits; i > 0u; i--)
1641:Generated_Source\PSoC5/BCD_Driver.c ****         {
1642:Generated_Source\PSoC5/BCD_Driver.c ****             if(((i + relPosition) - 1u) < BCD_Driver_NUM_COM)
1643:Generated_Source\PSoC5/BCD_Driver.c ****             {
1644:Generated_Source\PSoC5/BCD_Driver.c ****                 BCD_Driver_segLBuffer[(i + relPosition) - 1u] = LO8(bufArray[i-1u]);
1645:Generated_Source\PSoC5/BCD_Driver.c ****             #if (BCD_Driver_NUM_SEG > 8u)
1646:Generated_Source\PSoC5/BCD_Driver.c ****                 BCD_Driver_segMBuffer[(i + relPosition) - 1u] = HI8(bufArray[i-1u]);
1647:Generated_Source\PSoC5/BCD_Driver.c ****             #endif /* (BCD_Driver_NUM_SEG > 8u) */
1648:Generated_Source\PSoC5/BCD_Driver.c ****             }
1649:Generated_Source\PSoC5/BCD_Driver.c ****         }  
1650:Generated_Source\PSoC5/BCD_Driver.c ****     }
1651:Generated_Source\PSoC5/BCD_Driver.c **** }
1652:Generated_Source\PSoC5/BCD_Driver.c **** 
1653:Generated_Source\PSoC5/BCD_Driver.c **** 
1654:Generated_Source\PSoC5/BCD_Driver.c **** /*******************************************************************************
1655:Generated_Source\PSoC5/BCD_Driver.c **** * Function Name: BCD_Driver_Write14SegNumberHex
1656:Generated_Source\PSoC5/BCD_Driver.c **** ********************************************************************************
1657:Generated_Source\PSoC5/BCD_Driver.c **** *
1658:Generated_Source\PSoC5/BCD_Driver.c **** * Summary:
1659:Generated_Source\PSoC5/BCD_Driver.c **** *  Displays a hexadecimal number up to 8 characters long, starting at 'position'
1660:Generated_Source\PSoC5/BCD_Driver.c **** *  and extending for 'digits' characters. If you do not use the correct number
1661:Generated_Source\PSoC5/BCD_Driver.c **** *  of digits for your number, the least significant digits will be displayed. 
1662:Generated_Source\PSoC5/BCD_Driver.c **** *  For example, if value is 0xDEADBEEF, display is 0 and digits is 4, the result
1663:Generated_Source\PSoC5/BCD_Driver.c **** *  will be: BEEF.
1664:Generated_Source\PSoC5/BCD_Driver.c **** *
1665:Generated_Source\PSoC5/BCD_Driver.c **** * Parameters:
1666:Generated_Source\PSoC5/BCD_Driver.c **** *  uint32 number: The hexadecimal number to display. It is the responsibility 
1667:Generated_Source\PSoC5/BCD_Driver.c **** *                 of the user to ensure that the display has enough digits to 
1668:Generated_Source\PSoC5/BCD_Driver.c **** *                 accurately represent the number passed to this function. If 
1669:Generated_Source\PSoC5/BCD_Driver.c **** *                 not, only the least significant digits will be displayed.
1670:Generated_Source\PSoC5/BCD_Driver.c **** *  uint8 position: Position of the Display/Common to start number.
1671:Generated_Source\PSoC5/BCD_Driver.c **** *  uint8 digits: The number of digits you wish to use to display the value 
1672:Generated_Source\PSoC5/BCD_Driver.c **** *                passed into the function. If you do not use the correct number
1673:Generated_Source\PSoC5/BCD_Driver.c **** *                of digits for your number, the least significant digits will 
1674:Generated_Source\PSoC5/BCD_Driver.c **** *                be displayed.
1675:Generated_Source\PSoC5/BCD_Driver.c **** *  uint8 alignment: How to align the provided number in the allocated digits.
1676:Generated_Source\PSoC5/BCD_Driver.c **** *       RIGHT_ALIGN - Least significant digit occupies the rightmost digit
1677:Generated_Source\PSoC5/BCD_Driver.c **** *                     (position + digits). Unused digits are turned off unless
1678:Generated_Source\PSoC5/BCD_Driver.c **** *                     ZERO_PAD enabled.
1679:Generated_Source\PSoC5/BCD_Driver.c **** *       LEFT_ALIGN - Most significant digit (or negative sign) occupies the
1680:Generated_Source\PSoC5/BCD_Driver.c **** *                    digit specified by position. Unused digits are turned off.
1681:Generated_Source\PSoC5/BCD_Driver.c **** *       ZERO_PAD - Unused digits to the left are padded with leading zeros.
1682:Generated_Source\PSoC5/BCD_Driver.c **** * Return:
1683:Generated_Source\PSoC5/BCD_Driver.c **** *  None
1684:Generated_Source\PSoC5/BCD_Driver.c **** *
1685:Generated_Source\PSoC5/BCD_Driver.c **** * Side effects:
1686:Generated_Source\PSoC5/BCD_Driver.c **** *  None
1687:Generated_Source\PSoC5/BCD_Driver.c **** *
1688:Generated_Source\PSoC5/BCD_Driver.c **** *******************************************************************************/
1689:Generated_Source\PSoC5/BCD_Driver.c **** void BCD_Driver_Write14SegNumberHex(uint32 number, uint8 position, uint8 digits, uint8 alignment)
1690:Generated_Source\PSoC5/BCD_Driver.c **** 
ARM GAS  C:\Users\mmoh0006\AppData\Local\Temp\cc2nB4gH.s 			page 45


1691:Generated_Source\PSoC5/BCD_Driver.c **** {
1692:Generated_Source\PSoC5/BCD_Driver.c ****     uint8 i;
1693:Generated_Source\PSoC5/BCD_Driver.c ****     uint8 relPosition;
1694:Generated_Source\PSoC5/BCD_Driver.c ****     uint8 selectVal;
1695:Generated_Source\PSoC5/BCD_Driver.c ****     uint16 bufArray[8u] = {0u};
1696:Generated_Source\PSoC5/BCD_Driver.c ****     uint32 numberVal;
1697:Generated_Source\PSoC5/BCD_Driver.c ****     
1698:Generated_Source\PSoC5/BCD_Driver.c ****     numberVal = number;
1699:Generated_Source\PSoC5/BCD_Driver.c ****     
1700:Generated_Source\PSoC5/BCD_Driver.c ****     /* Fill up the temporary array */
1701:Generated_Source\PSoC5/BCD_Driver.c ****     for(i = digits; i > 0u; i--)
1702:Generated_Source\PSoC5/BCD_Driver.c ****     {
1703:Generated_Source\PSoC5/BCD_Driver.c ****         selectVal = (uint8)((uint8)numberVal & BCD_Driver_NIBBLE_MASK);
1704:Generated_Source\PSoC5/BCD_Driver.c ****         bufArray[i-1u] = BCD_Driver_EncodeNumber14Seg(selectVal);
1705:Generated_Source\PSoC5/BCD_Driver.c ****         numberVal = (uint32)((uint32)numberVal >> BCD_Driver_SHIFT_NIBBLE);
1706:Generated_Source\PSoC5/BCD_Driver.c ****     }
1707:Generated_Source\PSoC5/BCD_Driver.c ****     
1708:Generated_Source\PSoC5/BCD_Driver.c ****     /* Clean up the array */
1709:Generated_Source\PSoC5/BCD_Driver.c ****     for(i = 0u; i < digits; i++)
1710:Generated_Source\PSoC5/BCD_Driver.c ****     {
1711:Generated_Source\PSoC5/BCD_Driver.c ****         if (bufArray[i] != BCD_Driver_ZERO_14CHAR)
1712:Generated_Source\PSoC5/BCD_Driver.c ****         {
1713:Generated_Source\PSoC5/BCD_Driver.c ****             /* Exit when encountering non-zero number */
1714:Generated_Source\PSoC5/BCD_Driver.c ****             break;
1715:Generated_Source\PSoC5/BCD_Driver.c ****         }
1716:Generated_Source\PSoC5/BCD_Driver.c ****         else
1717:Generated_Source\PSoC5/BCD_Driver.c ****         {
1718:Generated_Source\PSoC5/BCD_Driver.c ****             /* Turn off the display */
1719:Generated_Source\PSoC5/BCD_Driver.c ****             bufArray[i] = BCD_Driver_CLEAR_16;
1720:Generated_Source\PSoC5/BCD_Driver.c ****         }    
1721:Generated_Source\PSoC5/BCD_Driver.c ****     }
1722:Generated_Source\PSoC5/BCD_Driver.c ****     
1723:Generated_Source\PSoC5/BCD_Driver.c ****     relPosition = position;
1724:Generated_Source\PSoC5/BCD_Driver.c ****     
1725:Generated_Source\PSoC5/BCD_Driver.c ****     /* Place the values in the segment array according to alignment */
1726:Generated_Source\PSoC5/BCD_Driver.c ****     if(alignment == BCD_Driver_LEFT_ALIGN)
1727:Generated_Source\PSoC5/BCD_Driver.c ****     {
1728:Generated_Source\PSoC5/BCD_Driver.c ****         for(i = 0u; i < digits; i++)
1729:Generated_Source\PSoC5/BCD_Driver.c ****         {
1730:Generated_Source\PSoC5/BCD_Driver.c ****             if(bufArray[i] != BCD_Driver_CLEAR_16)
1731:Generated_Source\PSoC5/BCD_Driver.c ****             {
1732:Generated_Source\PSoC5/BCD_Driver.c ****                 if(relPosition < BCD_Driver_NUM_COM)
1733:Generated_Source\PSoC5/BCD_Driver.c ****                 {
1734:Generated_Source\PSoC5/BCD_Driver.c ****                     /* Only show displays that are not empty */
1735:Generated_Source\PSoC5/BCD_Driver.c ****                     BCD_Driver_segLBuffer[relPosition] = LO8(bufArray[i]);
1736:Generated_Source\PSoC5/BCD_Driver.c ****                 #if (BCD_Driver_NUM_SEG > 8u)
1737:Generated_Source\PSoC5/BCD_Driver.c ****                     BCD_Driver_segMBuffer[relPosition] = HI8(bufArray[i]);
1738:Generated_Source\PSoC5/BCD_Driver.c ****                 #endif /* (BCD_Driver_NUM_SEG > 8u) */
1739:Generated_Source\PSoC5/BCD_Driver.c ****                 }
1740:Generated_Source\PSoC5/BCD_Driver.c ****                 relPosition++;
1741:Generated_Source\PSoC5/BCD_Driver.c ****             }
1742:Generated_Source\PSoC5/BCD_Driver.c ****         }
1743:Generated_Source\PSoC5/BCD_Driver.c ****         /* Clear the rest of the positions to the right of value */
1744:Generated_Source\PSoC5/BCD_Driver.c ****         while(relPosition < digits)
1745:Generated_Source\PSoC5/BCD_Driver.c ****         {
1746:Generated_Source\PSoC5/BCD_Driver.c ****             /* Only show displays that are not empty */
1747:Generated_Source\PSoC5/BCD_Driver.c ****             BCD_Driver_segLBuffer[relPosition] = BCD_Driver_CLEAR;
ARM GAS  C:\Users\mmoh0006\AppData\Local\Temp\cc2nB4gH.s 			page 46


1748:Generated_Source\PSoC5/BCD_Driver.c ****             #if (BCD_Driver_NUM_SEG > 8u)
1749:Generated_Source\PSoC5/BCD_Driver.c ****                 BCD_Driver_segMBuffer[relPosition] = BCD_Driver_CLEAR;
1750:Generated_Source\PSoC5/BCD_Driver.c ****             #endif /* (BCD_Driver_NUM_SEG > 8u) */
1751:Generated_Source\PSoC5/BCD_Driver.c ****             
1752:Generated_Source\PSoC5/BCD_Driver.c ****             relPosition++;
1753:Generated_Source\PSoC5/BCD_Driver.c ****         }
1754:Generated_Source\PSoC5/BCD_Driver.c ****     }
1755:Generated_Source\PSoC5/BCD_Driver.c ****     else
1756:Generated_Source\PSoC5/BCD_Driver.c ****     {
1757:Generated_Source\PSoC5/BCD_Driver.c ****         for(i = digits; i > 0u; i--)
1758:Generated_Source\PSoC5/BCD_Driver.c ****         {
1759:Generated_Source\PSoC5/BCD_Driver.c ****             if(((i + relPosition) - 1u) < BCD_Driver_NUM_COM)
1760:Generated_Source\PSoC5/BCD_Driver.c ****             {
1761:Generated_Source\PSoC5/BCD_Driver.c ****                 BCD_Driver_segLBuffer[(i + relPosition) - 1u] = LO8(bufArray[i-1u]);
1762:Generated_Source\PSoC5/BCD_Driver.c ****             #if (BCD_Driver_NUM_SEG > 8u)
1763:Generated_Source\PSoC5/BCD_Driver.c ****                 BCD_Driver_segMBuffer[(i + relPosition) - 1u] = HI8(bufArray[i-1u]);
1764:Generated_Source\PSoC5/BCD_Driver.c ****             #endif /* (BCD_Driver_NUM_SEG > 8u) */
1765:Generated_Source\PSoC5/BCD_Driver.c ****             }
1766:Generated_Source\PSoC5/BCD_Driver.c ****         }  
1767:Generated_Source\PSoC5/BCD_Driver.c ****     }
1768:Generated_Source\PSoC5/BCD_Driver.c **** }
1769:Generated_Source\PSoC5/BCD_Driver.c **** 
1770:Generated_Source\PSoC5/BCD_Driver.c **** 
1771:Generated_Source\PSoC5/BCD_Driver.c **** /*******************************************************************************
1772:Generated_Source\PSoC5/BCD_Driver.c **** * Function Name: BCD_Driver_WriteString14Seg
1773:Generated_Source\PSoC5/BCD_Driver.c **** ********************************************************************************
1774:Generated_Source\PSoC5/BCD_Driver.c **** *
1775:Generated_Source\PSoC5/BCD_Driver.c **** * Summary:
1776:Generated_Source\PSoC5/BCD_Driver.c **** *  Displays a null terminated string starting at 'position' and ending at 
1777:Generated_Source\PSoC5/BCD_Driver.c **** *  either the  the string or the  the display. The displayable 
1778:Generated_Source\PSoC5/BCD_Driver.c **** *  characters are the same for the LED_Driver_PutCharacter() function. 
1779:Generated_Source\PSoC5/BCD_Driver.c **** *  Non-displayable characters will produce a blank space.
1780:Generated_Source\PSoC5/BCD_Driver.c **** *
1781:Generated_Source\PSoC5/BCD_Driver.c **** * Parameters:
1782:Generated_Source\PSoC5/BCD_Driver.c **** *  char8 const character[]: The null terminated string to be displayed.
1783:Generated_Source\PSoC5/BCD_Driver.c **** *  uint8 position: The position to start the string.
1784:Generated_Source\PSoC5/BCD_Driver.c **** *
1785:Generated_Source\PSoC5/BCD_Driver.c **** * Return:
1786:Generated_Source\PSoC5/BCD_Driver.c **** *  None
1787:Generated_Source\PSoC5/BCD_Driver.c **** *
1788:Generated_Source\PSoC5/BCD_Driver.c **** * Side effects:
1789:Generated_Source\PSoC5/BCD_Driver.c **** *  None
1790:Generated_Source\PSoC5/BCD_Driver.c **** *
1791:Generated_Source\PSoC5/BCD_Driver.c **** *******************************************************************************/
1792:Generated_Source\PSoC5/BCD_Driver.c **** void BCD_Driver_WriteString14Seg(char8 const character[], uint8 position)
1793:Generated_Source\PSoC5/BCD_Driver.c **** 
1794:Generated_Source\PSoC5/BCD_Driver.c **** {
1795:Generated_Source\PSoC5/BCD_Driver.c ****     uint8 currPosition;
1796:Generated_Source\PSoC5/BCD_Driver.c ****     uint8 sizeLimit;
1797:Generated_Source\PSoC5/BCD_Driver.c ****     uint8 i = 0u;
1798:Generated_Source\PSoC5/BCD_Driver.c ****     uint16 charDisplay;
1799:Generated_Source\PSoC5/BCD_Driver.c ****     
1800:Generated_Source\PSoC5/BCD_Driver.c ****     sizeLimit = (uint8)(strlen(character)) + position;
1801:Generated_Source\PSoC5/BCD_Driver.c ****     
1802:Generated_Source\PSoC5/BCD_Driver.c ****     for(currPosition = position; currPosition < BCD_Driver_NUM_COM; currPosition++)
1803:Generated_Source\PSoC5/BCD_Driver.c ****     {
1804:Generated_Source\PSoC5/BCD_Driver.c ****         if(currPosition < sizeLimit)
ARM GAS  C:\Users\mmoh0006\AppData\Local\Temp\cc2nB4gH.s 			page 47


1805:Generated_Source\PSoC5/BCD_Driver.c ****         {
1806:Generated_Source\PSoC5/BCD_Driver.c ****             charDisplay = BCD_Driver_EncodeChar14Seg(character[i]);
1807:Generated_Source\PSoC5/BCD_Driver.c ****             BCD_Driver_segLBuffer[currPosition] = LO8(charDisplay);
1808:Generated_Source\PSoC5/BCD_Driver.c ****             #if (BCD_Driver_NUM_SEG > 8u)
1809:Generated_Source\PSoC5/BCD_Driver.c ****             BCD_Driver_segMBuffer[currPosition] = HI8(charDisplay);
1810:Generated_Source\PSoC5/BCD_Driver.c ****             #endif /* (BCD_Driver_NUM_SEG > 8u) */
1811:Generated_Source\PSoC5/BCD_Driver.c ****             i++;
1812:Generated_Source\PSoC5/BCD_Driver.c ****         }
1813:Generated_Source\PSoC5/BCD_Driver.c ****     }
1814:Generated_Source\PSoC5/BCD_Driver.c **** }
1815:Generated_Source\PSoC5/BCD_Driver.c **** 
1816:Generated_Source\PSoC5/BCD_Driver.c **** 
1817:Generated_Source\PSoC5/BCD_Driver.c **** /*******************************************************************************
1818:Generated_Source\PSoC5/BCD_Driver.c **** * Function Name: BCD_Driver_PutChar14Seg
1819:Generated_Source\PSoC5/BCD_Driver.c **** ********************************************************************************
1820:Generated_Source\PSoC5/BCD_Driver.c **** *
1821:Generated_Source\PSoC5/BCD_Driver.c **** * Summary:
1822:Generated_Source\PSoC5/BCD_Driver.c **** *  Displays an ascii encoded character at 'position'. This function can display
1823:Generated_Source\PSoC5/BCD_Driver.c **** *  all alphanumeric characters. The function can also display '-', '.', '_', 
1824:Generated_Source\PSoC5/BCD_Driver.c **** *  ' ', and '='. All unknown characters are displayed as a space.
1825:Generated_Source\PSoC5/BCD_Driver.c **** *
1826:Generated_Source\PSoC5/BCD_Driver.c **** * Parameters:
1827:Generated_Source\PSoC5/BCD_Driver.c **** *  char8 character: ASCII character.
1828:Generated_Source\PSoC5/BCD_Driver.c **** *  uint8 position: The position of the character.
1829:Generated_Source\PSoC5/BCD_Driver.c **** *
1830:Generated_Source\PSoC5/BCD_Driver.c **** * Return:
1831:Generated_Source\PSoC5/BCD_Driver.c **** *  None
1832:Generated_Source\PSoC5/BCD_Driver.c **** *
1833:Generated_Source\PSoC5/BCD_Driver.c **** * Side effects:
1834:Generated_Source\PSoC5/BCD_Driver.c **** *  None
1835:Generated_Source\PSoC5/BCD_Driver.c **** *
1836:Generated_Source\PSoC5/BCD_Driver.c **** *******************************************************************************/
1837:Generated_Source\PSoC5/BCD_Driver.c **** void BCD_Driver_PutChar14Seg(char8 character , uint8 position)
1838:Generated_Source\PSoC5/BCD_Driver.c **** 
1839:Generated_Source\PSoC5/BCD_Driver.c **** {
1840:Generated_Source\PSoC5/BCD_Driver.c ****     uint16 charDisplay;
1841:Generated_Source\PSoC5/BCD_Driver.c ****     
1842:Generated_Source\PSoC5/BCD_Driver.c ****     if(position < BCD_Driver_NUM_COM)
1843:Generated_Source\PSoC5/BCD_Driver.c ****     {
1844:Generated_Source\PSoC5/BCD_Driver.c ****         charDisplay = BCD_Driver_EncodeChar14Seg(character);
1845:Generated_Source\PSoC5/BCD_Driver.c ****         BCD_Driver_segLBuffer[position] = LO8(charDisplay);
1846:Generated_Source\PSoC5/BCD_Driver.c ****     #if (BCD_Driver_NUM_SEG > 8u)
1847:Generated_Source\PSoC5/BCD_Driver.c ****         BCD_Driver_segMBuffer[position] = HI8(charDisplay);
1848:Generated_Source\PSoC5/BCD_Driver.c ****     #endif /* (BCD_Driver_NUM_SEG > 8u) */
1849:Generated_Source\PSoC5/BCD_Driver.c ****     }
1850:Generated_Source\PSoC5/BCD_Driver.c **** }
1851:Generated_Source\PSoC5/BCD_Driver.c **** 
1852:Generated_Source\PSoC5/BCD_Driver.c **** 
1853:Generated_Source\PSoC5/BCD_Driver.c **** /*******************************************************************************
1854:Generated_Source\PSoC5/BCD_Driver.c **** * Function Name: BCD_Driver_Write14SegDigitDec
1855:Generated_Source\PSoC5/BCD_Driver.c **** ********************************************************************************
1856:Generated_Source\PSoC5/BCD_Driver.c **** *
1857:Generated_Source\PSoC5/BCD_Driver.c **** * Summary:
1858:Generated_Source\PSoC5/BCD_Driver.c **** *  Displays a single digit on the specified display. The number in 'digit' 
1859:Generated_Source\PSoC5/BCD_Driver.c **** *  (0-9) is placed on 'position'.
1860:Generated_Source\PSoC5/BCD_Driver.c **** *
1861:Generated_Source\PSoC5/BCD_Driver.c **** * Parameters:
ARM GAS  C:\Users\mmoh0006\AppData\Local\Temp\cc2nB4gH.s 			page 48


1862:Generated_Source\PSoC5/BCD_Driver.c **** *  uint8 digit: A number between 0 and 9 to display.
1863:Generated_Source\PSoC5/BCD_Driver.c **** *  uint8 position: Position of the display in which to place the number.
1864:Generated_Source\PSoC5/BCD_Driver.c **** *
1865:Generated_Source\PSoC5/BCD_Driver.c **** * Return:
1866:Generated_Source\PSoC5/BCD_Driver.c **** *  None
1867:Generated_Source\PSoC5/BCD_Driver.c **** *
1868:Generated_Source\PSoC5/BCD_Driver.c **** * Side effects:
1869:Generated_Source\PSoC5/BCD_Driver.c **** *  None
1870:Generated_Source\PSoC5/BCD_Driver.c **** *
1871:Generated_Source\PSoC5/BCD_Driver.c **** *******************************************************************************/
1872:Generated_Source\PSoC5/BCD_Driver.c **** void BCD_Driver_Write14SegDigitDec(uint8 digit, uint8 position)
1873:Generated_Source\PSoC5/BCD_Driver.c **** 
1874:Generated_Source\PSoC5/BCD_Driver.c **** {
1875:Generated_Source\PSoC5/BCD_Driver.c ****     uint16 charDisplay;
1876:Generated_Source\PSoC5/BCD_Driver.c ****     
1877:Generated_Source\PSoC5/BCD_Driver.c ****     if((digit < 10u) && (position < BCD_Driver_NUM_COM))
1878:Generated_Source\PSoC5/BCD_Driver.c ****     {
1879:Generated_Source\PSoC5/BCD_Driver.c ****         charDisplay = BCD_Driver_EncodeNumber14Seg(digit);
1880:Generated_Source\PSoC5/BCD_Driver.c ****         BCD_Driver_segLBuffer[position] = LO8(charDisplay);
1881:Generated_Source\PSoC5/BCD_Driver.c ****     #if (BCD_Driver_NUM_SEG > 8u)
1882:Generated_Source\PSoC5/BCD_Driver.c ****         BCD_Driver_segMBuffer[position] = HI8(charDisplay);
1883:Generated_Source\PSoC5/BCD_Driver.c ****     #endif /* (BCD_Driver_NUM_SEG > 8u) */
1884:Generated_Source\PSoC5/BCD_Driver.c ****     }
1885:Generated_Source\PSoC5/BCD_Driver.c **** }
1886:Generated_Source\PSoC5/BCD_Driver.c **** 
1887:Generated_Source\PSoC5/BCD_Driver.c **** 
1888:Generated_Source\PSoC5/BCD_Driver.c **** /*******************************************************************************
1889:Generated_Source\PSoC5/BCD_Driver.c **** * Function Name: BCD_Driver_Write14SegDigitHex
1890:Generated_Source\PSoC5/BCD_Driver.c **** ********************************************************************************
1891:Generated_Source\PSoC5/BCD_Driver.c **** *
1892:Generated_Source\PSoC5/BCD_Driver.c **** * Summary:
1893:Generated_Source\PSoC5/BCD_Driver.c **** *  Displays a single digit at the specified position. The number in 'digit' 
1894:Generated_Source\PSoC5/BCD_Driver.c **** *  (0-F) is placed on 'position'.
1895:Generated_Source\PSoC5/BCD_Driver.c **** *
1896:Generated_Source\PSoC5/BCD_Driver.c **** * Parameters:
1897:Generated_Source\PSoC5/BCD_Driver.c **** *  uint8 digit: A number between 0x0 and 0xF (0 to 15)
1898:Generated_Source\PSoC5/BCD_Driver.c **** *  uint8 position: The position in which to place the number.
1899:Generated_Source\PSoC5/BCD_Driver.c **** *
1900:Generated_Source\PSoC5/BCD_Driver.c **** * Return:
1901:Generated_Source\PSoC5/BCD_Driver.c **** *  None
1902:Generated_Source\PSoC5/BCD_Driver.c **** *
1903:Generated_Source\PSoC5/BCD_Driver.c **** * Side effects:
1904:Generated_Source\PSoC5/BCD_Driver.c **** *  None
1905:Generated_Source\PSoC5/BCD_Driver.c **** *
1906:Generated_Source\PSoC5/BCD_Driver.c **** *******************************************************************************/
1907:Generated_Source\PSoC5/BCD_Driver.c **** void BCD_Driver_Write14SegDigitHex(uint8 digit, uint8 position)
1908:Generated_Source\PSoC5/BCD_Driver.c **** 
1909:Generated_Source\PSoC5/BCD_Driver.c **** {
1910:Generated_Source\PSoC5/BCD_Driver.c ****     uint16 charDisplay;
1911:Generated_Source\PSoC5/BCD_Driver.c **** 
1912:Generated_Source\PSoC5/BCD_Driver.c ****     if(position < BCD_Driver_NUM_COM)
1913:Generated_Source\PSoC5/BCD_Driver.c ****     {
1914:Generated_Source\PSoC5/BCD_Driver.c ****         charDisplay = BCD_Driver_EncodeNumber14Seg(digit);
1915:Generated_Source\PSoC5/BCD_Driver.c ****         BCD_Driver_segLBuffer[position] = LO8(charDisplay);
1916:Generated_Source\PSoC5/BCD_Driver.c ****     #if (BCD_Driver_NUM_SEG > 8u)
1917:Generated_Source\PSoC5/BCD_Driver.c ****         BCD_Driver_segMBuffer[position] = HI8(charDisplay);
1918:Generated_Source\PSoC5/BCD_Driver.c ****     #endif /* (BCD_Driver_NUM_SEG > 8u) */
ARM GAS  C:\Users\mmoh0006\AppData\Local\Temp\cc2nB4gH.s 			page 49


1919:Generated_Source\PSoC5/BCD_Driver.c ****     }
1920:Generated_Source\PSoC5/BCD_Driver.c **** }
1921:Generated_Source\PSoC5/BCD_Driver.c **** 
1922:Generated_Source\PSoC5/BCD_Driver.c **** 
1923:Generated_Source\PSoC5/BCD_Driver.c **** /*******************************************************************************
1924:Generated_Source\PSoC5/BCD_Driver.c **** * Function Name: BCD_Driver_Write16SegNumberDec
1925:Generated_Source\PSoC5/BCD_Driver.c **** ********************************************************************************
1926:Generated_Source\PSoC5/BCD_Driver.c **** *
1927:Generated_Source\PSoC5/BCD_Driver.c **** * Summary:
1928:Generated_Source\PSoC5/BCD_Driver.c **** *  Displays a signed integer up to 8 characters long, starting at 'position' 
1929:Generated_Source\PSoC5/BCD_Driver.c **** *  and extending for 'digits' characters. The negative sign will take an extra 
1930:Generated_Source\PSoC5/BCD_Driver.c **** *  digit if it is required.
1931:Generated_Source\PSoC5/BCD_Driver.c **** *
1932:Generated_Source\PSoC5/BCD_Driver.c **** * Parameters:
1933:Generated_Source\PSoC5/BCD_Driver.c **** *  int32 number: a signed integer number to display. It is the responsibility 
1934:Generated_Source\PSoC5/BCD_Driver.c **** *                of the user to ensure that the display has enough digits to 
1935:Generated_Source\PSoC5/BCD_Driver.c **** *                accurately represent the number passed to this function. If 
1936:Generated_Source\PSoC5/BCD_Driver.c **** *                not, the least significant digits will be displayed. Also 
1937:Generated_Source\PSoC5/BCD_Driver.c **** *                note that a negative number will require 1 more digit than the
1938:Generated_Source\PSoC5/BCD_Driver.c **** *                equivalent positive number to display the negative sign.
1939:Generated_Source\PSoC5/BCD_Driver.c **** *  uint8 position: Digit position of the Display/Common RAM to start.
1940:Generated_Source\PSoC5/BCD_Driver.c **** *  uint8 digits: The number of digits you wish to use to display the value 
1941:Generated_Source\PSoC5/BCD_Driver.c **** *                passed into the function. The negative sign will take an extra 
1942:Generated_Source\PSoC5/BCD_Driver.c **** *                digit if it is required.
1943:Generated_Source\PSoC5/BCD_Driver.c **** *  uint8 alignment: How to align the provided number in the allocated digits.
1944:Generated_Source\PSoC5/BCD_Driver.c **** *       RIGHT_ALIGN - Least significant digit occupies the rightmost digit
1945:Generated_Source\PSoC5/BCD_Driver.c **** *                     (position + digits). Unused digits are turned off unless
1946:Generated_Source\PSoC5/BCD_Driver.c **** *                     ZERO_PAD enabled.
1947:Generated_Source\PSoC5/BCD_Driver.c **** *       LEFT_ALIGN - Most significant digit (or negative sign) occupies the
1948:Generated_Source\PSoC5/BCD_Driver.c **** *                    digit specified by position. Unused digits are turned off.
1949:Generated_Source\PSoC5/BCD_Driver.c **** *       ZERO_PAD - Unused digits to the left are padded with leading zeros.
1950:Generated_Source\PSoC5/BCD_Driver.c **** * Return:
1951:Generated_Source\PSoC5/BCD_Driver.c **** *  None
1952:Generated_Source\PSoC5/BCD_Driver.c **** *
1953:Generated_Source\PSoC5/BCD_Driver.c **** * Side effects:
1954:Generated_Source\PSoC5/BCD_Driver.c **** *  None
1955:Generated_Source\PSoC5/BCD_Driver.c **** *
1956:Generated_Source\PSoC5/BCD_Driver.c **** *******************************************************************************/
1957:Generated_Source\PSoC5/BCD_Driver.c **** void BCD_Driver_Write16SegNumberDec(int32 number, uint8 position, uint8 digits, uint8 alignment)
1958:Generated_Source\PSoC5/BCD_Driver.c **** 
1959:Generated_Source\PSoC5/BCD_Driver.c **** {
1960:Generated_Source\PSoC5/BCD_Driver.c ****     uint8 i;
1961:Generated_Source\PSoC5/BCD_Driver.c ****     uint8 relPosition;
1962:Generated_Source\PSoC5/BCD_Driver.c ****     uint8 numberSign;
1963:Generated_Source\PSoC5/BCD_Driver.c ****     uint8 selectVal;
1964:Generated_Source\PSoC5/BCD_Driver.c ****     uint8 zeroCount = 0u;
1965:Generated_Source\PSoC5/BCD_Driver.c ****     uint16 bufArray[8u] = {0u};
1966:Generated_Source\PSoC5/BCD_Driver.c ****     uint32 numberVal;
1967:Generated_Source\PSoC5/BCD_Driver.c ****     
1968:Generated_Source\PSoC5/BCD_Driver.c ****     /* Routine to extract the sign and to convert to unsigned */
1969:Generated_Source\PSoC5/BCD_Driver.c ****     if(number >= BCD_Driver_ZERO_NEG)
1970:Generated_Source\PSoC5/BCD_Driver.c ****     {
1971:Generated_Source\PSoC5/BCD_Driver.c ****         numberVal = (uint32)number;
1972:Generated_Source\PSoC5/BCD_Driver.c ****         numberSign = BCD_Driver_UNSIGNED;
1973:Generated_Source\PSoC5/BCD_Driver.c ****     }
1974:Generated_Source\PSoC5/BCD_Driver.c ****     else
1975:Generated_Source\PSoC5/BCD_Driver.c ****     {
ARM GAS  C:\Users\mmoh0006\AppData\Local\Temp\cc2nB4gH.s 			page 50


1976:Generated_Source\PSoC5/BCD_Driver.c ****         numberVal = (uint32)(-number);
1977:Generated_Source\PSoC5/BCD_Driver.c ****         numberSign = BCD_Driver_SIGNED;
1978:Generated_Source\PSoC5/BCD_Driver.c ****     }
1979:Generated_Source\PSoC5/BCD_Driver.c ****     
1980:Generated_Source\PSoC5/BCD_Driver.c ****     /* Fill up the temporary array */
1981:Generated_Source\PSoC5/BCD_Driver.c ****     for(i = digits; i > 0u; i--)
1982:Generated_Source\PSoC5/BCD_Driver.c ****     {
1983:Generated_Source\PSoC5/BCD_Driver.c ****         selectVal = (uint8)(numberVal % 10u);
1984:Generated_Source\PSoC5/BCD_Driver.c ****         bufArray[i-1u] = BCD_Driver_EncodeNumber16Seg(selectVal);
1985:Generated_Source\PSoC5/BCD_Driver.c ****         numberVal = numberVal / 10u;
1986:Generated_Source\PSoC5/BCD_Driver.c ****     }
1987:Generated_Source\PSoC5/BCD_Driver.c ****     
1988:Generated_Source\PSoC5/BCD_Driver.c ****     /* Clean up the array and place sign if needed */
1989:Generated_Source\PSoC5/BCD_Driver.c ****     if(alignment == BCD_Driver_ZERO_PAD)
1990:Generated_Source\PSoC5/BCD_Driver.c ****     {
1991:Generated_Source\PSoC5/BCD_Driver.c ****         if(numberSign == BCD_Driver_SIGNED)
1992:Generated_Source\PSoC5/BCD_Driver.c ****         {
1993:Generated_Source\PSoC5/BCD_Driver.c ****             /* Place sign on the MSB */
1994:Generated_Source\PSoC5/BCD_Driver.c ****             bufArray[0u] = BCD_Driver_EncodeChar16Seg('-');
1995:Generated_Source\PSoC5/BCD_Driver.c ****         }
1996:Generated_Source\PSoC5/BCD_Driver.c ****     }
1997:Generated_Source\PSoC5/BCD_Driver.c ****     else
1998:Generated_Source\PSoC5/BCD_Driver.c ****     {
1999:Generated_Source\PSoC5/BCD_Driver.c ****         for(i = 0u; i < digits; i++)
2000:Generated_Source\PSoC5/BCD_Driver.c ****         {
2001:Generated_Source\PSoC5/BCD_Driver.c ****             if (bufArray[i] != BCD_Driver_ZERO_16CHAR)
2002:Generated_Source\PSoC5/BCD_Driver.c ****             {
2003:Generated_Source\PSoC5/BCD_Driver.c ****                 if(numberSign == BCD_Driver_SIGNED)
2004:Generated_Source\PSoC5/BCD_Driver.c ****                 {
2005:Generated_Source\PSoC5/BCD_Driver.c ****                     if(i == 0u)
2006:Generated_Source\PSoC5/BCD_Driver.c ****                     {
2007:Generated_Source\PSoC5/BCD_Driver.c ****                         /* Place sign on the MSB */
2008:Generated_Source\PSoC5/BCD_Driver.c ****                         bufArray[i] = BCD_Driver_EncodeChar16Seg('-');
2009:Generated_Source\PSoC5/BCD_Driver.c ****                     }
2010:Generated_Source\PSoC5/BCD_Driver.c ****                     else
2011:Generated_Source\PSoC5/BCD_Driver.c ****                     {
2012:Generated_Source\PSoC5/BCD_Driver.c ****                         /* Place sign before MSB */
2013:Generated_Source\PSoC5/BCD_Driver.c ****                         bufArray[i-1u] = BCD_Driver_EncodeChar16Seg('-');
2014:Generated_Source\PSoC5/BCD_Driver.c ****                     }
2015:Generated_Source\PSoC5/BCD_Driver.c ****                 }
2016:Generated_Source\PSoC5/BCD_Driver.c ****                 /* Exit when encountering non-zero number */
2017:Generated_Source\PSoC5/BCD_Driver.c ****                 break;
2018:Generated_Source\PSoC5/BCD_Driver.c ****             }
2019:Generated_Source\PSoC5/BCD_Driver.c ****             else
2020:Generated_Source\PSoC5/BCD_Driver.c ****             {
2021:Generated_Source\PSoC5/BCD_Driver.c ****                 if(zeroCount != (digits - 1u))
2022:Generated_Source\PSoC5/BCD_Driver.c ****                 {
2023:Generated_Source\PSoC5/BCD_Driver.c ****                     /* Turn off the display */
2024:Generated_Source\PSoC5/BCD_Driver.c ****                     bufArray[i] = BCD_Driver_CLEAR_16;
2025:Generated_Source\PSoC5/BCD_Driver.c ****                     zeroCount++;
2026:Generated_Source\PSoC5/BCD_Driver.c ****                 }
2027:Generated_Source\PSoC5/BCD_Driver.c ****             }    
2028:Generated_Source\PSoC5/BCD_Driver.c ****         }
2029:Generated_Source\PSoC5/BCD_Driver.c ****     }
2030:Generated_Source\PSoC5/BCD_Driver.c ****     
2031:Generated_Source\PSoC5/BCD_Driver.c ****     relPosition = position;
2032:Generated_Source\PSoC5/BCD_Driver.c ****     
ARM GAS  C:\Users\mmoh0006\AppData\Local\Temp\cc2nB4gH.s 			page 51


2033:Generated_Source\PSoC5/BCD_Driver.c ****     /* Place the values in the segment array according to alignment */
2034:Generated_Source\PSoC5/BCD_Driver.c ****     if(alignment == BCD_Driver_LEFT_ALIGN)
2035:Generated_Source\PSoC5/BCD_Driver.c ****     {
2036:Generated_Source\PSoC5/BCD_Driver.c ****         for(i = 0u; i < digits; i++)
2037:Generated_Source\PSoC5/BCD_Driver.c ****         {
2038:Generated_Source\PSoC5/BCD_Driver.c ****             if(bufArray[i] != BCD_Driver_CLEAR_16)
2039:Generated_Source\PSoC5/BCD_Driver.c ****             {
2040:Generated_Source\PSoC5/BCD_Driver.c ****                 if(relPosition < BCD_Driver_NUM_COM)
2041:Generated_Source\PSoC5/BCD_Driver.c ****                 {
2042:Generated_Source\PSoC5/BCD_Driver.c ****                     /* Only show displays that are not empty */
2043:Generated_Source\PSoC5/BCD_Driver.c ****                     BCD_Driver_segLBuffer[relPosition] = LO8(bufArray[i]);
2044:Generated_Source\PSoC5/BCD_Driver.c ****                 #if (BCD_Driver_NUM_SEG > 8u)
2045:Generated_Source\PSoC5/BCD_Driver.c ****                     BCD_Driver_segMBuffer[relPosition] = HI8(bufArray[i]);
2046:Generated_Source\PSoC5/BCD_Driver.c ****                 #endif /* (BCD_Driver_NUM_SEG > 8u) */
2047:Generated_Source\PSoC5/BCD_Driver.c ****                 }
2048:Generated_Source\PSoC5/BCD_Driver.c ****                 relPosition++;
2049:Generated_Source\PSoC5/BCD_Driver.c ****             }
2050:Generated_Source\PSoC5/BCD_Driver.c ****         }
2051:Generated_Source\PSoC5/BCD_Driver.c ****         /* Clear the rest of the positions to the right of value */
2052:Generated_Source\PSoC5/BCD_Driver.c ****         while(relPosition < digits)
2053:Generated_Source\PSoC5/BCD_Driver.c ****         {
2054:Generated_Source\PSoC5/BCD_Driver.c ****             /* Only show displays that are not empty */
2055:Generated_Source\PSoC5/BCD_Driver.c ****             BCD_Driver_segLBuffer[relPosition] = BCD_Driver_CLEAR;
2056:Generated_Source\PSoC5/BCD_Driver.c ****             #if (BCD_Driver_NUM_SEG > 8u)
2057:Generated_Source\PSoC5/BCD_Driver.c ****                 BCD_Driver_segMBuffer[relPosition] = BCD_Driver_CLEAR;
2058:Generated_Source\PSoC5/BCD_Driver.c ****             #endif /* (BCD_Driver_NUM_SEG > 8u) */
2059:Generated_Source\PSoC5/BCD_Driver.c ****             
2060:Generated_Source\PSoC5/BCD_Driver.c ****             relPosition++;
2061:Generated_Source\PSoC5/BCD_Driver.c ****         }
2062:Generated_Source\PSoC5/BCD_Driver.c ****     }
2063:Generated_Source\PSoC5/BCD_Driver.c ****     else
2064:Generated_Source\PSoC5/BCD_Driver.c ****     {
2065:Generated_Source\PSoC5/BCD_Driver.c ****         for(i = digits; i > 0u; i--)
2066:Generated_Source\PSoC5/BCD_Driver.c ****         {
2067:Generated_Source\PSoC5/BCD_Driver.c ****             if(((i + relPosition) - 1u) < BCD_Driver_NUM_COM)
2068:Generated_Source\PSoC5/BCD_Driver.c ****             {
2069:Generated_Source\PSoC5/BCD_Driver.c ****                 BCD_Driver_segLBuffer[(i + relPosition) - 1u] = LO8(bufArray[i-1u]);
2070:Generated_Source\PSoC5/BCD_Driver.c ****             #if (BCD_Driver_NUM_SEG > 8u)
2071:Generated_Source\PSoC5/BCD_Driver.c ****                 BCD_Driver_segMBuffer[(i + relPosition) - 1u] = HI8(bufArray[i-1u]);
2072:Generated_Source\PSoC5/BCD_Driver.c ****             #endif /* (BCD_Driver_NUM_SEG > 8u) */
2073:Generated_Source\PSoC5/BCD_Driver.c ****             }
2074:Generated_Source\PSoC5/BCD_Driver.c ****         }
2075:Generated_Source\PSoC5/BCD_Driver.c ****     }
2076:Generated_Source\PSoC5/BCD_Driver.c **** }
2077:Generated_Source\PSoC5/BCD_Driver.c **** 
2078:Generated_Source\PSoC5/BCD_Driver.c **** 
2079:Generated_Source\PSoC5/BCD_Driver.c **** /*******************************************************************************
2080:Generated_Source\PSoC5/BCD_Driver.c **** * Function Name: BCD_Driver_Write16SegNumberHex
2081:Generated_Source\PSoC5/BCD_Driver.c **** ********************************************************************************
2082:Generated_Source\PSoC5/BCD_Driver.c **** *
2083:Generated_Source\PSoC5/BCD_Driver.c **** * Summary:
2084:Generated_Source\PSoC5/BCD_Driver.c **** *  Displays a hexadecimal number up to 8 characters long, starting at 'position'
2085:Generated_Source\PSoC5/BCD_Driver.c **** *  and extending for 'digits' characters. If you do not use the correct number 
2086:Generated_Source\PSoC5/BCD_Driver.c **** *  of digits for your number, the least significant digits will be displayed. 
2087:Generated_Source\PSoC5/BCD_Driver.c **** *  For example, if value is 0xDEADBEEF, display is 0 and digits is 4, the result
2088:Generated_Source\PSoC5/BCD_Driver.c **** *  will be: BEEF.
2089:Generated_Source\PSoC5/BCD_Driver.c **** *
ARM GAS  C:\Users\mmoh0006\AppData\Local\Temp\cc2nB4gH.s 			page 52


2090:Generated_Source\PSoC5/BCD_Driver.c **** * Parameters:
2091:Generated_Source\PSoC5/BCD_Driver.c **** *  uint32 number: The hexadecimal number to display. It is the responsibility of
2092:Generated_Source\PSoC5/BCD_Driver.c **** *  the user to ensure that the display has enough digits to accurately represent
2093:Generated_Source\PSoC5/BCD_Driver.c **** *  the number passed to this function.
2094:Generated_Source\PSoC5/BCD_Driver.c **** *  uint8 position: Position of the Display/Common to start number.
2095:Generated_Source\PSoC5/BCD_Driver.c **** *  uint8 digits: The number of digits you wish to use to display the value 
2096:Generated_Source\PSoC5/BCD_Driver.c **** *                passed into the function.
2097:Generated_Source\PSoC5/BCD_Driver.c **** *  uint8 alignment: How to align the provided number in the allocated digits.
2098:Generated_Source\PSoC5/BCD_Driver.c **** *       RIGHT_ALIGN - Least significant digit occupies the rightmost digit
2099:Generated_Source\PSoC5/BCD_Driver.c **** *                     (position + digits). Unused digits are turned off unless
2100:Generated_Source\PSoC5/BCD_Driver.c **** *                     ZERO_PAD enabled.
2101:Generated_Source\PSoC5/BCD_Driver.c **** *       LEFT_ALIGN - Most significant digit (or negative sign) occupies the
2102:Generated_Source\PSoC5/BCD_Driver.c **** *                    digit specified by position. Unused digits are turned off.
2103:Generated_Source\PSoC5/BCD_Driver.c **** *       ZERO_PAD - Unused digits to the left are padded with leading zeros.
2104:Generated_Source\PSoC5/BCD_Driver.c **** * Return:
2105:Generated_Source\PSoC5/BCD_Driver.c **** *  None
2106:Generated_Source\PSoC5/BCD_Driver.c **** *
2107:Generated_Source\PSoC5/BCD_Driver.c **** * Side effects:
2108:Generated_Source\PSoC5/BCD_Driver.c **** *  None
2109:Generated_Source\PSoC5/BCD_Driver.c **** *
2110:Generated_Source\PSoC5/BCD_Driver.c **** *******************************************************************************/
2111:Generated_Source\PSoC5/BCD_Driver.c **** void BCD_Driver_Write16SegNumberHex(uint32 number, uint8 position, uint8 digits, uint8 alignment)
2112:Generated_Source\PSoC5/BCD_Driver.c **** 
2113:Generated_Source\PSoC5/BCD_Driver.c **** {
2114:Generated_Source\PSoC5/BCD_Driver.c ****     uint8 i;
2115:Generated_Source\PSoC5/BCD_Driver.c ****     uint8 relPosition;
2116:Generated_Source\PSoC5/BCD_Driver.c ****     uint8 selectVal;
2117:Generated_Source\PSoC5/BCD_Driver.c ****     uint16 bufArray[8u] = {0u};
2118:Generated_Source\PSoC5/BCD_Driver.c ****     uint32 numberVal;
2119:Generated_Source\PSoC5/BCD_Driver.c ****     
2120:Generated_Source\PSoC5/BCD_Driver.c ****     numberVal = number;
2121:Generated_Source\PSoC5/BCD_Driver.c ****     
2122:Generated_Source\PSoC5/BCD_Driver.c ****     /* Fill up the temporary array */
2123:Generated_Source\PSoC5/BCD_Driver.c ****     for(i = digits; i > 0u; i--)
2124:Generated_Source\PSoC5/BCD_Driver.c ****     {
2125:Generated_Source\PSoC5/BCD_Driver.c ****         selectVal = (uint8)((uint8)numberVal & BCD_Driver_NIBBLE_MASK);
2126:Generated_Source\PSoC5/BCD_Driver.c ****         bufArray[i-1u] = BCD_Driver_EncodeNumber16Seg(selectVal);
2127:Generated_Source\PSoC5/BCD_Driver.c ****         numberVal = (uint32)((uint32)numberVal >> BCD_Driver_SHIFT_NIBBLE);
2128:Generated_Source\PSoC5/BCD_Driver.c ****     }
2129:Generated_Source\PSoC5/BCD_Driver.c ****     
2130:Generated_Source\PSoC5/BCD_Driver.c ****     /* Clean up the array and place sign if needed */
2131:Generated_Source\PSoC5/BCD_Driver.c ****     for(i = 0u; i < digits; i++)
2132:Generated_Source\PSoC5/BCD_Driver.c ****     {
2133:Generated_Source\PSoC5/BCD_Driver.c ****         if (bufArray[i] != BCD_Driver_ZERO_16CHAR)
2134:Generated_Source\PSoC5/BCD_Driver.c ****         {
2135:Generated_Source\PSoC5/BCD_Driver.c ****             /* Exit when encountering non-zero number */
2136:Generated_Source\PSoC5/BCD_Driver.c ****             break;
2137:Generated_Source\PSoC5/BCD_Driver.c ****         }
2138:Generated_Source\PSoC5/BCD_Driver.c ****         else
2139:Generated_Source\PSoC5/BCD_Driver.c ****         {
2140:Generated_Source\PSoC5/BCD_Driver.c ****             /* Turn off the display */
2141:Generated_Source\PSoC5/BCD_Driver.c ****             bufArray[i] = BCD_Driver_CLEAR_16;
2142:Generated_Source\PSoC5/BCD_Driver.c ****         }    
2143:Generated_Source\PSoC5/BCD_Driver.c ****     }
2144:Generated_Source\PSoC5/BCD_Driver.c ****     
2145:Generated_Source\PSoC5/BCD_Driver.c ****     relPosition = position;
2146:Generated_Source\PSoC5/BCD_Driver.c ****     
ARM GAS  C:\Users\mmoh0006\AppData\Local\Temp\cc2nB4gH.s 			page 53


2147:Generated_Source\PSoC5/BCD_Driver.c ****     /* Place the values in the segment array according to alignment */
2148:Generated_Source\PSoC5/BCD_Driver.c ****     if(alignment == BCD_Driver_LEFT_ALIGN)
2149:Generated_Source\PSoC5/BCD_Driver.c ****     {
2150:Generated_Source\PSoC5/BCD_Driver.c ****         for(i = 0u; i < digits; i++)
2151:Generated_Source\PSoC5/BCD_Driver.c ****         {
2152:Generated_Source\PSoC5/BCD_Driver.c ****             if(bufArray[i] != BCD_Driver_CLEAR_16)
2153:Generated_Source\PSoC5/BCD_Driver.c ****             {
2154:Generated_Source\PSoC5/BCD_Driver.c ****                 if(relPosition < BCD_Driver_NUM_COM)
2155:Generated_Source\PSoC5/BCD_Driver.c ****                 {
2156:Generated_Source\PSoC5/BCD_Driver.c ****                     /* Only show displays that are not empty */
2157:Generated_Source\PSoC5/BCD_Driver.c ****                     BCD_Driver_segLBuffer[relPosition] = LO8(bufArray[i]);
2158:Generated_Source\PSoC5/BCD_Driver.c ****                 #if (BCD_Driver_NUM_SEG > 8u)
2159:Generated_Source\PSoC5/BCD_Driver.c ****                     BCD_Driver_segMBuffer[relPosition] = HI8(bufArray[i]);
2160:Generated_Source\PSoC5/BCD_Driver.c ****                 #endif /* (BCD_Driver_NUM_SEG > 8u) */
2161:Generated_Source\PSoC5/BCD_Driver.c ****                 }
2162:Generated_Source\PSoC5/BCD_Driver.c ****                 relPosition++;
2163:Generated_Source\PSoC5/BCD_Driver.c ****             }
2164:Generated_Source\PSoC5/BCD_Driver.c ****         }
2165:Generated_Source\PSoC5/BCD_Driver.c ****         /* Clear the rest of the positions to the right of value */
2166:Generated_Source\PSoC5/BCD_Driver.c ****         while(relPosition < digits)
2167:Generated_Source\PSoC5/BCD_Driver.c ****         {
2168:Generated_Source\PSoC5/BCD_Driver.c ****             /* Only show displays that are not empty */
2169:Generated_Source\PSoC5/BCD_Driver.c ****             BCD_Driver_segLBuffer[relPosition] = BCD_Driver_CLEAR;
2170:Generated_Source\PSoC5/BCD_Driver.c ****             #if (BCD_Driver_NUM_SEG > 8u)
2171:Generated_Source\PSoC5/BCD_Driver.c ****                 BCD_Driver_segMBuffer[relPosition] = BCD_Driver_CLEAR;
2172:Generated_Source\PSoC5/BCD_Driver.c ****             #endif /* (BCD_Driver_NUM_SEG > 8u) */
2173:Generated_Source\PSoC5/BCD_Driver.c ****             
2174:Generated_Source\PSoC5/BCD_Driver.c ****             relPosition++;
2175:Generated_Source\PSoC5/BCD_Driver.c ****         }
2176:Generated_Source\PSoC5/BCD_Driver.c ****     }
2177:Generated_Source\PSoC5/BCD_Driver.c ****     else
2178:Generated_Source\PSoC5/BCD_Driver.c ****     {
2179:Generated_Source\PSoC5/BCD_Driver.c ****         for(i = digits; i > 0u; i--)
2180:Generated_Source\PSoC5/BCD_Driver.c ****         {
2181:Generated_Source\PSoC5/BCD_Driver.c ****             if(((i + relPosition) - 1u) < BCD_Driver_NUM_COM)
2182:Generated_Source\PSoC5/BCD_Driver.c ****             {
2183:Generated_Source\PSoC5/BCD_Driver.c ****                 BCD_Driver_segLBuffer[(i + relPosition) - 1u] = LO8(bufArray[i-1u]);
2184:Generated_Source\PSoC5/BCD_Driver.c ****             #if (BCD_Driver_NUM_SEG > 8u)
2185:Generated_Source\PSoC5/BCD_Driver.c ****                 BCD_Driver_segMBuffer[(i + relPosition) - 1u] = HI8(bufArray[i-1u]);
2186:Generated_Source\PSoC5/BCD_Driver.c ****             #endif /* (BCD_Driver_NUM_SEG > 8u) */
2187:Generated_Source\PSoC5/BCD_Driver.c ****             }
2188:Generated_Source\PSoC5/BCD_Driver.c ****         }
2189:Generated_Source\PSoC5/BCD_Driver.c ****     }
2190:Generated_Source\PSoC5/BCD_Driver.c **** }
2191:Generated_Source\PSoC5/BCD_Driver.c **** 
2192:Generated_Source\PSoC5/BCD_Driver.c **** 
2193:Generated_Source\PSoC5/BCD_Driver.c **** /*******************************************************************************
2194:Generated_Source\PSoC5/BCD_Driver.c **** * Function Name: BCD_Driver_WriteString16Seg
2195:Generated_Source\PSoC5/BCD_Driver.c **** ********************************************************************************
2196:Generated_Source\PSoC5/BCD_Driver.c **** *
2197:Generated_Source\PSoC5/BCD_Driver.c **** * Summary:
2198:Generated_Source\PSoC5/BCD_Driver.c **** *  Displays a null terminated string starting at 'position' and ending at either
2199:Generated_Source\PSoC5/BCD_Driver.c **** *  the  the string or the  the display. The displayable characters 
2200:Generated_Source\PSoC5/BCD_Driver.c **** *  are the same for the LED_Driver_PutCharacter() function. Non-displayable
2201:Generated_Source\PSoC5/BCD_Driver.c **** *  characters will produce a blank space.
2202:Generated_Source\PSoC5/BCD_Driver.c **** *
2203:Generated_Source\PSoC5/BCD_Driver.c **** * Parameters:
ARM GAS  C:\Users\mmoh0006\AppData\Local\Temp\cc2nB4gH.s 			page 54


2204:Generated_Source\PSoC5/BCD_Driver.c **** *  char8 const character[]: The null terminated string to be displayed.
2205:Generated_Source\PSoC5/BCD_Driver.c **** *  uint8 position: The position to start the string.
2206:Generated_Source\PSoC5/BCD_Driver.c **** * Return:
2207:Generated_Source\PSoC5/BCD_Driver.c **** *  None
2208:Generated_Source\PSoC5/BCD_Driver.c **** *
2209:Generated_Source\PSoC5/BCD_Driver.c **** * Side effects:
2210:Generated_Source\PSoC5/BCD_Driver.c **** *  None
2211:Generated_Source\PSoC5/BCD_Driver.c **** *
2212:Generated_Source\PSoC5/BCD_Driver.c **** *******************************************************************************/
2213:Generated_Source\PSoC5/BCD_Driver.c **** void BCD_Driver_WriteString16Seg(char8 const character[], uint8 position)
2214:Generated_Source\PSoC5/BCD_Driver.c **** 
2215:Generated_Source\PSoC5/BCD_Driver.c **** {
2216:Generated_Source\PSoC5/BCD_Driver.c ****     uint8 currPosition;
2217:Generated_Source\PSoC5/BCD_Driver.c ****     uint8 sizeLimit;
2218:Generated_Source\PSoC5/BCD_Driver.c ****     uint8 i = 0u;
2219:Generated_Source\PSoC5/BCD_Driver.c ****     uint16 charDisplay;
2220:Generated_Source\PSoC5/BCD_Driver.c ****     
2221:Generated_Source\PSoC5/BCD_Driver.c ****     sizeLimit = (uint8)(strlen(character)) + position;
2222:Generated_Source\PSoC5/BCD_Driver.c ****     
2223:Generated_Source\PSoC5/BCD_Driver.c ****     for(currPosition = position; currPosition < BCD_Driver_NUM_COM; currPosition++)
2224:Generated_Source\PSoC5/BCD_Driver.c ****     {
2225:Generated_Source\PSoC5/BCD_Driver.c ****         if(currPosition < sizeLimit)
2226:Generated_Source\PSoC5/BCD_Driver.c ****         {
2227:Generated_Source\PSoC5/BCD_Driver.c ****             charDisplay = BCD_Driver_EncodeChar16Seg(character[i]);
2228:Generated_Source\PSoC5/BCD_Driver.c ****             BCD_Driver_segLBuffer[currPosition] = LO8(charDisplay);
2229:Generated_Source\PSoC5/BCD_Driver.c ****             #if (BCD_Driver_NUM_SEG > 8u)
2230:Generated_Source\PSoC5/BCD_Driver.c ****                 BCD_Driver_segMBuffer[currPosition] = HI8(charDisplay);
2231:Generated_Source\PSoC5/BCD_Driver.c ****             #endif /* (BCD_Driver_NUM_SEG > 8u) */
2232:Generated_Source\PSoC5/BCD_Driver.c ****             i++;
2233:Generated_Source\PSoC5/BCD_Driver.c ****         }
2234:Generated_Source\PSoC5/BCD_Driver.c ****     }
2235:Generated_Source\PSoC5/BCD_Driver.c **** }
2236:Generated_Source\PSoC5/BCD_Driver.c **** 
2237:Generated_Source\PSoC5/BCD_Driver.c **** 
2238:Generated_Source\PSoC5/BCD_Driver.c **** /*******************************************************************************
2239:Generated_Source\PSoC5/BCD_Driver.c **** * Function Name: BCD_Driver_PutChar16Seg
2240:Generated_Source\PSoC5/BCD_Driver.c **** ********************************************************************************
2241:Generated_Source\PSoC5/BCD_Driver.c **** *
2242:Generated_Source\PSoC5/BCD_Driver.c **** * Summary:
2243:Generated_Source\PSoC5/BCD_Driver.c **** *  Displays an ascii encoded character at 'position'. This function can display 
2244:Generated_Source\PSoC5/BCD_Driver.c **** *  all alphanumeric characters. The function can also display '-', '.', '_', 
2245:Generated_Source\PSoC5/BCD_Driver.c **** *  ' ', and '='. All unknown characters are displayed as a space.
2246:Generated_Source\PSoC5/BCD_Driver.c **** *
2247:Generated_Source\PSoC5/BCD_Driver.c **** * Parameters:
2248:Generated_Source\PSoC5/BCD_Driver.c **** *  char8 character: ASCII character.
2249:Generated_Source\PSoC5/BCD_Driver.c **** *  uint8 position: The position of the character.
2250:Generated_Source\PSoC5/BCD_Driver.c **** * Return:
2251:Generated_Source\PSoC5/BCD_Driver.c **** *  None
2252:Generated_Source\PSoC5/BCD_Driver.c **** *
2253:Generated_Source\PSoC5/BCD_Driver.c **** * Side effects:
2254:Generated_Source\PSoC5/BCD_Driver.c **** *  None
2255:Generated_Source\PSoC5/BCD_Driver.c **** *
2256:Generated_Source\PSoC5/BCD_Driver.c **** *******************************************************************************/
2257:Generated_Source\PSoC5/BCD_Driver.c **** void BCD_Driver_PutChar16Seg(char8 character , uint8 position)
2258:Generated_Source\PSoC5/BCD_Driver.c **** 
2259:Generated_Source\PSoC5/BCD_Driver.c **** {
2260:Generated_Source\PSoC5/BCD_Driver.c ****     uint16 charDisplay;
ARM GAS  C:\Users\mmoh0006\AppData\Local\Temp\cc2nB4gH.s 			page 55


2261:Generated_Source\PSoC5/BCD_Driver.c ****     
2262:Generated_Source\PSoC5/BCD_Driver.c ****     if(position < BCD_Driver_NUM_COM)
2263:Generated_Source\PSoC5/BCD_Driver.c ****     {
2264:Generated_Source\PSoC5/BCD_Driver.c ****         charDisplay = BCD_Driver_EncodeChar16Seg(character);
2265:Generated_Source\PSoC5/BCD_Driver.c ****         BCD_Driver_segLBuffer[position] = LO8(charDisplay);
2266:Generated_Source\PSoC5/BCD_Driver.c ****         #if (BCD_Driver_NUM_SEG > 8u)
2267:Generated_Source\PSoC5/BCD_Driver.c ****             BCD_Driver_segMBuffer[position] = HI8(charDisplay);
2268:Generated_Source\PSoC5/BCD_Driver.c ****         #endif /* (BCD_Driver_NUM_SEG > 8u) */
2269:Generated_Source\PSoC5/BCD_Driver.c ****     }
2270:Generated_Source\PSoC5/BCD_Driver.c **** }
2271:Generated_Source\PSoC5/BCD_Driver.c **** 
2272:Generated_Source\PSoC5/BCD_Driver.c **** 
2273:Generated_Source\PSoC5/BCD_Driver.c **** /*******************************************************************************
2274:Generated_Source\PSoC5/BCD_Driver.c **** * Function Name: BCD_Driver_Write16SegDigitDec
2275:Generated_Source\PSoC5/BCD_Driver.c **** ********************************************************************************
2276:Generated_Source\PSoC5/BCD_Driver.c **** *
2277:Generated_Source\PSoC5/BCD_Driver.c **** * Summary:
2278:Generated_Source\PSoC5/BCD_Driver.c **** *  Displays a single digit on the specified display. The number in 'digit' 
2279:Generated_Source\PSoC5/BCD_Driver.c **** *  (0-9) is placed on 'position'.
2280:Generated_Source\PSoC5/BCD_Driver.c **** *
2281:Generated_Source\PSoC5/BCD_Driver.c **** * Parameters:
2282:Generated_Source\PSoC5/BCD_Driver.c **** *  uint8 digit: A number between 0 and 9 to display.
2283:Generated_Source\PSoC5/BCD_Driver.c **** *  uint8 position: Position of the display in which to place the number.
2284:Generated_Source\PSoC5/BCD_Driver.c **** * Return:
2285:Generated_Source\PSoC5/BCD_Driver.c **** *  None
2286:Generated_Source\PSoC5/BCD_Driver.c **** *
2287:Generated_Source\PSoC5/BCD_Driver.c **** * Side effects:
2288:Generated_Source\PSoC5/BCD_Driver.c **** *  None
2289:Generated_Source\PSoC5/BCD_Driver.c **** *
2290:Generated_Source\PSoC5/BCD_Driver.c **** *******************************************************************************/
2291:Generated_Source\PSoC5/BCD_Driver.c **** void BCD_Driver_Write16SegDigitDec(uint8 digit, uint8 position)
2292:Generated_Source\PSoC5/BCD_Driver.c **** 
2293:Generated_Source\PSoC5/BCD_Driver.c **** {
2294:Generated_Source\PSoC5/BCD_Driver.c ****     uint16 charDisplay;
2295:Generated_Source\PSoC5/BCD_Driver.c ****     
2296:Generated_Source\PSoC5/BCD_Driver.c ****     if((digit < 10u) && (position < BCD_Driver_NUM_COM))
2297:Generated_Source\PSoC5/BCD_Driver.c ****     {
2298:Generated_Source\PSoC5/BCD_Driver.c ****         charDisplay = BCD_Driver_EncodeNumber16Seg(digit);
2299:Generated_Source\PSoC5/BCD_Driver.c ****         BCD_Driver_segLBuffer[position] = LO8(charDisplay);
2300:Generated_Source\PSoC5/BCD_Driver.c ****         #if (BCD_Driver_NUM_SEG > 8u)
2301:Generated_Source\PSoC5/BCD_Driver.c ****             BCD_Driver_segMBuffer[position] = HI8(charDisplay);
2302:Generated_Source\PSoC5/BCD_Driver.c ****         #endif /* (BCD_Driver_NUM_SEG > 8u) */
2303:Generated_Source\PSoC5/BCD_Driver.c ****     }
2304:Generated_Source\PSoC5/BCD_Driver.c **** }
2305:Generated_Source\PSoC5/BCD_Driver.c **** 
2306:Generated_Source\PSoC5/BCD_Driver.c **** 
2307:Generated_Source\PSoC5/BCD_Driver.c **** /*******************************************************************************
2308:Generated_Source\PSoC5/BCD_Driver.c **** * Function Name: BCD_Driver_Write16SegDigitHex
2309:Generated_Source\PSoC5/BCD_Driver.c **** ********************************************************************************
2310:Generated_Source\PSoC5/BCD_Driver.c **** *
2311:Generated_Source\PSoC5/BCD_Driver.c **** * Summary:
2312:Generated_Source\PSoC5/BCD_Driver.c **** *  Displays a single digit at the specified position. The number in 'digit' 
2313:Generated_Source\PSoC5/BCD_Driver.c **** *  (0-F) is placed on 'position'.
2314:Generated_Source\PSoC5/BCD_Driver.c **** *
2315:Generated_Source\PSoC5/BCD_Driver.c **** * Parameters:
2316:Generated_Source\PSoC5/BCD_Driver.c **** *  uint8 digit: A number between 0x0 and 0xF (0 to 15).
2317:Generated_Source\PSoC5/BCD_Driver.c **** *  uint8 position: The position in which to place the number.
ARM GAS  C:\Users\mmoh0006\AppData\Local\Temp\cc2nB4gH.s 			page 56


2318:Generated_Source\PSoC5/BCD_Driver.c **** * Return:
2319:Generated_Source\PSoC5/BCD_Driver.c **** *  None
2320:Generated_Source\PSoC5/BCD_Driver.c **** *
2321:Generated_Source\PSoC5/BCD_Driver.c **** * Side effects:
2322:Generated_Source\PSoC5/BCD_Driver.c **** *  None
2323:Generated_Source\PSoC5/BCD_Driver.c **** *
2324:Generated_Source\PSoC5/BCD_Driver.c **** *******************************************************************************/
2325:Generated_Source\PSoC5/BCD_Driver.c **** void BCD_Driver_Write16SegDigitHex(uint8 digit, uint8 position)
2326:Generated_Source\PSoC5/BCD_Driver.c **** 
2327:Generated_Source\PSoC5/BCD_Driver.c **** {
2328:Generated_Source\PSoC5/BCD_Driver.c ****     uint16 charDisplay;
2329:Generated_Source\PSoC5/BCD_Driver.c **** 
2330:Generated_Source\PSoC5/BCD_Driver.c ****     if(position < BCD_Driver_NUM_COM)
2331:Generated_Source\PSoC5/BCD_Driver.c ****     {
2332:Generated_Source\PSoC5/BCD_Driver.c ****         charDisplay = BCD_Driver_EncodeNumber16Seg(digit);
2333:Generated_Source\PSoC5/BCD_Driver.c ****         BCD_Driver_segLBuffer[position] = LO8(charDisplay);
2334:Generated_Source\PSoC5/BCD_Driver.c ****         #if (BCD_Driver_NUM_SEG > 8u)
2335:Generated_Source\PSoC5/BCD_Driver.c ****             BCD_Driver_segMBuffer[position] = HI8(charDisplay);
2336:Generated_Source\PSoC5/BCD_Driver.c ****         #endif /* (BCD_Driver_NUM_SEG > 8u) */
2337:Generated_Source\PSoC5/BCD_Driver.c ****     }
2338:Generated_Source\PSoC5/BCD_Driver.c **** }
2339:Generated_Source\PSoC5/BCD_Driver.c **** 
2340:Generated_Source\PSoC5/BCD_Driver.c **** 
2341:Generated_Source\PSoC5/BCD_Driver.c **** /*******************************************************************************
2342:Generated_Source\PSoC5/BCD_Driver.c **** * Function Name: BCD_Driver_PutDecimalPoint
2343:Generated_Source\PSoC5/BCD_Driver.c **** ********************************************************************************
2344:Generated_Source\PSoC5/BCD_Driver.c **** *
2345:Generated_Source\PSoC5/BCD_Driver.c **** * Summary:
2346:Generated_Source\PSoC5/BCD_Driver.c **** *  Sets or clears the decimal point at the specified position.
2347:Generated_Source\PSoC5/BCD_Driver.c **** *
2348:Generated_Source\PSoC5/BCD_Driver.c **** * Parameters:
2349:Generated_Source\PSoC5/BCD_Driver.c **** *  uint8 dp: If the value is > 0 the decimal point will be set, if zero, the 
2350:Generated_Source\PSoC5/BCD_Driver.c **** *            decimal point will be cleared.
2351:Generated_Source\PSoC5/BCD_Driver.c **** *  uint8 position: The position at which to adjust the decimal point.
2352:Generated_Source\PSoC5/BCD_Driver.c **** * Return:
2353:Generated_Source\PSoC5/BCD_Driver.c **** *  None
2354:Generated_Source\PSoC5/BCD_Driver.c **** *
2355:Generated_Source\PSoC5/BCD_Driver.c **** * Side effects:
2356:Generated_Source\PSoC5/BCD_Driver.c **** *  None
2357:Generated_Source\PSoC5/BCD_Driver.c **** *
2358:Generated_Source\PSoC5/BCD_Driver.c **** *******************************************************************************/
2359:Generated_Source\PSoC5/BCD_Driver.c **** void BCD_Driver_PutDecimalPoint(uint8 dp, uint8 position)
2360:Generated_Source\PSoC5/BCD_Driver.c **** 
2361:Generated_Source\PSoC5/BCD_Driver.c **** {
2362:Generated_Source\PSoC5/BCD_Driver.c ****     uint8 value;
2363:Generated_Source\PSoC5/BCD_Driver.c ****     uint8 relPosition;
2364:Generated_Source\PSoC5/BCD_Driver.c ****     
2365:Generated_Source\PSoC5/BCD_Driver.c ****     value = BCD_Driver_DEC_POINT_VALUE;
2366:Generated_Source\PSoC5/BCD_Driver.c ****     
2367:Generated_Source\PSoC5/BCD_Driver.c ****     if(position < BCD_Driver_NUM_COM)
2368:Generated_Source\PSoC5/BCD_Driver.c ****     {
2369:Generated_Source\PSoC5/BCD_Driver.c ****         relPosition = position;
2370:Generated_Source\PSoC5/BCD_Driver.c ****         if(dp != 0u)
2371:Generated_Source\PSoC5/BCD_Driver.c ****         {
2372:Generated_Source\PSoC5/BCD_Driver.c ****             #if(BCD_Driver_SEG_DRIVE == BCD_Driver_HIGH)
2373:Generated_Source\PSoC5/BCD_Driver.c ****                 BCD_Driver_segLBuffer[relPosition] |= value;
2374:Generated_Source\PSoC5/BCD_Driver.c ****             #else
ARM GAS  C:\Users\mmoh0006\AppData\Local\Temp\cc2nB4gH.s 			page 57


2375:Generated_Source\PSoC5/BCD_Driver.c ****                 BCD_Driver_segLBuffer[relPosition] &= value;
2376:Generated_Source\PSoC5/BCD_Driver.c ****             #endif /* (BCD_Driver_SEG_DRIVE == BCD_Driver_HIGH) */
2377:Generated_Source\PSoC5/BCD_Driver.c ****         }
2378:Generated_Source\PSoC5/BCD_Driver.c ****         else
2379:Generated_Source\PSoC5/BCD_Driver.c ****         {
2380:Generated_Source\PSoC5/BCD_Driver.c ****             #if(BCD_Driver_SEG_DRIVE == BCD_Driver_HIGH)
2381:Generated_Source\PSoC5/BCD_Driver.c ****                 BCD_Driver_segLBuffer[relPosition] &= ((uint8)(~(uint8)value));
2382:Generated_Source\PSoC5/BCD_Driver.c ****             #else
2383:Generated_Source\PSoC5/BCD_Driver.c ****                 BCD_Driver_segLBuffer[relPosition] |= ((uint8)(~(uint8)value));
2384:Generated_Source\PSoC5/BCD_Driver.c ****             #endif /* (BCD_Driver_SEG_DRIVE == BCD_Driver_HIGH) */
2385:Generated_Source\PSoC5/BCD_Driver.c ****         }
2386:Generated_Source\PSoC5/BCD_Driver.c ****     } 
2387:Generated_Source\PSoC5/BCD_Driver.c ****     else if (position < BCD_Driver_TWO_NUM_COM)
2388:Generated_Source\PSoC5/BCD_Driver.c ****     {
2389:Generated_Source\PSoC5/BCD_Driver.c ****         #if (BCD_Driver_NUM_SEG > 8u)
2390:Generated_Source\PSoC5/BCD_Driver.c ****             relPosition = position - BCD_Driver_NUM_COM;
2391:Generated_Source\PSoC5/BCD_Driver.c ****             if(dp != 0u)
2392:Generated_Source\PSoC5/BCD_Driver.c ****             {
2393:Generated_Source\PSoC5/BCD_Driver.c ****                 #if(BCD_Driver_SEG_DRIVE == BCD_Driver_HIGH)
2394:Generated_Source\PSoC5/BCD_Driver.c ****                     BCD_Driver_segMBuffer[relPosition] |= value;
2395:Generated_Source\PSoC5/BCD_Driver.c ****                 #else
2396:Generated_Source\PSoC5/BCD_Driver.c ****                     BCD_Driver_segMBuffer[relPosition] &= value;
2397:Generated_Source\PSoC5/BCD_Driver.c ****                 #endif /* (BCD_Driver_SEG_DRIVE == BCD_Driver_HIGH) */
2398:Generated_Source\PSoC5/BCD_Driver.c ****             }
2399:Generated_Source\PSoC5/BCD_Driver.c ****             else
2400:Generated_Source\PSoC5/BCD_Driver.c ****             {
2401:Generated_Source\PSoC5/BCD_Driver.c ****                 #if(BCD_Driver_SEG_DRIVE == BCD_Driver_HIGH)
2402:Generated_Source\PSoC5/BCD_Driver.c ****                     BCD_Driver_segMBuffer[relPosition] &= ((uint8)(~(uint8)value));
2403:Generated_Source\PSoC5/BCD_Driver.c ****                 #else
2404:Generated_Source\PSoC5/BCD_Driver.c ****                     BCD_Driver_segMBuffer[relPosition] |= ((uint8)(~(uint8)value));
2405:Generated_Source\PSoC5/BCD_Driver.c ****                 #endif /* (BCD_Driver_SEG_DRIVE == BCD_Driver_HIGH) */
2406:Generated_Source\PSoC5/BCD_Driver.c ****             }
2407:Generated_Source\PSoC5/BCD_Driver.c ****         #endif /* (BCD_Driver_NUM_SEG > 8u) */
2408:Generated_Source\PSoC5/BCD_Driver.c ****     } 
2409:Generated_Source\PSoC5/BCD_Driver.c ****     else
2410:Generated_Source\PSoC5/BCD_Driver.c ****     {
2411:Generated_Source\PSoC5/BCD_Driver.c ****         #if (BCD_Driver_NUM_SEG > 16u)
2412:Generated_Source\PSoC5/BCD_Driver.c ****             relPosition = position - BCD_Driver_TWO_NUM_COM;
2413:Generated_Source\PSoC5/BCD_Driver.c ****             if(relPosition < BCD_Driver_NUM_COM)
2414:Generated_Source\PSoC5/BCD_Driver.c ****             {
2415:Generated_Source\PSoC5/BCD_Driver.c ****                 if(dp != 0u)
2416:Generated_Source\PSoC5/BCD_Driver.c ****                 {
2417:Generated_Source\PSoC5/BCD_Driver.c ****                     #if(BCD_Driver_SEG_DRIVE == BCD_Driver_HIGH)
2418:Generated_Source\PSoC5/BCD_Driver.c ****                         BCD_Driver_segHBuffer[relPosition] |= value;
2419:Generated_Source\PSoC5/BCD_Driver.c ****                     #else
2420:Generated_Source\PSoC5/BCD_Driver.c ****                         BCD_Driver_segHBuffer[relPosition] &= value;
2421:Generated_Source\PSoC5/BCD_Driver.c ****                     #endif /* (BCD_Driver_SEG_DRIVE == BCD_Driver_HIGH) */
2422:Generated_Source\PSoC5/BCD_Driver.c ****                 }
2423:Generated_Source\PSoC5/BCD_Driver.c ****                 else
2424:Generated_Source\PSoC5/BCD_Driver.c ****                 {
2425:Generated_Source\PSoC5/BCD_Driver.c ****                     #if(BCD_Driver_SEG_DRIVE == BCD_Driver_HIGH)
2426:Generated_Source\PSoC5/BCD_Driver.c ****                         BCD_Driver_segHBuffer[relPosition] &= ((uint8)(~(uint8)value));
2427:Generated_Source\PSoC5/BCD_Driver.c ****                     #else
2428:Generated_Source\PSoC5/BCD_Driver.c ****                         BCD_Driver_segHBuffer[relPosition] |= ((uint8)(~(uint8)value));
2429:Generated_Source\PSoC5/BCD_Driver.c ****                     #endif /* (BCD_Driver_SEG_DRIVE == BCD_Driver_HIGH) */
2430:Generated_Source\PSoC5/BCD_Driver.c ****                 }
2431:Generated_Source\PSoC5/BCD_Driver.c ****             }
ARM GAS  C:\Users\mmoh0006\AppData\Local\Temp\cc2nB4gH.s 			page 58


2432:Generated_Source\PSoC5/BCD_Driver.c ****         #endif /* (BCD_Driver_NUM_SEG > 16u) */
2433:Generated_Source\PSoC5/BCD_Driver.c ****     }
2434:Generated_Source\PSoC5/BCD_Driver.c **** }
2435:Generated_Source\PSoC5/BCD_Driver.c **** 
2436:Generated_Source\PSoC5/BCD_Driver.c **** 
2437:Generated_Source\PSoC5/BCD_Driver.c **** /*******************************************************************************
2438:Generated_Source\PSoC5/BCD_Driver.c **** * Function Name: BCD_Driver_GetDecimalPoint
2439:Generated_Source\PSoC5/BCD_Driver.c **** ********************************************************************************
2440:Generated_Source\PSoC5/BCD_Driver.c **** *
2441:Generated_Source\PSoC5/BCD_Driver.c **** * Summary:
2442:Generated_Source\PSoC5/BCD_Driver.c **** *  Returns zero if the decimal point is not set and one if the decimal point 
2443:Generated_Source\PSoC5/BCD_Driver.c **** *  is set.
2444:Generated_Source\PSoC5/BCD_Driver.c **** *
2445:Generated_Source\PSoC5/BCD_Driver.c **** * Parameters:
2446:Generated_Source\PSoC5/BCD_Driver.c **** *  uint8 position: The position in which to query the decimal point value.
2447:Generated_Source\PSoC5/BCD_Driver.c **** *
2448:Generated_Source\PSoC5/BCD_Driver.c **** * Return:
2449:Generated_Source\PSoC5/BCD_Driver.c **** *  Returns the current state of the decimal point (segment #7 on a 7-seg 
2450:Generated_Source\PSoC5/BCD_Driver.c **** *  display). '1' indicates the decimal point is on. '0' indicates the decimal 
2451:Generated_Source\PSoC5/BCD_Driver.c **** *  point is off.
2452:Generated_Source\PSoC5/BCD_Driver.c **** *
2453:Generated_Source\PSoC5/BCD_Driver.c **** * Side effects:
2454:Generated_Source\PSoC5/BCD_Driver.c **** *  None
2455:Generated_Source\PSoC5/BCD_Driver.c **** *
2456:Generated_Source\PSoC5/BCD_Driver.c **** *******************************************************************************/
2457:Generated_Source\PSoC5/BCD_Driver.c **** uint8 BCD_Driver_GetDecimalPoint(uint8 position) 
2458:Generated_Source\PSoC5/BCD_Driver.c **** {
2459:Generated_Source\PSoC5/BCD_Driver.c ****     uint8 value;
2460:Generated_Source\PSoC5/BCD_Driver.c ****     uint8 relPosition;
2461:Generated_Source\PSoC5/BCD_Driver.c ****     uint8 decPointVal = 0u;
2462:Generated_Source\PSoC5/BCD_Driver.c ****     
2463:Generated_Source\PSoC5/BCD_Driver.c ****     if(position < BCD_Driver_NUM_COM)
2464:Generated_Source\PSoC5/BCD_Driver.c ****     {
2465:Generated_Source\PSoC5/BCD_Driver.c ****         relPosition = position;
2466:Generated_Source\PSoC5/BCD_Driver.c ****         decPointVal = (uint8)((uint8)(BCD_Driver_segLBuffer[relPosition]) >> BCD_Driver_DEC_POINT);
2467:Generated_Source\PSoC5/BCD_Driver.c ****     } 
2468:Generated_Source\PSoC5/BCD_Driver.c ****     else if (position < BCD_Driver_TWO_NUM_COM)
2469:Generated_Source\PSoC5/BCD_Driver.c ****     {
2470:Generated_Source\PSoC5/BCD_Driver.c ****         #if (BCD_Driver_NUM_SEG > 8u) 
2471:Generated_Source\PSoC5/BCD_Driver.c ****             relPosition = position - BCD_Driver_NUM_COM;
2472:Generated_Source\PSoC5/BCD_Driver.c ****             decPointVal = (uint8)((uint8)(BCD_Driver_segMBuffer[relPosition]) >> BCD_Driver_DEC_POI
2473:Generated_Source\PSoC5/BCD_Driver.c ****         #endif /* (BCD_Driver_NUM_SEG > 8u) */
2474:Generated_Source\PSoC5/BCD_Driver.c ****     }
2475:Generated_Source\PSoC5/BCD_Driver.c ****     else
2476:Generated_Source\PSoC5/BCD_Driver.c ****     {
2477:Generated_Source\PSoC5/BCD_Driver.c ****         #if (BCD_Driver_NUM_SEG > 16u)
2478:Generated_Source\PSoC5/BCD_Driver.c ****             relPosition = position - BCD_Driver_TWO_NUM_COM;
2479:Generated_Source\PSoC5/BCD_Driver.c ****             if(relPosition < BCD_Driver_NUM_COM)
2480:Generated_Source\PSoC5/BCD_Driver.c ****             {
2481:Generated_Source\PSoC5/BCD_Driver.c ****                 decPointVal = (uint8)((uint8)(BCD_Driver_segHBuffer[relPosition]) >> BCD_Driver_DEC
2482:Generated_Source\PSoC5/BCD_Driver.c ****             }
2483:Generated_Source\PSoC5/BCD_Driver.c ****         #endif /* (BCD_Driver_NUM_SEG > 16u) */
2484:Generated_Source\PSoC5/BCD_Driver.c ****     }
2485:Generated_Source\PSoC5/BCD_Driver.c ****     
2486:Generated_Source\PSoC5/BCD_Driver.c ****     #if(BCD_Driver_SEG_DRIVE == BCD_Driver_HIGH)
2487:Generated_Source\PSoC5/BCD_Driver.c ****         value = (uint8)(decPointVal & BCD_Driver_DEC_POINT_MASK);
2488:Generated_Source\PSoC5/BCD_Driver.c ****     #else
ARM GAS  C:\Users\mmoh0006\AppData\Local\Temp\cc2nB4gH.s 			page 59


2489:Generated_Source\PSoC5/BCD_Driver.c ****         value = (uint8)((uint8)((uint8)~decPointVal) & BCD_Driver_DEC_POINT_MASK);
2490:Generated_Source\PSoC5/BCD_Driver.c ****     #endif /* (BCD_Driver_SEG_DRIVE == BCD_Driver_HIGH) */
2491:Generated_Source\PSoC5/BCD_Driver.c ****     
2492:Generated_Source\PSoC5/BCD_Driver.c ****     return(value);
2493:Generated_Source\PSoC5/BCD_Driver.c **** }
2494:Generated_Source\PSoC5/BCD_Driver.c **** 
2495:Generated_Source\PSoC5/BCD_Driver.c **** 
2496:Generated_Source\PSoC5/BCD_Driver.c **** /*******************************************************************************
2497:Generated_Source\PSoC5/BCD_Driver.c **** * Function Name: BCD_Driver_EncodeNumber7Seg
2498:Generated_Source\PSoC5/BCD_Driver.c **** ********************************************************************************
2499:Generated_Source\PSoC5/BCD_Driver.c **** *
2500:Generated_Source\PSoC5/BCD_Driver.c **** * Summary:
2501:Generated_Source\PSoC5/BCD_Driver.c **** *  Converts the lower 4 bits of the input into 7-segment data that will display 
2502:Generated_Source\PSoC5/BCD_Driver.c **** *  the number in hex on a display. The returned data can be written directly 
2503:Generated_Source\PSoC5/BCD_Driver.c **** *  into the display RAM to display the desired number. It is not necessary to 
2504:Generated_Source\PSoC5/BCD_Driver.c **** *  use this function since higher level API are provided to both decode the 
2505:Generated_Source\PSoC5/BCD_Driver.c **** *  value and write it to the display RAM.
2506:Generated_Source\PSoC5/BCD_Driver.c **** *
2507:Generated_Source\PSoC5/BCD_Driver.c **** * Parameters:
2508:Generated_Source\PSoC5/BCD_Driver.c **** *  uint8 number: A number between 0x0 and 0xF to be converted into segment data.
2509:Generated_Source\PSoC5/BCD_Driver.c **** *
2510:Generated_Source\PSoC5/BCD_Driver.c **** * Return:
2511:Generated_Source\PSoC5/BCD_Driver.c **** *  The value to be written into the display RAM for displaying the specific
2512:Generated_Source\PSoC5/BCD_Driver.c **** *  number.
2513:Generated_Source\PSoC5/BCD_Driver.c **** *
2514:Generated_Source\PSoC5/BCD_Driver.c **** * Side effects:
2515:Generated_Source\PSoC5/BCD_Driver.c **** *  None
2516:Generated_Source\PSoC5/BCD_Driver.c **** *
2517:Generated_Source\PSoC5/BCD_Driver.c **** *******************************************************************************/
2518:Generated_Source\PSoC5/BCD_Driver.c **** uint8 BCD_Driver_EncodeNumber7Seg(uint8 number) 
2519:Generated_Source\PSoC5/BCD_Driver.c **** {
2520:Generated_Source\PSoC5/BCD_Driver.c ****     /* 7-segment numerical LUT */
2521:Generated_Source\PSoC5/BCD_Driver.c ****     #if(BCD_Driver_SEG_DRIVE == BCD_Driver_HIGH)
2522:Generated_Source\PSoC5/BCD_Driver.c ****         static const uint8 CYCODE BCD_Driver_7SegDigits[16] =
2523:Generated_Source\PSoC5/BCD_Driver.c ****               /*--------------------------------------------------------*/
2524:Generated_Source\PSoC5/BCD_Driver.c ****               /*  '0'    '1'    '2'    '3'    '4'    '5'    '6'    '7'  */
2525:Generated_Source\PSoC5/BCD_Driver.c ****               /*--------------------------------------------------------*/
2526:Generated_Source\PSoC5/BCD_Driver.c ****                 {0x3fu, 0x06u, 0x5bu, 0x4fu, 0x66u, 0x6du, 0x7du, 0x07u,
2527:Generated_Source\PSoC5/BCD_Driver.c ****               /*--------------------------------------------------------*/
2528:Generated_Source\PSoC5/BCD_Driver.c ****               /*  '8'    '9'    'A'    'B'    'C'    'D'    'E'    'F'  */
2529:Generated_Source\PSoC5/BCD_Driver.c ****               /*--------------------------------------------------------*/
2530:Generated_Source\PSoC5/BCD_Driver.c ****                  0x7fu, 0x6fu, 0x77u, 0x7cu, 0x39u, 0x5eu, 0x79u, 0x71u};
2531:Generated_Source\PSoC5/BCD_Driver.c ****     #else
2532:Generated_Source\PSoC5/BCD_Driver.c ****         static const uint8 CYCODE BCD_Driver_7SegDigits[16] =
2533:Generated_Source\PSoC5/BCD_Driver.c ****               /*--------------------------------------------------------*/
2534:Generated_Source\PSoC5/BCD_Driver.c ****               /*  '0'    '1'    '2'    '3'    '4'    '5'    '6'    '7'  */
2535:Generated_Source\PSoC5/BCD_Driver.c ****               /*--------------------------------------------------------*/
2536:Generated_Source\PSoC5/BCD_Driver.c ****                 {0xc0u, 0xf9u, 0xa4u, 0xb0u, 0x99u, 0x92u, 0x82u, 0xf8u,
2537:Generated_Source\PSoC5/BCD_Driver.c ****               /*--------------------------------------------------------*/
2538:Generated_Source\PSoC5/BCD_Driver.c ****               /*  '8'    '9'    'A'    'B'    'C'    'D'    'E'    'F'  */
2539:Generated_Source\PSoC5/BCD_Driver.c ****               /*--------------------------------------------------------*/
2540:Generated_Source\PSoC5/BCD_Driver.c ****                  0x80u, 0x90u, 0x88u, 0x83u, 0xc6u, 0xa1u, 0x86u, 0x8eu};
2541:Generated_Source\PSoC5/BCD_Driver.c ****     #endif /*  BCD_Driver_SEG_DRIVE */
2542:Generated_Source\PSoC5/BCD_Driver.c **** 
2543:Generated_Source\PSoC5/BCD_Driver.c ****     uint8 valNum;
2544:Generated_Source\PSoC5/BCD_Driver.c ****     uint8 valHex;
2545:Generated_Source\PSoC5/BCD_Driver.c ****     
ARM GAS  C:\Users\mmoh0006\AppData\Local\Temp\cc2nB4gH.s 			page 60


2546:Generated_Source\PSoC5/BCD_Driver.c ****     valNum = (uint8)(number & BCD_Driver_NIBBLE_MASK);
2547:Generated_Source\PSoC5/BCD_Driver.c ****     
2548:Generated_Source\PSoC5/BCD_Driver.c ****     valHex = BCD_Driver_7SegDigits[valNum];
 746              		.loc 1 2548 0
 747 002c DFF8ECC0 		ldr	ip, .L107+4
 748              	.LBE31:
 749              	.LBE30:
 934:Generated_Source\PSoC5/BCD_Driver.c ****     }
 750              		.loc 1 934 0
 751 0030 ACBF     		ite	ge
 752 0032 0027     		movge	r7, #0
 939:Generated_Source\PSoC5/BCD_Driver.c ****         numberSign = BCD_Driver_SIGNED;
 753              		.loc 1 939 0
 754 0034 0127     		movlt	r7, #1
 755              	.LVL80:
 756 0036 0A26     		movs	r6, #10
 757              	.LVL81:
 758              	.L76:
 943:Generated_Source\PSoC5/BCD_Driver.c ****     {
 759              		.loc 1 943 0 discriminator 1
 760 0038 78B1     		cbz	r0, .L104
 761              	.LVL82:
 946:Generated_Source\PSoC5/BCD_Driver.c ****         numberVal = numberVal / 10u;
 762              		.loc 1 946 0 discriminator 3
 763 003a 0DF1080E 		add	lr, sp, #8
 764 003e 0EEB0008 		add	r8, lr, r0
 765 0042 B5FBF6FE 		udiv	lr, r5, r6
 766 0046 06FB1E55 		mls	r5, r6, lr, r5
 767              	.LVL83:
 768 004a 1CF80550 		ldrb	r5, [ip, r5]	@ zero_extendqisi2
 943:Generated_Source\PSoC5/BCD_Driver.c ****     {
 769              		.loc 1 943 0 discriminator 3
 770 004e 0138     		subs	r0, r0, #1
 771              	.LVL84:
 946:Generated_Source\PSoC5/BCD_Driver.c ****         numberVal = numberVal / 10u;
 772              		.loc 1 946 0 discriminator 3
 773 0050 08F8095C 		strb	r5, [r8, #-9]
 943:Generated_Source\PSoC5/BCD_Driver.c ****     {
 774              		.loc 1 943 0 discriminator 3
 775 0054 C0B2     		uxtb	r0, r0
 947:Generated_Source\PSoC5/BCD_Driver.c ****     }
 776              		.loc 1 947 0 discriminator 3
 777 0056 7546     		mov	r5, lr
 778              	.LVL85:
 779 0058 EEE7     		b	.L76
 780              	.L104:
 951:Generated_Source\PSoC5/BCD_Driver.c ****     {
 781              		.loc 1 951 0
 782 005a 022B     		cmp	r3, #2
 783 005c 05D0     		beq	.L78
 784 005e 0646     		mov	r6, r0
 983:Generated_Source\PSoC5/BCD_Driver.c ****                 {
 785              		.loc 1 983 0 discriminator 1
 786 0060 02F1FF3E 		add	lr, r2, #-1
 986:Generated_Source\PSoC5/BCD_Driver.c ****                     zeroCount++;
 787              		.loc 1 986 0 discriminator 1
 788 0064 4FF0FF0C 		mov	ip, #255
ARM GAS  C:\Users\mmoh0006\AppData\Local\Temp\cc2nB4gH.s 			page 61


 789 0068 11E0     		b	.L79
 790              	.L78:
 953:Generated_Source\PSoC5/BCD_Driver.c ****         {
 791              		.loc 1 953 0
 792 006a 002F     		cmp	r7, #0
 793 006c 3FD0     		beq	.L80
 956:Generated_Source\PSoC5/BCD_Driver.c ****         }
 794              		.loc 1 956 0
 795 006e BF23     		movs	r3, #191
 796              	.LVL86:
 797 0070 8DF80030 		strb	r3, [sp]
 798 0074 3BE0     		b	.L80
 799              	.LVL87:
 800              	.L85:
 963:Generated_Source\PSoC5/BCD_Driver.c ****             {
 801              		.loc 1 963 0
 802 0076 1DF80080 		ldrb	r8, [sp, r0]	@ zero_extendqisi2
 803 007a B8F1C00F 		cmp	r8, #192
 804 007e 0AD1     		bne	.L105
 983:Generated_Source\PSoC5/BCD_Driver.c ****                 {
 805              		.loc 1 983 0
 806 0080 7645     		cmp	r6, lr
 987:Generated_Source\PSoC5/BCD_Driver.c ****                 }
 807              		.loc 1 987 0
 808 0082 1EBF     		ittt	ne
 809 0084 0136     		addne	r6, r6, #1
 810              	.LVL88:
 986:Generated_Source\PSoC5/BCD_Driver.c ****                     zeroCount++;
 811              		.loc 1 986 0
 812 0086 0DF800C0 		strbne	ip, [sp, r0]
 987:Generated_Source\PSoC5/BCD_Driver.c ****                 }
 813              		.loc 1 987 0
 814 008a F6B2     		uxtbne	r6, r6
 815              	.LVL89:
 816 008c 0130     		adds	r0, r0, #1
 817              	.LVL90:
 818              	.L79:
 819 008e C5B2     		uxtb	r5, r0
 820              	.LVL91:
 961:Generated_Source\PSoC5/BCD_Driver.c ****         {
 821              		.loc 1 961 0 discriminator 1
 822 0090 9542     		cmp	r5, r2
 823 0092 F0D3     		bcc	.L85
 824 0094 0BE0     		b	.L82
 825              	.L105:
 965:Generated_Source\PSoC5/BCD_Driver.c ****                 {
 826              		.loc 1 965 0
 827 0096 57B1     		cbz	r7, .L82
 828 0098 BF26     		movs	r6, #191
 829              	.LVL92:
 967:Generated_Source\PSoC5/BCD_Driver.c ****                     {
 830              		.loc 1 967 0
 831 009a 25B9     		cbnz	r5, .L83
 970:Generated_Source\PSoC5/BCD_Driver.c ****                     }
 832              		.loc 1 970 0
 833 009c 02AD     		add	r5, sp, #8
 834              	.LVL93:
ARM GAS  C:\Users\mmoh0006\AppData\Local\Temp\cc2nB4gH.s 			page 62


 835 009e 2844     		add	r0, r0, r5
 836              	.LVL94:
 837 00a0 00F8086C 		strb	r6, [r0, #-8]
 838 00a4 03E0     		b	.L82
 839              	.LVL95:
 840              	.L83:
 975:Generated_Source\PSoC5/BCD_Driver.c ****                     }
 841              		.loc 1 975 0
 842 00a6 02A8     		add	r0, sp, #8
 843 00a8 0544     		add	r5, r5, r0
 844              	.LVL96:
 845 00aa 05F8096C 		strb	r6, [r5, #-9]
 846              	.L82:
 994:Generated_Source\PSoC5/BCD_Driver.c ****     {
 847              		.loc 1 994 0
 848 00ae 012B     		cmp	r3, #1
 849 00b0 1DD1     		bne	.L80
1006:Generated_Source\PSoC5/BCD_Driver.c ****                             break;
 850              		.loc 1 1006 0 discriminator 1
 851 00b2 194E     		ldr	r6, .L107
 852 00b4 0023     		movs	r3, #0
 853              	.LVL97:
1003:Generated_Source\PSoC5/BCD_Driver.c ****                     {
 854              		.loc 1 1003 0 discriminator 1
