ARM GAS  C:\Users\Zwe\AppData\Local\Temp\cc4T6F5G.s 			page 1


   1              		.syntax unified
   2              		.cpu cortex-m3
   3              		.fpu softvfp
   4              		.eabi_attribute 20, 1
   5              		.eabi_attribute 21, 1
   6              		.eabi_attribute 23, 3
   7              		.eabi_attribute 24, 1
   8              		.eabi_attribute 25, 1
   9              		.eabi_attribute 26, 1
  10              		.eabi_attribute 30, 4
  11              		.eabi_attribute 34, 1
  12              		.eabi_attribute 18, 4
  13              		.thumb
  14              		.syntax unified
  15              		.file	"cyfitter_cfg.c"
  16              		.text
  17              	.Ltext0:
  18              		.cfi_sections	.debug_frame
  19              		.section	.text.SetAnalogRoutingPumps,"ax",%progbits
  20              		.align	1
  21              		.global	SetAnalogRoutingPumps
  22              		.thumb
  23              		.thumb_func
  24              		.type	SetAnalogRoutingPumps, %function
  25              	SetAnalogRoutingPumps:
  26              	.LFB7:
  27              		.file 1 "Generated_Source\\PSoC5\\cyfitter_cfg.c"
   1:Generated_Source\PSoC5/cyfitter_cfg.c **** 
   2:Generated_Source\PSoC5/cyfitter_cfg.c **** /*******************************************************************************
   3:Generated_Source\PSoC5/cyfitter_cfg.c **** * File Name: cyfitter_cfg.c
   4:Generated_Source\PSoC5/cyfitter_cfg.c **** * 
   5:Generated_Source\PSoC5/cyfitter_cfg.c **** * PSoC Creator  4.2
   6:Generated_Source\PSoC5/cyfitter_cfg.c **** *
   7:Generated_Source\PSoC5/cyfitter_cfg.c **** * Description:
   8:Generated_Source\PSoC5/cyfitter_cfg.c **** * This file contains device initialization code.
   9:Generated_Source\PSoC5/cyfitter_cfg.c **** * Except for the user defined sections in CyClockStartupError(), this file should not be modified.
  10:Generated_Source\PSoC5/cyfitter_cfg.c **** * This file is automatically generated by PSoC Creator.
  11:Generated_Source\PSoC5/cyfitter_cfg.c **** *
  12:Generated_Source\PSoC5/cyfitter_cfg.c **** ********************************************************************************
  13:Generated_Source\PSoC5/cyfitter_cfg.c **** * Copyright (c) 2007-2018 Cypress Semiconductor.  All rights reserved.
  14:Generated_Source\PSoC5/cyfitter_cfg.c **** * You may use this file only in accordance with the license, terms, conditions, 
  15:Generated_Source\PSoC5/cyfitter_cfg.c **** * disclaimers, and limitations in the end user license agreement accompanying 
  16:Generated_Source\PSoC5/cyfitter_cfg.c **** * the software package with which this file was provided.
  17:Generated_Source\PSoC5/cyfitter_cfg.c **** ********************************************************************************/
  18:Generated_Source\PSoC5/cyfitter_cfg.c **** 
  19:Generated_Source\PSoC5/cyfitter_cfg.c **** #include <string.h>
  20:Generated_Source\PSoC5/cyfitter_cfg.c **** #include "cytypes.h"
  21:Generated_Source\PSoC5/cyfitter_cfg.c **** #include "cydevice_trm.h"
  22:Generated_Source\PSoC5/cyfitter_cfg.c **** #include "cyfitter.h"
  23:Generated_Source\PSoC5/cyfitter_cfg.c **** #include "CyLib.h"
  24:Generated_Source\PSoC5/cyfitter_cfg.c **** #include "cyfitter_cfg.h"
  25:Generated_Source\PSoC5/cyfitter_cfg.c **** #include "cyapicallbacks.h"
  26:Generated_Source\PSoC5/cyfitter_cfg.c **** 
  27:Generated_Source\PSoC5/cyfitter_cfg.c **** #define CY_NEED_CYCLOCKSTARTUPERROR 1
  28:Generated_Source\PSoC5/cyfitter_cfg.c **** 
  29:Generated_Source\PSoC5/cyfitter_cfg.c **** 
  30:Generated_Source\PSoC5/cyfitter_cfg.c **** #if defined(__GNUC__) || defined(__ARMCC_VERSION)
ARM GAS  C:\Users\Zwe\AppData\Local\Temp\cc4T6F5G.s 			page 2


  31:Generated_Source\PSoC5/cyfitter_cfg.c ****     #define CYPACKED 
  32:Generated_Source\PSoC5/cyfitter_cfg.c ****     #define CYPACKED_ATTR __attribute__ ((packed))
  33:Generated_Source\PSoC5/cyfitter_cfg.c ****     #define CYALIGNED __attribute__ ((aligned))
  34:Generated_Source\PSoC5/cyfitter_cfg.c ****     #define CY_CFG_UNUSED __attribute__ ((unused))
  35:Generated_Source\PSoC5/cyfitter_cfg.c ****     #ifndef CY_CFG_SECTION
  36:Generated_Source\PSoC5/cyfitter_cfg.c ****         #define CY_CFG_SECTION __attribute__ ((section(".psocinit")))
  37:Generated_Source\PSoC5/cyfitter_cfg.c ****     #endif
  38:Generated_Source\PSoC5/cyfitter_cfg.c ****     
  39:Generated_Source\PSoC5/cyfitter_cfg.c ****     #if defined(__ARMCC_VERSION)
  40:Generated_Source\PSoC5/cyfitter_cfg.c ****         #define CY_CFG_MEMORY_BARRIER() __memory_changed()
  41:Generated_Source\PSoC5/cyfitter_cfg.c ****     #else
  42:Generated_Source\PSoC5/cyfitter_cfg.c ****         #define CY_CFG_MEMORY_BARRIER() __sync_synchronize()
  43:Generated_Source\PSoC5/cyfitter_cfg.c ****     #endif
  44:Generated_Source\PSoC5/cyfitter_cfg.c ****     
  45:Generated_Source\PSoC5/cyfitter_cfg.c **** #elif defined(__ICCARM__)
  46:Generated_Source\PSoC5/cyfitter_cfg.c ****     #include <intrinsics.h>
  47:Generated_Source\PSoC5/cyfitter_cfg.c **** 
  48:Generated_Source\PSoC5/cyfitter_cfg.c ****     #define CYPACKED __packed
  49:Generated_Source\PSoC5/cyfitter_cfg.c ****     #define CYPACKED_ATTR 
  50:Generated_Source\PSoC5/cyfitter_cfg.c ****     #define CYALIGNED _Pragma("data_alignment=4")
  51:Generated_Source\PSoC5/cyfitter_cfg.c ****     #define CY_CFG_UNUSED _Pragma("diag_suppress=Pe177")
  52:Generated_Source\PSoC5/cyfitter_cfg.c ****     #define CY_CFG_SECTION _Pragma("location=\".psocinit\"")
  53:Generated_Source\PSoC5/cyfitter_cfg.c ****     
  54:Generated_Source\PSoC5/cyfitter_cfg.c ****     #define CY_CFG_MEMORY_BARRIER() __DMB()
  55:Generated_Source\PSoC5/cyfitter_cfg.c ****     
  56:Generated_Source\PSoC5/cyfitter_cfg.c **** #else
  57:Generated_Source\PSoC5/cyfitter_cfg.c ****     #error Unsupported toolchain
  58:Generated_Source\PSoC5/cyfitter_cfg.c **** #endif
  59:Generated_Source\PSoC5/cyfitter_cfg.c **** 
  60:Generated_Source\PSoC5/cyfitter_cfg.c **** #ifndef CYCODE
  61:Generated_Source\PSoC5/cyfitter_cfg.c ****     #define CYCODE
  62:Generated_Source\PSoC5/cyfitter_cfg.c **** #endif
  63:Generated_Source\PSoC5/cyfitter_cfg.c **** #ifndef CYDATA
  64:Generated_Source\PSoC5/cyfitter_cfg.c ****     #define CYDATA
  65:Generated_Source\PSoC5/cyfitter_cfg.c **** #endif
  66:Generated_Source\PSoC5/cyfitter_cfg.c **** #ifndef CYFAR
  67:Generated_Source\PSoC5/cyfitter_cfg.c ****     #define CYFAR
  68:Generated_Source\PSoC5/cyfitter_cfg.c **** #endif
  69:Generated_Source\PSoC5/cyfitter_cfg.c **** #ifndef CYXDATA
  70:Generated_Source\PSoC5/cyfitter_cfg.c ****     #define CYXDATA
  71:Generated_Source\PSoC5/cyfitter_cfg.c **** #endif
  72:Generated_Source\PSoC5/cyfitter_cfg.c **** 
  73:Generated_Source\PSoC5/cyfitter_cfg.c **** 
  74:Generated_Source\PSoC5/cyfitter_cfg.c **** CY_CFG_UNUSED
  75:Generated_Source\PSoC5/cyfitter_cfg.c **** static void CYMEMZERO(void *s, size_t n);
  76:Generated_Source\PSoC5/cyfitter_cfg.c **** CY_CFG_UNUSED
  77:Generated_Source\PSoC5/cyfitter_cfg.c **** static void CYMEMZERO(void *s, size_t n)
  78:Generated_Source\PSoC5/cyfitter_cfg.c **** {
  79:Generated_Source\PSoC5/cyfitter_cfg.c **** 	(void)memset(s, 0, n);
  80:Generated_Source\PSoC5/cyfitter_cfg.c **** }
  81:Generated_Source\PSoC5/cyfitter_cfg.c **** CY_CFG_UNUSED
  82:Generated_Source\PSoC5/cyfitter_cfg.c **** static void CYCONFIGCPY(void *dest, const void *src, size_t n);
  83:Generated_Source\PSoC5/cyfitter_cfg.c **** CY_CFG_UNUSED
  84:Generated_Source\PSoC5/cyfitter_cfg.c **** static void CYCONFIGCPY(void *dest, const void *src, size_t n)
  85:Generated_Source\PSoC5/cyfitter_cfg.c **** {
  86:Generated_Source\PSoC5/cyfitter_cfg.c **** 	(void)memcpy(dest, src, n);
  87:Generated_Source\PSoC5/cyfitter_cfg.c **** }
ARM GAS  C:\Users\Zwe\AppData\Local\Temp\cc4T6F5G.s 			page 3


  88:Generated_Source\PSoC5/cyfitter_cfg.c **** CY_CFG_UNUSED
  89:Generated_Source\PSoC5/cyfitter_cfg.c **** static void CYCONFIGCPYCODE(void *dest, const void *src, size_t n);
  90:Generated_Source\PSoC5/cyfitter_cfg.c **** CY_CFG_UNUSED
  91:Generated_Source\PSoC5/cyfitter_cfg.c **** static void CYCONFIGCPYCODE(void *dest, const void *src, size_t n)
  92:Generated_Source\PSoC5/cyfitter_cfg.c **** {
  93:Generated_Source\PSoC5/cyfitter_cfg.c **** 	(void)memcpy(dest, src, n);
  94:Generated_Source\PSoC5/cyfitter_cfg.c **** }
  95:Generated_Source\PSoC5/cyfitter_cfg.c **** 
  96:Generated_Source\PSoC5/cyfitter_cfg.c **** 
  97:Generated_Source\PSoC5/cyfitter_cfg.c **** 
  98:Generated_Source\PSoC5/cyfitter_cfg.c **** 
  99:Generated_Source\PSoC5/cyfitter_cfg.c **** /* Clock startup error codes                                                   */
 100:Generated_Source\PSoC5/cyfitter_cfg.c **** #define CYCLOCKSTART_NO_ERROR    0u
 101:Generated_Source\PSoC5/cyfitter_cfg.c **** #define CYCLOCKSTART_XTAL_ERROR  1u
 102:Generated_Source\PSoC5/cyfitter_cfg.c **** #define CYCLOCKSTART_32KHZ_ERROR 2u
 103:Generated_Source\PSoC5/cyfitter_cfg.c **** #define CYCLOCKSTART_PLL_ERROR   3u
 104:Generated_Source\PSoC5/cyfitter_cfg.c **** #define CYCLOCKSTART_FLL_ERROR   4u
 105:Generated_Source\PSoC5/cyfitter_cfg.c **** #define CYCLOCKSTART_WCO_ERROR   5u
 106:Generated_Source\PSoC5/cyfitter_cfg.c **** 
 107:Generated_Source\PSoC5/cyfitter_cfg.c **** 
 108:Generated_Source\PSoC5/cyfitter_cfg.c **** #ifdef CY_NEED_CYCLOCKSTARTUPERROR
 109:Generated_Source\PSoC5/cyfitter_cfg.c **** /*******************************************************************************
 110:Generated_Source\PSoC5/cyfitter_cfg.c **** * Function Name: CyClockStartupError
 111:Generated_Source\PSoC5/cyfitter_cfg.c **** ********************************************************************************
 112:Generated_Source\PSoC5/cyfitter_cfg.c **** * Summary:
 113:Generated_Source\PSoC5/cyfitter_cfg.c **** *  If an error is encountered during clock configuration (crystal startup error,
 114:Generated_Source\PSoC5/cyfitter_cfg.c **** *  PLL lock error, etc.), the system will end up here.  Unless reimplemented by
 115:Generated_Source\PSoC5/cyfitter_cfg.c **** *  the customer, this function will stop in an infinite loop.
 116:Generated_Source\PSoC5/cyfitter_cfg.c **** *
 117:Generated_Source\PSoC5/cyfitter_cfg.c **** * Parameters:
 118:Generated_Source\PSoC5/cyfitter_cfg.c **** *   void
 119:Generated_Source\PSoC5/cyfitter_cfg.c **** *
 120:Generated_Source\PSoC5/cyfitter_cfg.c **** * Return:
 121:Generated_Source\PSoC5/cyfitter_cfg.c **** *   void
 122:Generated_Source\PSoC5/cyfitter_cfg.c **** *
 123:Generated_Source\PSoC5/cyfitter_cfg.c **** *******************************************************************************/
 124:Generated_Source\PSoC5/cyfitter_cfg.c **** CY_CFG_UNUSED
 125:Generated_Source\PSoC5/cyfitter_cfg.c **** static void CyClockStartupError(uint8 errorCode);
 126:Generated_Source\PSoC5/cyfitter_cfg.c **** CY_CFG_UNUSED
 127:Generated_Source\PSoC5/cyfitter_cfg.c **** static void CyClockStartupError(uint8 errorCode)
 128:Generated_Source\PSoC5/cyfitter_cfg.c **** {
 129:Generated_Source\PSoC5/cyfitter_cfg.c ****     /* To remove the compiler warning if errorCode not used.                */
 130:Generated_Source\PSoC5/cyfitter_cfg.c ****     errorCode = errorCode;
 131:Generated_Source\PSoC5/cyfitter_cfg.c **** 
 132:Generated_Source\PSoC5/cyfitter_cfg.c ****     /* If we have a clock startup error (bad MHz crystal, PLL lock, etc.),  */
 133:Generated_Source\PSoC5/cyfitter_cfg.c ****     /* we will end up here to allow the customer to implement something to  */
 134:Generated_Source\PSoC5/cyfitter_cfg.c ****     /* deal with the clock condition.                                       */
 135:Generated_Source\PSoC5/cyfitter_cfg.c **** 
 136:Generated_Source\PSoC5/cyfitter_cfg.c **** #ifdef CY_CFG_CLOCK_STARTUP_ERROR_CALLBACK
 137:Generated_Source\PSoC5/cyfitter_cfg.c ****     CY_CFG_Clock_Startup_ErrorCallback();
 138:Generated_Source\PSoC5/cyfitter_cfg.c **** #else
 139:Generated_Source\PSoC5/cyfitter_cfg.c ****     /*  If not using CY_CFG_CLOCK_STARTUP_ERROR_CALLBACK, place your clock startup code here. */
 140:Generated_Source\PSoC5/cyfitter_cfg.c ****     /* `#START CyClockStartupError` */
 141:Generated_Source\PSoC5/cyfitter_cfg.c **** 
 142:Generated_Source\PSoC5/cyfitter_cfg.c **** 
 143:Generated_Source\PSoC5/cyfitter_cfg.c **** 
 144:Generated_Source\PSoC5/cyfitter_cfg.c ****     /* `#END` */
ARM GAS  C:\Users\Zwe\AppData\Local\Temp\cc4T6F5G.s 			page 4


 145:Generated_Source\PSoC5/cyfitter_cfg.c **** 
 146:Generated_Source\PSoC5/cyfitter_cfg.c ****     while(1) {}
 147:Generated_Source\PSoC5/cyfitter_cfg.c **** #endif /* CY_CFG_CLOCK_STARTUP_ERROR_CALLBACK */
 148:Generated_Source\PSoC5/cyfitter_cfg.c **** }
 149:Generated_Source\PSoC5/cyfitter_cfg.c **** #endif
 150:Generated_Source\PSoC5/cyfitter_cfg.c **** 
 151:Generated_Source\PSoC5/cyfitter_cfg.c **** #define CY_CFG_BASE_ADDR_COUNT 31u
 152:Generated_Source\PSoC5/cyfitter_cfg.c **** CYPACKED typedef struct
 153:Generated_Source\PSoC5/cyfitter_cfg.c **** {
 154:Generated_Source\PSoC5/cyfitter_cfg.c **** 	uint8 offset;
 155:Generated_Source\PSoC5/cyfitter_cfg.c **** 	uint8 value;
 156:Generated_Source\PSoC5/cyfitter_cfg.c **** } CYPACKED_ATTR cy_cfg_addrvalue_t;
 157:Generated_Source\PSoC5/cyfitter_cfg.c **** 
 158:Generated_Source\PSoC5/cyfitter_cfg.c **** #define cy_cfg_addr_table ((const uint32 CYFAR *)0x48000000u)
 159:Generated_Source\PSoC5/cyfitter_cfg.c **** #define cy_cfg_data_table ((const cy_cfg_addrvalue_t CYFAR *)0x4800007Cu)
 160:Generated_Source\PSoC5/cyfitter_cfg.c **** 
 161:Generated_Source\PSoC5/cyfitter_cfg.c **** /* IOPORT_7 Address: CYDEV_PRTDSI_PRT12_BASE Size (bytes): 6 */
 162:Generated_Source\PSoC5/cyfitter_cfg.c **** #define BS_IOPORT_7_VAL ((const uint8 CYFAR *)0x480008F4u)
 163:Generated_Source\PSoC5/cyfitter_cfg.c **** 
 164:Generated_Source\PSoC5/cyfitter_cfg.c **** /* UDB_0_0_1_CONFIG Address: CYDEV_UCFG_B1_P5_U1_BASE Size (bytes): 128 */
 165:Generated_Source\PSoC5/cyfitter_cfg.c **** #define BS_UDB_0_0_1_CONFIG_VAL ((const uint8 CYFAR *)0x480008FCu)
 166:Generated_Source\PSoC5/cyfitter_cfg.c **** 
 167:Generated_Source\PSoC5/cyfitter_cfg.c **** /* IOPINS0_0 Address: CYREG_PRT0_DR Size (bytes): 10 */
 168:Generated_Source\PSoC5/cyfitter_cfg.c **** #define BS_IOPINS0_0_VAL ((const uint8 CYFAR *)0x4800097Cu)
 169:Generated_Source\PSoC5/cyfitter_cfg.c **** 
 170:Generated_Source\PSoC5/cyfitter_cfg.c **** /* IOPINS0_7 Address: CYREG_PRT12_DR Size (bytes): 10 */
 171:Generated_Source\PSoC5/cyfitter_cfg.c **** #define BS_IOPINS0_7_VAL ((const uint8 CYFAR *)0x48000988u)
 172:Generated_Source\PSoC5/cyfitter_cfg.c **** 
 173:Generated_Source\PSoC5/cyfitter_cfg.c **** /* IOPINS0_1 Address: CYREG_PRT1_DM0 Size (bytes): 8 */
 174:Generated_Source\PSoC5/cyfitter_cfg.c **** #define BS_IOPINS0_1_VAL ((const uint8 CYFAR *)0x48000994u)
 175:Generated_Source\PSoC5/cyfitter_cfg.c **** 
 176:Generated_Source\PSoC5/cyfitter_cfg.c **** /* IOPINS0_2 Address: CYREG_PRT2_DM0 Size (bytes): 8 */
 177:Generated_Source\PSoC5/cyfitter_cfg.c **** #define BS_IOPINS0_2_VAL ((const uint8 CYFAR *)0x4800099Cu)
 178:Generated_Source\PSoC5/cyfitter_cfg.c **** 
 179:Generated_Source\PSoC5/cyfitter_cfg.c **** 
 180:Generated_Source\PSoC5/cyfitter_cfg.c **** /*******************************************************************************
 181:Generated_Source\PSoC5/cyfitter_cfg.c **** * Function Name: cfg_write_bytes32
 182:Generated_Source\PSoC5/cyfitter_cfg.c **** ********************************************************************************
 183:Generated_Source\PSoC5/cyfitter_cfg.c **** * Summary:
 184:Generated_Source\PSoC5/cyfitter_cfg.c **** *  This function is used for setting up the chip configuration areas that
 185:Generated_Source\PSoC5/cyfitter_cfg.c **** *  contain relatively sparse data.
 186:Generated_Source\PSoC5/cyfitter_cfg.c **** *
 187:Generated_Source\PSoC5/cyfitter_cfg.c **** * Parameters:
 188:Generated_Source\PSoC5/cyfitter_cfg.c **** *   void
 189:Generated_Source\PSoC5/cyfitter_cfg.c **** *
 190:Generated_Source\PSoC5/cyfitter_cfg.c **** * Return:
 191:Generated_Source\PSoC5/cyfitter_cfg.c **** *   void
 192:Generated_Source\PSoC5/cyfitter_cfg.c **** *
 193:Generated_Source\PSoC5/cyfitter_cfg.c **** *******************************************************************************/
 194:Generated_Source\PSoC5/cyfitter_cfg.c **** static void cfg_write_bytes32(const uint32 addr_table[], const cy_cfg_addrvalue_t data_table[]);
 195:Generated_Source\PSoC5/cyfitter_cfg.c **** static void cfg_write_bytes32(const uint32 addr_table[], const cy_cfg_addrvalue_t data_table[])
 196:Generated_Source\PSoC5/cyfitter_cfg.c **** {
 197:Generated_Source\PSoC5/cyfitter_cfg.c **** 	/* For 32-bit little-endian architectures */
 198:Generated_Source\PSoC5/cyfitter_cfg.c **** 	uint32 i, j = 0u;
 199:Generated_Source\PSoC5/cyfitter_cfg.c **** 	for (i = 0u; i < CY_CFG_BASE_ADDR_COUNT; i++)
 200:Generated_Source\PSoC5/cyfitter_cfg.c **** 	{
 201:Generated_Source\PSoC5/cyfitter_cfg.c **** 		uint32 baseAddr = addr_table[i];
ARM GAS  C:\Users\Zwe\AppData\Local\Temp\cc4T6F5G.s 			page 5


 202:Generated_Source\PSoC5/cyfitter_cfg.c **** 		uint8 count = (uint8)baseAddr;
 203:Generated_Source\PSoC5/cyfitter_cfg.c **** 		baseAddr &= 0xFFFFFF00u;
 204:Generated_Source\PSoC5/cyfitter_cfg.c **** 		while (count != 0u)
 205:Generated_Source\PSoC5/cyfitter_cfg.c **** 		{
 206:Generated_Source\PSoC5/cyfitter_cfg.c **** 			CY_SET_REG8((void *)(baseAddr + data_table[j].offset), data_table[j].value);
 207:Generated_Source\PSoC5/cyfitter_cfg.c **** 			j++;
 208:Generated_Source\PSoC5/cyfitter_cfg.c **** 			count--;
 209:Generated_Source\PSoC5/cyfitter_cfg.c **** 		}
 210:Generated_Source\PSoC5/cyfitter_cfg.c **** 	}
 211:Generated_Source\PSoC5/cyfitter_cfg.c **** }
 212:Generated_Source\PSoC5/cyfitter_cfg.c **** 
 213:Generated_Source\PSoC5/cyfitter_cfg.c **** /*******************************************************************************
 214:Generated_Source\PSoC5/cyfitter_cfg.c **** * Function Name: ClockSetup
 215:Generated_Source\PSoC5/cyfitter_cfg.c **** ********************************************************************************
 216:Generated_Source\PSoC5/cyfitter_cfg.c **** *
 217:Generated_Source\PSoC5/cyfitter_cfg.c **** * Summary:
 218:Generated_Source\PSoC5/cyfitter_cfg.c **** *  Performs the initialization of all of the clocks in the device based on the
 219:Generated_Source\PSoC5/cyfitter_cfg.c **** *  settings in the Clock tab of the DWR.  This includes enabling the requested
 220:Generated_Source\PSoC5/cyfitter_cfg.c **** *  clocks and setting the necessary dividers to produce the desired frequency. 
 221:Generated_Source\PSoC5/cyfitter_cfg.c **** *
 222:Generated_Source\PSoC5/cyfitter_cfg.c **** * Parameters:
 223:Generated_Source\PSoC5/cyfitter_cfg.c **** *  void
 224:Generated_Source\PSoC5/cyfitter_cfg.c **** *
 225:Generated_Source\PSoC5/cyfitter_cfg.c **** * Return:
 226:Generated_Source\PSoC5/cyfitter_cfg.c **** *  void
 227:Generated_Source\PSoC5/cyfitter_cfg.c **** *
 228:Generated_Source\PSoC5/cyfitter_cfg.c **** *******************************************************************************/
 229:Generated_Source\PSoC5/cyfitter_cfg.c **** static void ClockSetup(void);
 230:Generated_Source\PSoC5/cyfitter_cfg.c **** static void ClockSetup(void)
 231:Generated_Source\PSoC5/cyfitter_cfg.c **** {
 232:Generated_Source\PSoC5/cyfitter_cfg.c **** 	uint32 timeout;
 233:Generated_Source\PSoC5/cyfitter_cfg.c **** 	uint8 pllLock;
 234:Generated_Source\PSoC5/cyfitter_cfg.c **** 
 235:Generated_Source\PSoC5/cyfitter_cfg.c **** 
 236:Generated_Source\PSoC5/cyfitter_cfg.c **** 	/* Configure Digital Clocks based on settings from Clock DWR */
 237:Generated_Source\PSoC5/cyfitter_cfg.c **** 	CY_SET_XTND_REG16((void CYFAR *)(CYREG_CLKDIST_DCFG0_CFG0), 0x0001u);
 238:Generated_Source\PSoC5/cyfitter_cfg.c **** 	CY_SET_XTND_REG8((void CYFAR *)(CYREG_CLKDIST_DCFG0_CFG0 + 0x2u), 0x18u);
 239:Generated_Source\PSoC5/cyfitter_cfg.c **** 	CY_SET_XTND_REG16((void CYFAR *)(CYREG_CLKDIST_DCFG1_CFG0), 0x0017u);
 240:Generated_Source\PSoC5/cyfitter_cfg.c **** 	CY_SET_XTND_REG8((void CYFAR *)(CYREG_CLKDIST_DCFG1_CFG0 + 0x2u), 0x18u);
 241:Generated_Source\PSoC5/cyfitter_cfg.c **** 	CY_SET_XTND_REG16((void CYFAR *)(CYREG_CLKDIST_DCFG2_CFG0), 0x0033u);
 242:Generated_Source\PSoC5/cyfitter_cfg.c **** 	CY_SET_XTND_REG8((void CYFAR *)(CYREG_CLKDIST_DCFG2_CFG0 + 0x2u), 0x18u);
 243:Generated_Source\PSoC5/cyfitter_cfg.c **** 	CY_SET_XTND_REG16((void CYFAR *)(CYREG_CLKDIST_DCFG3_CFG0), 0x00BFu);
 244:Generated_Source\PSoC5/cyfitter_cfg.c **** 	CY_SET_XTND_REG8((void CYFAR *)(CYREG_CLKDIST_DCFG3_CFG0 + 0x2u), 0x18u);
 245:Generated_Source\PSoC5/cyfitter_cfg.c **** 
 246:Generated_Source\PSoC5/cyfitter_cfg.c **** 	/* Configure ILO based on settings from Clock DWR */
 247:Generated_Source\PSoC5/cyfitter_cfg.c **** 	CY_SET_XTND_REG8((void CYFAR *)(CYREG_SLOWCLK_ILO_CR0), 0x02u);
 248:Generated_Source\PSoC5/cyfitter_cfg.c **** 	CY_SET_XTND_REG8((void CYFAR *)(CYREG_CLKDIST_CR), 0x08u);
 249:Generated_Source\PSoC5/cyfitter_cfg.c **** 
 250:Generated_Source\PSoC5/cyfitter_cfg.c **** 	/* Configure IMO based on settings from Clock DWR */
 251:Generated_Source\PSoC5/cyfitter_cfg.c **** 	CY_SET_XTND_REG8((void CYFAR *)(CYREG_FASTCLK_IMO_CR), 0x03u);
 252:Generated_Source\PSoC5/cyfitter_cfg.c **** 	CY_SET_XTND_REG8((void CYFAR *)(CYREG_IMO_TR1), (CY_GET_XTND_REG8((void CYFAR *)CYREG_FLSHID_CUST_
 253:Generated_Source\PSoC5/cyfitter_cfg.c **** 
 254:Generated_Source\PSoC5/cyfitter_cfg.c **** 	/* Configure PLL based on settings from Clock DWR */
 255:Generated_Source\PSoC5/cyfitter_cfg.c **** 	CY_SET_XTND_REG16((void CYFAR *)(CYREG_FASTCLK_PLL_P), 0x0008u);
 256:Generated_Source\PSoC5/cyfitter_cfg.c **** 	CY_SET_XTND_REG16((void CYFAR *)(CYREG_FASTCLK_PLL_CFG0), 0x1251u);
 257:Generated_Source\PSoC5/cyfitter_cfg.c **** 	/* Wait up to 250us for the PLL to lock */
 258:Generated_Source\PSoC5/cyfitter_cfg.c **** 	pllLock = 0u;
ARM GAS  C:\Users\Zwe\AppData\Local\Temp\cc4T6F5G.s 			page 6


 259:Generated_Source\PSoC5/cyfitter_cfg.c **** 	for (timeout = 250u / 10u; (timeout > 0u) && (pllLock != 0x03u); timeout--)
 260:Generated_Source\PSoC5/cyfitter_cfg.c **** 	{ 
 261:Generated_Source\PSoC5/cyfitter_cfg.c **** 		pllLock = 0x03u & ((uint8)((uint8)pllLock << 1) | ((CY_GET_XTND_REG8((void CYFAR *)CYREG_FASTCLK_
 262:Generated_Source\PSoC5/cyfitter_cfg.c **** 		CyDelayCycles(10u * 48u); /* Delay 10us based on 48MHz clock */
 263:Generated_Source\PSoC5/cyfitter_cfg.c **** 	}
 264:Generated_Source\PSoC5/cyfitter_cfg.c **** 	/* If we ran out of time the PLL didn't lock so go to the error function */
 265:Generated_Source\PSoC5/cyfitter_cfg.c **** 	if (timeout == 0u)
 266:Generated_Source\PSoC5/cyfitter_cfg.c **** 	{
 267:Generated_Source\PSoC5/cyfitter_cfg.c **** 		CyClockStartupError(CYCLOCKSTART_PLL_ERROR);
 268:Generated_Source\PSoC5/cyfitter_cfg.c **** 	}
 269:Generated_Source\PSoC5/cyfitter_cfg.c **** 
 270:Generated_Source\PSoC5/cyfitter_cfg.c **** 	/* Configure Bus/Master Clock based on settings from Clock DWR */
 271:Generated_Source\PSoC5/cyfitter_cfg.c **** 	CY_SET_XTND_REG16((void CYFAR *)(CYREG_CLKDIST_MSTR0), 0x0100u);
 272:Generated_Source\PSoC5/cyfitter_cfg.c **** 	CY_SET_XTND_REG8((void CYFAR *)(CYREG_CLKDIST_MSTR0), 0x07u);
 273:Generated_Source\PSoC5/cyfitter_cfg.c **** 	CY_SET_XTND_REG8((void CYFAR *)(CYREG_CLKDIST_BCFG0), 0x00u);
 274:Generated_Source\PSoC5/cyfitter_cfg.c **** 	CY_SET_XTND_REG8((void CYFAR *)(CYREG_CLKDIST_BCFG2), 0x48u);
 275:Generated_Source\PSoC5/cyfitter_cfg.c **** 	CY_SET_XTND_REG8((void CYFAR *)(CYREG_CLKDIST_MSTR0), 0x00u);
 276:Generated_Source\PSoC5/cyfitter_cfg.c **** 	CY_SET_XTND_REG8((void CYFAR *)(CYREG_CLKDIST_LD), 0x02u);
 277:Generated_Source\PSoC5/cyfitter_cfg.c **** 
 278:Generated_Source\PSoC5/cyfitter_cfg.c **** 	CY_SET_XTND_REG8((void CYFAR *)(CYREG_PM_ACT_CFG2), ((CY_GET_XTND_REG8((void CYFAR *)CYREG_PM_ACT_
 279:Generated_Source\PSoC5/cyfitter_cfg.c **** }
 280:Generated_Source\PSoC5/cyfitter_cfg.c **** 
 281:Generated_Source\PSoC5/cyfitter_cfg.c **** 
 282:Generated_Source\PSoC5/cyfitter_cfg.c **** /* Analog API Functions */
 283:Generated_Source\PSoC5/cyfitter_cfg.c **** 
 284:Generated_Source\PSoC5/cyfitter_cfg.c **** 
 285:Generated_Source\PSoC5/cyfitter_cfg.c **** /*******************************************************************************
 286:Generated_Source\PSoC5/cyfitter_cfg.c **** * Function Name: AnalogSetDefault
 287:Generated_Source\PSoC5/cyfitter_cfg.c **** ********************************************************************************
 288:Generated_Source\PSoC5/cyfitter_cfg.c **** *
 289:Generated_Source\PSoC5/cyfitter_cfg.c **** * Summary:
 290:Generated_Source\PSoC5/cyfitter_cfg.c **** *  Sets up the analog portions of the chip to default values based on chip
 291:Generated_Source\PSoC5/cyfitter_cfg.c **** *  configuration options from the project.
 292:Generated_Source\PSoC5/cyfitter_cfg.c **** *
 293:Generated_Source\PSoC5/cyfitter_cfg.c **** * Parameters:
 294:Generated_Source\PSoC5/cyfitter_cfg.c **** *  void
 295:Generated_Source\PSoC5/cyfitter_cfg.c **** *
 296:Generated_Source\PSoC5/cyfitter_cfg.c **** * Return:
 297:Generated_Source\PSoC5/cyfitter_cfg.c **** *  void
 298:Generated_Source\PSoC5/cyfitter_cfg.c **** *
 299:Generated_Source\PSoC5/cyfitter_cfg.c **** *******************************************************************************/
 300:Generated_Source\PSoC5/cyfitter_cfg.c **** static void AnalogSetDefault(void);
 301:Generated_Source\PSoC5/cyfitter_cfg.c **** static void AnalogSetDefault(void)
 302:Generated_Source\PSoC5/cyfitter_cfg.c **** {
 303:Generated_Source\PSoC5/cyfitter_cfg.c **** 	uint8 bg_xover_inl_trim = CY_GET_XTND_REG8((void CYFAR *)(CYREG_FLSHID_MFG_CFG_BG_XOVER_INL_TRIM +
 304:Generated_Source\PSoC5/cyfitter_cfg.c **** 	CY_SET_XTND_REG8((void CYFAR *)(CYREG_BG_DFT0), (bg_xover_inl_trim & 0x07u));
 305:Generated_Source\PSoC5/cyfitter_cfg.c **** 	CY_SET_XTND_REG8((void CYFAR *)(CYREG_BG_DFT1), ((bg_xover_inl_trim >> 4) & 0x0Fu));
 306:Generated_Source\PSoC5/cyfitter_cfg.c **** 	CY_SET_XTND_REG8((void CYFAR *)CYREG_PUMP_CR0, 0x44u);
 307:Generated_Source\PSoC5/cyfitter_cfg.c **** }
 308:Generated_Source\PSoC5/cyfitter_cfg.c **** 
 309:Generated_Source\PSoC5/cyfitter_cfg.c **** 
 310:Generated_Source\PSoC5/cyfitter_cfg.c **** /*******************************************************************************
 311:Generated_Source\PSoC5/cyfitter_cfg.c **** * Function Name: SetAnalogRoutingPumps
 312:Generated_Source\PSoC5/cyfitter_cfg.c **** ********************************************************************************
 313:Generated_Source\PSoC5/cyfitter_cfg.c **** *
 314:Generated_Source\PSoC5/cyfitter_cfg.c **** * Summary:
 315:Generated_Source\PSoC5/cyfitter_cfg.c **** * Enables or disables the analog pumps feeding analog routing switches.
ARM GAS  C:\Users\Zwe\AppData\Local\Temp\cc4T6F5G.s 			page 7


 316:Generated_Source\PSoC5/cyfitter_cfg.c **** * Intended to be called at startup, based on the Vdda system configuration;
 317:Generated_Source\PSoC5/cyfitter_cfg.c **** * may be called during operation when the user informs us that the Vdda voltage
 318:Generated_Source\PSoC5/cyfitter_cfg.c **** * crossed the pump threshold.
 319:Generated_Source\PSoC5/cyfitter_cfg.c **** *
 320:Generated_Source\PSoC5/cyfitter_cfg.c **** * Parameters:
 321:Generated_Source\PSoC5/cyfitter_cfg.c **** *  enabled - 1 to enable the pumps, 0 to disable the pumps
 322:Generated_Source\PSoC5/cyfitter_cfg.c **** *
 323:Generated_Source\PSoC5/cyfitter_cfg.c **** * Return:
 324:Generated_Source\PSoC5/cyfitter_cfg.c **** *  void
 325:Generated_Source\PSoC5/cyfitter_cfg.c **** *
 326:Generated_Source\PSoC5/cyfitter_cfg.c **** *******************************************************************************/
 327:Generated_Source\PSoC5/cyfitter_cfg.c **** void SetAnalogRoutingPumps(uint8 enabled)
 328:Generated_Source\PSoC5/cyfitter_cfg.c **** {
  28              		.loc 1 328 0
  29              		.cfi_startproc
  30              		@ args = 0, pretend = 0, frame = 0
  31              		@ frame_needed = 0, uses_anonymous_args = 0
  32              		@ link register save eliminated.
  33              	.LVL0:
 329:Generated_Source\PSoC5/cyfitter_cfg.c **** 	uint8 regValue = CY_GET_XTND_REG8((void CYFAR *)CYREG_PUMP_CR0);
  34              		.loc 1 329 0
  35 0000 024A     		ldr	r2, .L2
  36 0002 1378     		ldrb	r3, [r2]	@ zero_extendqisi2
  37 0004 DBB2     		uxtb	r3, r3
  38              	.LVL1:
 330:Generated_Source\PSoC5/cyfitter_cfg.c **** 	if (enabled != 0u)
 331:Generated_Source\PSoC5/cyfitter_cfg.c **** 	{
 332:Generated_Source\PSoC5/cyfitter_cfg.c **** 		regValue |= 0x00u;
 333:Generated_Source\PSoC5/cyfitter_cfg.c **** 	}
 334:Generated_Source\PSoC5/cyfitter_cfg.c **** 	else
 335:Generated_Source\PSoC5/cyfitter_cfg.c **** 	{
 336:Generated_Source\PSoC5/cyfitter_cfg.c **** 		regValue &= (uint8)~0x00u;
 337:Generated_Source\PSoC5/cyfitter_cfg.c **** 	}
 338:Generated_Source\PSoC5/cyfitter_cfg.c **** 	CY_SET_XTND_REG8((void CYFAR *)CYREG_PUMP_CR0, regValue);
  39              		.loc 1 338 0
  40 0006 1370     		strb	r3, [r2]
  41 0008 7047     		bx	lr
  42              	.L3:
  43 000a 00BF     		.align	2
  44              	.L2:
  45 000c 76580040 		.word	1073764470
  46              		.cfi_endproc
  47              	.LFE7:
  48              		.size	SetAnalogRoutingPumps, .-SetAnalogRoutingPumps
  49              		.section	.text.cyfitter_cfg,"ax",%progbits
  50              		.align	1
  51              		.global	cyfitter_cfg
  52              		.thumb
  53              		.thumb_func
  54              		.type	cyfitter_cfg, %function
  55              	cyfitter_cfg:
  56              	.LFB8:
 339:Generated_Source\PSoC5/cyfitter_cfg.c **** }
 340:Generated_Source\PSoC5/cyfitter_cfg.c **** 
 341:Generated_Source\PSoC5/cyfitter_cfg.c **** 
 342:Generated_Source\PSoC5/cyfitter_cfg.c **** 
 343:Generated_Source\PSoC5/cyfitter_cfg.c **** 
ARM GAS  C:\Users\Zwe\AppData\Local\Temp\cc4T6F5G.s 			page 8


 344:Generated_Source\PSoC5/cyfitter_cfg.c **** /*******************************************************************************
 345:Generated_Source\PSoC5/cyfitter_cfg.c **** * Function Name: cyfitter_cfg
 346:Generated_Source\PSoC5/cyfitter_cfg.c **** ********************************************************************************
 347:Generated_Source\PSoC5/cyfitter_cfg.c **** * Summary:
 348:Generated_Source\PSoC5/cyfitter_cfg.c **** *  This function is called by the start-up code for the selected device. It
 349:Generated_Source\PSoC5/cyfitter_cfg.c **** *  performs all of the necessary device configuration based on the design
 350:Generated_Source\PSoC5/cyfitter_cfg.c **** *  settings.  This includes settings from the Design Wide Resources (DWR) such
 351:Generated_Source\PSoC5/cyfitter_cfg.c **** *  as Clocks and Pins as well as any component configuration that is necessary.
 352:Generated_Source\PSoC5/cyfitter_cfg.c **** *
 353:Generated_Source\PSoC5/cyfitter_cfg.c **** * Parameters:
 354:Generated_Source\PSoC5/cyfitter_cfg.c **** *   void
 355:Generated_Source\PSoC5/cyfitter_cfg.c **** *
 356:Generated_Source\PSoC5/cyfitter_cfg.c **** * Return:
 357:Generated_Source\PSoC5/cyfitter_cfg.c **** *   void
 358:Generated_Source\PSoC5/cyfitter_cfg.c **** *
 359:Generated_Source\PSoC5/cyfitter_cfg.c **** *******************************************************************************/
 360:Generated_Source\PSoC5/cyfitter_cfg.c **** 
 361:Generated_Source\PSoC5/cyfitter_cfg.c **** void cyfitter_cfg(void)
 362:Generated_Source\PSoC5/cyfitter_cfg.c **** {
  57              		.loc 1 362 0
  58              		.cfi_startproc
  59              		@ args = 0, pretend = 0, frame = 0
  60              		@ frame_needed = 0, uses_anonymous_args = 0
  61 0000 F8B5     		push	{r3, r4, r5, r6, r7, lr}
  62              		.cfi_def_cfa_offset 24
  63              		.cfi_offset 3, -24
  64              		.cfi_offset 4, -20
  65              		.cfi_offset 5, -16
  66              		.cfi_offset 6, -12
  67              		.cfi_offset 7, -8
  68              		.cfi_offset 14, -4
 363:Generated_Source\PSoC5/cyfitter_cfg.c **** #ifdef CYGlobalIntDisable
 364:Generated_Source\PSoC5/cyfitter_cfg.c **** 	/* Disable interrupts by default. Let user enable if/when they want. */
 365:Generated_Source\PSoC5/cyfitter_cfg.c **** 	CYGlobalIntDisable
  69              		.loc 1 365 0
  70              		.syntax unified
  71              	@ 365 "Generated_Source\PSoC5\cyfitter_cfg.c" 1
  72 0002 72B6     		CPSID   i
  73              	@ 0 "" 2
 366:Generated_Source\PSoC5/cyfitter_cfg.c **** #endif
 367:Generated_Source\PSoC5/cyfitter_cfg.c **** 
 368:Generated_Source\PSoC5/cyfitter_cfg.c **** 	/* Enable/Disable Debug functionality based on settings from System DWR */
 369:Generated_Source\PSoC5/cyfitter_cfg.c **** 	CY_SET_XTND_REG8((void CYFAR *)CYREG_MLOGIC_DEBUG, (CY_GET_XTND_REG8((void CYFAR *)CYREG_MLOGIC_DE
  74              		.loc 1 369 0
  75              		.thumb
  76              		.syntax unified
  77 0004 6B4A     		ldr	r2, .L20
  78              	.LBB44:
  79              	.LBB45:
 370:Generated_Source\PSoC5/cyfitter_cfg.c **** 
 371:Generated_Source\PSoC5/cyfitter_cfg.c **** 	{
 372:Generated_Source\PSoC5/cyfitter_cfg.c **** 
 373:Generated_Source\PSoC5/cyfitter_cfg.c **** 		CYPACKED typedef struct {
 374:Generated_Source\PSoC5/cyfitter_cfg.c **** 			void CYFAR *address;
 375:Generated_Source\PSoC5/cyfitter_cfg.c **** 			uint16 size;
 376:Generated_Source\PSoC5/cyfitter_cfg.c **** 		} CYPACKED_ATTR cfg_memset_t;
 377:Generated_Source\PSoC5/cyfitter_cfg.c **** 
ARM GAS  C:\Users\Zwe\AppData\Local\Temp\cc4T6F5G.s 			page 9


 378:Generated_Source\PSoC5/cyfitter_cfg.c **** 
 379:Generated_Source\PSoC5/cyfitter_cfg.c **** 		CYPACKED typedef struct {
 380:Generated_Source\PSoC5/cyfitter_cfg.c **** 			void CYFAR *dest;
 381:Generated_Source\PSoC5/cyfitter_cfg.c **** 			const void CYFAR *src;
 382:Generated_Source\PSoC5/cyfitter_cfg.c **** 			uint16 size;
 383:Generated_Source\PSoC5/cyfitter_cfg.c **** 		} CYPACKED_ATTR cfg_memcpy_t;
 384:Generated_Source\PSoC5/cyfitter_cfg.c **** 
 385:Generated_Source\PSoC5/cyfitter_cfg.c **** 		static const cfg_memset_t CYCODE cfg_memset_list[] = {
 386:Generated_Source\PSoC5/cyfitter_cfg.c **** 			/* address, size */
 387:Generated_Source\PSoC5/cyfitter_cfg.c **** 			{(void CYFAR *)(CYREG_PRT3_DR), 64u},
 388:Generated_Source\PSoC5/cyfitter_cfg.c **** 			{(void CYFAR *)(CYREG_PRT15_DR), 16u},
 389:Generated_Source\PSoC5/cyfitter_cfg.c **** 			{(void CYFAR *)(CYDEV_UCFG_B0_P0_U0_BASE), 4096u},
 390:Generated_Source\PSoC5/cyfitter_cfg.c **** 			{(void CYFAR *)(CYDEV_UCFG_B1_P2_U0_BASE), 1664u},
 391:Generated_Source\PSoC5/cyfitter_cfg.c **** 			{(void CYFAR *)(CYDEV_UCFG_B1_P5_ROUTE_BASE), 256u},
 392:Generated_Source\PSoC5/cyfitter_cfg.c **** 			{(void CYFAR *)(CYDEV_UCFG_DSI0_BASE), 2560u},
 393:Generated_Source\PSoC5/cyfitter_cfg.c **** 			{(void CYFAR *)(CYDEV_UCFG_DSI12_BASE), 512u},
 394:Generated_Source\PSoC5/cyfitter_cfg.c **** 			{(void CYFAR *)(CYREG_BCTL0_MDCLK_EN), 32u},
 395:Generated_Source\PSoC5/cyfitter_cfg.c **** 		};
 396:Generated_Source\PSoC5/cyfitter_cfg.c **** 
 397:Generated_Source\PSoC5/cyfitter_cfg.c **** 		static const cfg_memcpy_t CYCODE cfg_memcpy_list [] = {
 398:Generated_Source\PSoC5/cyfitter_cfg.c **** 			/* dest, src, size */
 399:Generated_Source\PSoC5/cyfitter_cfg.c **** 			{(void CYFAR *)(CYDEV_PRTDSI_PRT12_BASE), BS_IOPORT_7_VAL, 6u},
 400:Generated_Source\PSoC5/cyfitter_cfg.c **** 			{(void CYFAR *)(CYDEV_UCFG_B1_P5_U1_BASE), BS_UDB_0_0_1_CONFIG_VAL, 128u},
 401:Generated_Source\PSoC5/cyfitter_cfg.c **** 		};
 402:Generated_Source\PSoC5/cyfitter_cfg.c **** 
 403:Generated_Source\PSoC5/cyfitter_cfg.c **** 		uint8 CYDATA i;
 404:Generated_Source\PSoC5/cyfitter_cfg.c **** 
 405:Generated_Source\PSoC5/cyfitter_cfg.c **** 		/* Zero out critical memory blocks before beginning configuration */
 406:Generated_Source\PSoC5/cyfitter_cfg.c **** 		for (i = 0u; i < (sizeof(cfg_memset_list)/sizeof(cfg_memset_list[0])); i++)
 407:Generated_Source\PSoC5/cyfitter_cfg.c **** 		{
 408:Generated_Source\PSoC5/cyfitter_cfg.c **** 			const cfg_memset_t CYCODE * CYDATA ms = &cfg_memset_list[i];
 409:Generated_Source\PSoC5/cyfitter_cfg.c **** 			CYMEMZERO(ms->address, (size_t)(uint32)(ms->size));
  80              		.loc 1 409 0
  81 0006 6C4D     		ldr	r5, .L20+4
  82              	.LBE45:
  83              	.LBE44:
 369:Generated_Source\PSoC5/cyfitter_cfg.c **** 
  84              		.loc 1 369 0
  85 0008 1378     		ldrb	r3, [r2]	@ zero_extendqisi2
  86 000a 0024     		movs	r4, #0
  87 000c 43F00403 		orr	r3, r3, #4
  88 0010 1370     		strb	r3, [r2]
  89              	.LVL2:
  90              	.LBB60:
  91              	.LBB48:
  92              		.loc 1 409 0
  93 0012 0626     		movs	r6, #6
  94              	.LVL3:
  95              	.L5:
  96              		.loc 1 409 0 is_stmt 0 discriminator 3
  97 0014 06FB0453 		mla	r3, r6, r4, r5
  98              	.LBB46:
  99              	.LBB47:
  79:Generated_Source\PSoC5/cyfitter_cfg.c **** }
 100              		.loc 1 79 0 is_stmt 1 discriminator 3
 101 0018 0021     		movs	r1, #0
 102 001a 9A88     		ldrh	r2, [r3, #4]	@ unaligned
ARM GAS  C:\Users\Zwe\AppData\Local\Temp\cc4T6F5G.s 			page 10


 103 001c 1868     		ldr	r0, [r3]	@ unaligned
 104 001e 0134     		adds	r4, r4, #1
 105              	.LVL4:
 106 0020 FFF7FEFF 		bl	memset
 107              	.LVL5:
 108              	.LBE47:
 109              	.LBE46:
 110              	.LBE48:
 406:Generated_Source\PSoC5/cyfitter_cfg.c **** 		{
 111              		.loc 1 406 0 discriminator 3
 112 0024 082C     		cmp	r4, #8
 113 0026 F5D1     		bne	.L5
 114              	.LVL6:
 115              	.LBB49:
 116              	.LBB50:
 117              	.LBB51:
  86:Generated_Source\PSoC5/cyfitter_cfg.c **** }
 118              		.loc 1 86 0 discriminator 1
 119 0028 644B     		ldr	r3, .L20+8
 120 002a 654A     		ldr	r2, .L20+12
 121              	.LBE51:
 122              	.LBE50:
 123              	.LBE49:
 124              	.LBB54:
 125              	.LBB55:
 199:Generated_Source\PSoC5/cyfitter_cfg.c **** 	{
 126              		.loc 1 199 0 discriminator 1
 127 002c 654D     		ldr	r5, .L20+16
 128              	.LBE55:
 129              	.LBE54:
 130              	.LBB58:
 131              	.LBB53:
 132              	.LBB52:
  86:Generated_Source\PSoC5/cyfitter_cfg.c **** }
 133              		.loc 1 86 0 discriminator 1
 134 002e 92E80300 		ldmia	r2, {r0, r1}
 135 0032 8022     		movs	r2, #128
 136 0034 1860     		str	r0, [r3]
 137 0036 9980     		strh	r1, [r3, #4]	@ movhi
 138              	.LVL7:
 139 0038 6348     		ldr	r0, .L20+20
 140 003a 6449     		ldr	r1, .L20+24
 141 003c FFF7FEFF 		bl	memcpy
 142              	.LVL8:
 143 0040 6348     		ldr	r0, .L20+28
 144 0042 0024     		movs	r4, #0
 145              	.LVL9:
 146              	.L8:
 147              	.LBE52:
 148              	.LBE53:
 149              	.LBE58:
 150              	.LBB59:
 151              	.LBB57:
 152              	.LBB56:
 201:Generated_Source\PSoC5/cyfitter_cfg.c **** 		uint8 count = (uint8)baseAddr;
 153              		.loc 1 201 0
 154 0044 50F8041F 		ldr	r1, [r0, #4]!
ARM GAS  C:\Users\Zwe\AppData\Local\Temp\cc4T6F5G.s 			page 11


 155              	.LVL10:
 156 0048 04F11053 		add	r3, r4, #603979776
 157 004c 03F13E02 		add	r2, r3, #62
 203:Generated_Source\PSoC5/cyfitter_cfg.c **** 		while (count != 0u)
 158              		.loc 1 203 0
 159 0050 21F0FF06 		bic	r6, r1, #255
 160              	.LVL11:
 161 0054 3F33     		adds	r3, r3, #63
 162 0056 C9B2     		uxtb	r1, r1
 163 0058 0B44     		add	r3, r3, r1
 164 005a 5200     		lsls	r2, r2, #1
 165 005c 5B00     		lsls	r3, r3, #1
 166              	.LVL12:
 167              	.L6:
 168 005e 0232     		adds	r2, r2, #2
 204:Generated_Source\PSoC5/cyfitter_cfg.c **** 		{
 169              		.loc 1 204 0
 170 0060 9A42     		cmp	r2, r3
 171 0062 06D0     		beq	.L19
 206:Generated_Source\PSoC5/cyfitter_cfg.c **** 			j++;
 172              		.loc 1 206 0
 173 0064 12F8027C 		ldrb	r7, [r2, #-2]	@ zero_extendqisi2
 174 0068 12F801EC 		ldrb	lr, [r2, #-1]	@ zero_extendqisi2
 175 006c 07F806E0 		strb	lr, [r7, r6]
 176 0070 F5E7     		b	.L6
 177              	.L19:
 178              	.LBE56:
 199:Generated_Source\PSoC5/cyfitter_cfg.c **** 	{
 179              		.loc 1 199 0
 180 0072 A842     		cmp	r0, r5
 181 0074 0C44     		add	r4, r4, r1
 182              	.LVL13:
 183 0076 E5D1     		bne	.L8
 184              	.LVL14:
 185              	.LBE57:
 186              	.LBE59:
 410:Generated_Source\PSoC5/cyfitter_cfg.c **** 		}
 411:Generated_Source\PSoC5/cyfitter_cfg.c **** 
 412:Generated_Source\PSoC5/cyfitter_cfg.c **** 		/* Copy device configuration data into registers */
 413:Generated_Source\PSoC5/cyfitter_cfg.c **** 		for (i = 0u; i < (sizeof(cfg_memcpy_list)/sizeof(cfg_memcpy_list[0])); i++)
 414:Generated_Source\PSoC5/cyfitter_cfg.c **** 		{
 415:Generated_Source\PSoC5/cyfitter_cfg.c **** 			const cfg_memcpy_t CYCODE * CYDATA mc = &cfg_memcpy_list[i];
 416:Generated_Source\PSoC5/cyfitter_cfg.c **** 			void * CYDATA destPtr = mc->dest;
 417:Generated_Source\PSoC5/cyfitter_cfg.c **** 			const void * CYDATA srcPtr = mc->src;
 418:Generated_Source\PSoC5/cyfitter_cfg.c **** 			uint16 CYDATA numBytes = mc->size;
 419:Generated_Source\PSoC5/cyfitter_cfg.c **** 			CYCONFIGCPY(destPtr, srcPtr, numBytes);
 420:Generated_Source\PSoC5/cyfitter_cfg.c **** 		}
 421:Generated_Source\PSoC5/cyfitter_cfg.c **** 
 422:Generated_Source\PSoC5/cyfitter_cfg.c **** 		cfg_write_bytes32(cy_cfg_addr_table, cy_cfg_data_table);
 423:Generated_Source\PSoC5/cyfitter_cfg.c **** 
 424:Generated_Source\PSoC5/cyfitter_cfg.c **** 		/* B0_P2_U1_CFG24 Starting address: CYDEV_UCFG_B0_P2_U1_CFG24 */
 425:Generated_Source\PSoC5/cyfitter_cfg.c **** 		CY_SET_XTND_REG32((void CYFAR *)(CYREG_B0_P2_U1_CFG24), 0x84040404u);
 187              		.loc 1 425 0
 188 0078 564A     		ldr	r2, .L20+32
 189 007a 574B     		ldr	r3, .L20+36
 426:Generated_Source\PSoC5/cyfitter_cfg.c **** 
 427:Generated_Source\PSoC5/cyfitter_cfg.c **** 		/* Enable digital routing */
ARM GAS  C:\Users\Zwe\AppData\Local\Temp\cc4T6F5G.s 			page 12


 428:Generated_Source\PSoC5/cyfitter_cfg.c **** 		CY_SET_XTND_REG8((void CYFAR *)CYREG_BCTL0_BANK_CTL, CY_GET_XTND_REG8((void CYFAR *)CYREG_BCTL0_B
 429:Generated_Source\PSoC5/cyfitter_cfg.c **** 		CY_SET_XTND_REG8((void CYFAR *)CYREG_BCTL1_BANK_CTL, CY_GET_XTND_REG8((void CYFAR *)CYREG_BCTL1_B
 430:Generated_Source\PSoC5/cyfitter_cfg.c **** 
 431:Generated_Source\PSoC5/cyfitter_cfg.c **** 		/* Enable UDB array */
 432:Generated_Source\PSoC5/cyfitter_cfg.c **** 		CY_SET_XTND_REG8((void CYFAR *)CYREG_PM_ACT_CFG0, CY_GET_XTND_REG8((void CYFAR *)CYREG_PM_ACT_CFG
 190              		.loc 1 432 0
 191 007c 574C     		ldr	r4, .L20+40
 425:Generated_Source\PSoC5/cyfitter_cfg.c **** 
 192              		.loc 1 425 0
 193 007e 1A60     		str	r2, [r3]
 428:Generated_Source\PSoC5/cyfitter_cfg.c **** 		CY_SET_XTND_REG8((void CYFAR *)CYREG_BCTL1_BANK_CTL, CY_GET_XTND_REG8((void CYFAR *)CYREG_BCTL1_B
 194              		.loc 1 428 0
 195 0080 574A     		ldr	r2, .L20+44
 196              	.LBE60:
 197              	.LBB61:
 198              	.LBB62:
 261:Generated_Source\PSoC5/cyfitter_cfg.c **** 		CyDelayCycles(10u * 48u); /* Delay 10us based on 48MHz clock */
 199              		.loc 1 261 0
 200 0082 584F     		ldr	r7, .L20+48
 201              	.LBE62:
 202              	.LBE61:
 203              	.LBB68:
 428:Generated_Source\PSoC5/cyfitter_cfg.c **** 		CY_SET_XTND_REG8((void CYFAR *)CYREG_BCTL1_BANK_CTL, CY_GET_XTND_REG8((void CYFAR *)CYREG_BCTL1_B
 204              		.loc 1 428 0
 205 0084 1378     		ldrb	r3, [r2]	@ zero_extendqisi2
 206              	.LBE68:
 207              	.LBB69:
 208              	.LBB63:
 256:Generated_Source\PSoC5/cyfitter_cfg.c **** 	/* Wait up to 250us for the PLL to lock */
 209              		.loc 1 256 0
 210 0086 1926     		movs	r6, #25
 211              	.LBE63:
 212              	.LBE69:
 213              	.LBB70:
 428:Generated_Source\PSoC5/cyfitter_cfg.c **** 		CY_SET_XTND_REG8((void CYFAR *)CYREG_BCTL1_BANK_CTL, CY_GET_XTND_REG8((void CYFAR *)CYREG_BCTL1_B
 214              		.loc 1 428 0
 215 0088 43F00203 		orr	r3, r3, #2
 216 008c 1370     		strb	r3, [r2]
 429:Generated_Source\PSoC5/cyfitter_cfg.c **** 
 217              		.loc 1 429 0
 218 008e 137C     		ldrb	r3, [r2, #16]	@ zero_extendqisi2
 219              	.LBE70:
 220              	.LBB71:
 221              	.LBB64:
 258:Generated_Source\PSoC5/cyfitter_cfg.c **** 	for (timeout = 250u / 10u; (timeout > 0u) && (pllLock != 0x03u); timeout--)
 222              		.loc 1 258 0
 223 0090 0025     		movs	r5, #0
 224              	.LBE64:
 225              	.LBE71:
 226              	.LBB72:
 429:Generated_Source\PSoC5/cyfitter_cfg.c **** 
 227              		.loc 1 429 0
 228 0092 43F00203 		orr	r3, r3, #2
 229 0096 1374     		strb	r3, [r2, #16]
 230              		.loc 1 432 0
 231 0098 2378     		ldrb	r3, [r4]	@ zero_extendqisi2
 433:Generated_Source\PSoC5/cyfitter_cfg.c **** 		CY_SET_XTND_REG8((void CYFAR *)CYREG_PM_AVAIL_CR2, CY_GET_XTND_REG8((void CYFAR *)CYREG_PM_AVAIL_
ARM GAS  C:\Users\Zwe\AppData\Local\Temp\cc4T6F5G.s 			page 13


 232              		.loc 1 433 0
 233 009a A2F58632 		sub	r2, r2, #68608
 432:Generated_Source\PSoC5/cyfitter_cfg.c **** 		CY_SET_XTND_REG8((void CYFAR *)CYREG_PM_AVAIL_CR2, CY_GET_XTND_REG8((void CYFAR *)CYREG_PM_AVAIL_
 234              		.loc 1 432 0
 235 009e 43F04003 		orr	r3, r3, #64
 236 00a2 2370     		strb	r3, [r4]
 237              		.loc 1 433 0
 238 00a4 413A     		subs	r2, r2, #65
 239 00a6 1378     		ldrb	r3, [r2]	@ zero_extendqisi2
 240 00a8 43F01003 		orr	r3, r3, #16
 241 00ac 1370     		strb	r3, [r2]
 242              	.LVL15:
 243              	.LBE72:
 244              	.LBB73:
 245              	.LBB74:
  86:Generated_Source\PSoC5/cyfitter_cfg.c **** }
 246              		.loc 1 86 0
 247 00ae 4E4A     		ldr	r2, .L20+52
 248 00b0 4E4B     		ldr	r3, .L20+56
 249 00b2 07CA     		ldmia	r2, {r0, r1, r2}
 250 00b4 03C3     		stmia	r3!, {r0, r1}
 251 00b6 1A80     		strh	r2, [r3]	@ movhi
 252              	.LVL16:
 253              	.LBE74:
 254              	.LBE73:
 255              	.LBB75:
 256              	.LBB76:
 257 00b8 4D4A     		ldr	r2, .L20+60
 258 00ba B833     		adds	r3, r3, #184
 259 00bc 07CA     		ldmia	r2, {r0, r1, r2}
 260 00be 03C3     		stmia	r3!, {r0, r1}
 261 00c0 1A80     		strh	r2, [r3]	@ movhi
 262              	.LVL17:
 263              	.LBE76:
 264              	.LBE75:
 265              	.LBB77:
 266              	.LBB78:
 267 00c2 4C4A     		ldr	r2, .L20+64
 268 00c4 4C4B     		ldr	r3, .L20+68
 269              	.LBE78:
 270              	.LBE77:
 434:Generated_Source\PSoC5/cyfitter_cfg.c **** 	}
 435:Generated_Source\PSoC5/cyfitter_cfg.c **** 
 436:Generated_Source\PSoC5/cyfitter_cfg.c **** 
 437:Generated_Source\PSoC5/cyfitter_cfg.c **** 	/* Perform second pass device configuration. These items must be configured in specific order afte
 438:Generated_Source\PSoC5/cyfitter_cfg.c **** 	CYCONFIGCPY((void CYFAR *)(CYREG_PRT0_DR), (const void CYFAR *)(BS_IOPINS0_0_VAL), 10u);
 439:Generated_Source\PSoC5/cyfitter_cfg.c **** 	CYCONFIGCPY((void CYFAR *)(CYREG_PRT12_DR), (const void CYFAR *)(BS_IOPINS0_7_VAL), 10u);
 440:Generated_Source\PSoC5/cyfitter_cfg.c **** 	CYCONFIGCPY((void CYFAR *)(CYREG_PRT1_DM0), (const void CYFAR *)(BS_IOPINS0_1_VAL), 8u);
 441:Generated_Source\PSoC5/cyfitter_cfg.c **** 	CYCONFIGCPY((void CYFAR *)(CYREG_PRT2_DM0), (const void CYFAR *)(BS_IOPINS0_2_VAL), 8u);
 442:Generated_Source\PSoC5/cyfitter_cfg.c **** 	/* Switch Boost to the precision bandgap reference from its internal reference */
 443:Generated_Source\PSoC5/cyfitter_cfg.c **** 	CY_SET_REG8((void CYXDATA *)CYREG_BOOST_CR2, (CY_GET_REG8((void CYXDATA *)CYREG_BOOST_CR2) | 0x08u
 271              		.loc 1 443 0
 272 00c6 A2F55F62 		sub	r2, r2, #3568
 273              	.LBB80:
 274              	.LBB79:
  86:Generated_Source\PSoC5/cyfitter_cfg.c **** }
 275              		.loc 1 86 0
ARM GAS  C:\Users\Zwe\AppData\Local\Temp\cc4T6F5G.s 			page 14


 276 00ca 03CB     		ldmia	r3!, {r0, r1}
 277 00cc C2F8F00D 		str	r0, [r2, #3568]	@ unaligned
 278 00d0 C2F8F41D 		str	r1, [r2, #3572]	@ unaligned
 279              	.LVL18:
 280              	.LBE79:
 281              	.LBE80:
 282              	.LBB81:
 283              	.LBB82:
 284 00d4 03CB     		ldmia	r3!, {r0, r1}
 285 00d6 C2F8041E 		str	r1, [r2, #3588]	@ unaligned
 286              	.LVL19:
 287 00da C2F8000E 		str	r0, [r2, #3584]	@ unaligned
 288              	.LBE82:
 289              	.LBE81:
 290              		.loc 1 443 0
 291 00de 1378     		ldrb	r3, [r2]	@ zero_extendqisi2
 292              	.LBB83:
 293              	.LBB65:
 239:Generated_Source\PSoC5/cyfitter_cfg.c **** 	CY_SET_XTND_REG8((void CYFAR *)(CYREG_CLKDIST_DCFG1_CFG0 + 0x2u), 0x18u);
 294              		.loc 1 239 0
 295 00e0 1721     		movs	r1, #23
 296              	.LBE65:
 297              	.LBE83:
 298              		.loc 1 443 0
 299 00e2 43F00803 		orr	r3, r3, #8
 300 00e6 1370     		strb	r3, [r2]
 444:Generated_Source\PSoC5/cyfitter_cfg.c **** 
 445:Generated_Source\PSoC5/cyfitter_cfg.c **** 	/* Set Flash Cycles based on max possible frequency in case a glitch occurs during ClockSetup(). *
 446:Generated_Source\PSoC5/cyfitter_cfg.c **** 	CY_SET_XTND_REG8((void CYFAR *)(CYREG_CACHE_CC_CTL), (((CYDEV_INSTRUCT_CACHE_ENABLED) != 0) ? 0x61
 301              		.loc 1 446 0
 302 00e8 444B     		ldr	r3, .L20+72
 303 00ea 6122     		movs	r2, #97
 304 00ec 1A70     		strb	r2, [r3]
 305              	.LBB84:
 306              	.LBB66:
 237:Generated_Source\PSoC5/cyfitter_cfg.c **** 	CY_SET_XTND_REG8((void CYFAR *)(CYREG_CLKDIST_DCFG0_CFG0 + 0x2u), 0x18u);
 307              		.loc 1 237 0
 308 00ee 0122     		movs	r2, #1
 309 00f0 A3F5F063 		sub	r3, r3, #1920
 310 00f4 1A80     		strh	r2, [r3]	@ movhi
 238:Generated_Source\PSoC5/cyfitter_cfg.c **** 	CY_SET_XTND_REG16((void CYFAR *)(CYREG_CLKDIST_DCFG1_CFG0), 0x0017u);
 311              		.loc 1 238 0
 312 00f6 424A     		ldr	r2, .L20+76
 313 00f8 1823     		movs	r3, #24
 314 00fa 1370     		strb	r3, [r2]
 239:Generated_Source\PSoC5/cyfitter_cfg.c **** 	CY_SET_XTND_REG8((void CYFAR *)(CYREG_CLKDIST_DCFG1_CFG0 + 0x2u), 0x18u);
 315              		.loc 1 239 0
 316 00fc 5180     		strh	r1, [r2, #2]	@ movhi
 241:Generated_Source\PSoC5/cyfitter_cfg.c **** 	CY_SET_XTND_REG8((void CYFAR *)(CYREG_CLKDIST_DCFG2_CFG0 + 0x2u), 0x18u);
 317              		.loc 1 241 0
 318 00fe 3321     		movs	r1, #51
 240:Generated_Source\PSoC5/cyfitter_cfg.c **** 	CY_SET_XTND_REG16((void CYFAR *)(CYREG_CLKDIST_DCFG2_CFG0), 0x0033u);
 319              		.loc 1 240 0
 320 0100 1371     		strb	r3, [r2, #4]
 241:Generated_Source\PSoC5/cyfitter_cfg.c **** 	CY_SET_XTND_REG8((void CYFAR *)(CYREG_CLKDIST_DCFG2_CFG0 + 0x2u), 0x18u);
 321              		.loc 1 241 0
 322 0102 D180     		strh	r1, [r2, #6]	@ movhi
ARM GAS  C:\Users\Zwe\AppData\Local\Temp\cc4T6F5G.s 			page 15


 243:Generated_Source\PSoC5/cyfitter_cfg.c **** 	CY_SET_XTND_REG8((void CYFAR *)(CYREG_CLKDIST_DCFG3_CFG0 + 0x2u), 0x18u);
 323              		.loc 1 243 0
 324 0104 BF21     		movs	r1, #191
 242:Generated_Source\PSoC5/cyfitter_cfg.c **** 	CY_SET_XTND_REG16((void CYFAR *)(CYREG_CLKDIST_DCFG3_CFG0), 0x00BFu);
 325              		.loc 1 242 0
 326 0106 1372     		strb	r3, [r2, #8]
 243:Generated_Source\PSoC5/cyfitter_cfg.c **** 	CY_SET_XTND_REG8((void CYFAR *)(CYREG_CLKDIST_DCFG3_CFG0 + 0x2u), 0x18u);
 327              		.loc 1 243 0
 328 0108 5181     		strh	r1, [r2, #10]	@ movhi
 244:Generated_Source\PSoC5/cyfitter_cfg.c **** 
 329              		.loc 1 244 0
 330 010a 1373     		strb	r3, [r2, #12]
 247:Generated_Source\PSoC5/cyfitter_cfg.c **** 	CY_SET_XTND_REG8((void CYFAR *)(CYREG_CLKDIST_CR), 0x08u);
 331              		.loc 1 247 0
 332 010c 3D4B     		ldr	r3, .L20+80
 333 010e 0222     		movs	r2, #2
 334 0110 1A70     		strb	r2, [r3]
 251:Generated_Source\PSoC5/cyfitter_cfg.c **** 	CY_SET_XTND_REG8((void CYFAR *)(CYREG_IMO_TR1), (CY_GET_XTND_REG8((void CYFAR *)CYREG_FLSHID_CUST_
 335              		.loc 1 251 0
 336 0112 0321     		movs	r1, #3
 248:Generated_Source\PSoC5/cyfitter_cfg.c **** 
 337              		.loc 1 248 0
 338 0114 0822     		movs	r2, #8
 339 0116 4FF04023 		mov	r3, #1073758208
 340 011a 1A70     		strb	r2, [r3]
 251:Generated_Source\PSoC5/cyfitter_cfg.c **** 	CY_SET_XTND_REG8((void CYFAR *)(CYREG_IMO_TR1), (CY_GET_XTND_REG8((void CYFAR *)CYREG_FLSHID_CUST_
 341              		.loc 1 251 0
 342 011c 83F80012 		strb	r1, [r3, #512]
 252:Generated_Source\PSoC5/cyfitter_cfg.c **** 
 343              		.loc 1 252 0
 344 0120 394B     		ldr	r3, .L20+84
 345 0122 3A49     		ldr	r1, .L20+88
 346 0124 1B78     		ldrb	r3, [r3]	@ zero_extendqisi2
 347 0126 DBB2     		uxtb	r3, r3
 348 0128 0B70     		strb	r3, [r1]
 255:Generated_Source\PSoC5/cyfitter_cfg.c **** 	CY_SET_XTND_REG16((void CYFAR *)(CYREG_FASTCLK_PLL_CFG0), 0x1251u);
 349              		.loc 1 255 0
 350 012a 394B     		ldr	r3, .L20+92
 351 012c 1A80     		strh	r2, [r3]	@ movhi
 256:Generated_Source\PSoC5/cyfitter_cfg.c **** 	/* Wait up to 250us for the PLL to lock */
 352              		.loc 1 256 0
 353 012e 41F25122 		movw	r2, #4689
 354 0132 23F8022C 		strh	r2, [r3, #-2]	@ movhi
 355              	.LVL20:
 356              	.L10:
 261:Generated_Source\PSoC5/cyfitter_cfg.c **** 		CyDelayCycles(10u * 48u); /* Delay 10us based on 48MHz clock */
 357              		.loc 1 261 0
 358 0136 3B78     		ldrb	r3, [r7]	@ zero_extendqisi2
 262:Generated_Source\PSoC5/cyfitter_cfg.c **** 	}
 359              		.loc 1 262 0
 360 0138 4FF4F070 		mov	r0, #480
 261:Generated_Source\PSoC5/cyfitter_cfg.c **** 		CyDelayCycles(10u * 48u); /* Delay 10us based on 48MHz clock */
 361              		.loc 1 261 0
 362 013c 03F00103 		and	r3, r3, #1
 363 0140 43EA4505 		orr	r5, r3, r5, lsl #1
 364              	.LVL21:
 262:Generated_Source\PSoC5/cyfitter_cfg.c **** 	}
ARM GAS  C:\Users\Zwe\AppData\Local\Temp\cc4T6F5G.s 			page 16


 365              		.loc 1 262 0
 366 0144 FFF7FEFF 		bl	CyDelayCycles
 367              	.LVL22:
 259:Generated_Source\PSoC5/cyfitter_cfg.c **** 	{ 
 368              		.loc 1 259 0
 369 0148 013E     		subs	r6, r6, #1
 370              	.LVL23:
 261:Generated_Source\PSoC5/cyfitter_cfg.c **** 		CyDelayCycles(10u * 48u); /* Delay 10us based on 48MHz clock */
 371              		.loc 1 261 0
 372 014a 05F00305 		and	r5, r5, #3
 373              	.LVL24:
 259:Generated_Source\PSoC5/cyfitter_cfg.c **** 	{ 
 374              		.loc 1 259 0
 375 014e 2FD0     		beq	.L9
 376              	.LVL25:
 377 0150 032D     		cmp	r5, #3
 378 0152 F0D1     		bne	.L10
 271:Generated_Source\PSoC5/cyfitter_cfg.c **** 	CY_SET_XTND_REG8((void CYFAR *)(CYREG_CLKDIST_MSTR0), 0x07u);
 379              		.loc 1 271 0
 380 0154 2F4B     		ldr	r3, .L20+96
 381 0156 4FF48072 		mov	r2, #256
 382 015a 1A80     		strh	r2, [r3]	@ movhi
 273:Generated_Source\PSoC5/cyfitter_cfg.c **** 	CY_SET_XTND_REG8((void CYFAR *)(CYREG_CLKDIST_BCFG2), 0x48u);
 383              		.loc 1 273 0
 384 015c 2E49     		ldr	r1, .L20+100
 272:Generated_Source\PSoC5/cyfitter_cfg.c **** 	CY_SET_XTND_REG8((void CYFAR *)(CYREG_CLKDIST_BCFG0), 0x00u);
 385              		.loc 1 272 0
 386 015e 0722     		movs	r2, #7
 387 0160 1A70     		strb	r2, [r3]
 274:Generated_Source\PSoC5/cyfitter_cfg.c **** 	CY_SET_XTND_REG8((void CYFAR *)(CYREG_CLKDIST_MSTR0), 0x00u);
 388              		.loc 1 274 0
 389 0162 4820     		movs	r0, #72
 273:Generated_Source\PSoC5/cyfitter_cfg.c **** 	CY_SET_XTND_REG8((void CYFAR *)(CYREG_CLKDIST_BCFG2), 0x48u);
 390              		.loc 1 273 0
 391 0164 0022     		movs	r2, #0
 392 0166 0A70     		strb	r2, [r1]
 274:Generated_Source\PSoC5/cyfitter_cfg.c **** 	CY_SET_XTND_REG8((void CYFAR *)(CYREG_CLKDIST_MSTR0), 0x00u);
 393              		.loc 1 274 0
 394 0168 8870     		strb	r0, [r1, #2]
 275:Generated_Source\PSoC5/cyfitter_cfg.c **** 	CY_SET_XTND_REG8((void CYFAR *)(CYREG_CLKDIST_LD), 0x02u);
 395              		.loc 1 275 0
 396 016a 1A70     		strb	r2, [r3]
 276:Generated_Source\PSoC5/cyfitter_cfg.c **** 
 397              		.loc 1 276 0
 398 016c 0222     		movs	r2, #2
 399 016e 03F8032C 		strb	r2, [r3, #-3]
 278:Generated_Source\PSoC5/cyfitter_cfg.c **** }
 400              		.loc 1 278 0
 401 0172 2A4A     		ldr	r2, .L20+104
 402              	.LBE66:
 403              	.LBE84:
 404              	.LBB85:
 405              	.LBB86:
  86:Generated_Source\PSoC5/cyfitter_cfg.c **** }
 406              		.loc 1 86 0
 407 0174 2A4D     		ldr	r5, .L20+108
 408              	.LVL26:
ARM GAS  C:\Users\Zwe\AppData\Local\Temp\cc4T6F5G.s 			page 17


 409              	.LBE86:
 410              	.LBE85:
 411              	.LBB88:
 412              	.LBB67:
 278:Generated_Source\PSoC5/cyfitter_cfg.c **** }
 413              		.loc 1 278 0
 414 0176 1378     		ldrb	r3, [r2]	@ zero_extendqisi2
 415 0178 43F00F03 		orr	r3, r3, #15
 416 017c 1370     		strb	r3, [r2]
 417              	.LVL27:
 418              	.LBE67:
 419              	.LBE88:
 447:Generated_Source\PSoC5/cyfitter_cfg.c **** 	/* Setup clocks based on selections from Clock DWR */
 448:Generated_Source\PSoC5/cyfitter_cfg.c **** 	ClockSetup();
 449:Generated_Source\PSoC5/cyfitter_cfg.c **** 	/* Set Flash Cycles based on newly configured 24.00MHz Bus Clock. */
 450:Generated_Source\PSoC5/cyfitter_cfg.c **** 	CY_SET_XTND_REG8((void CYFAR *)(CYREG_CACHE_CC_CTL), (((CYDEV_INSTRUCT_CACHE_ENABLED) != 0) ? 0x81
 420              		.loc 1 450 0
 421 017e 1F4B     		ldr	r3, .L20+72
 422 0180 8122     		movs	r2, #129
 423 0182 1A70     		strb	r2, [r3]
 451:Generated_Source\PSoC5/cyfitter_cfg.c **** 	CY_SET_XTND_REG8((void CYFAR *)(CYREG_PANTHER_WAITPIPE), 0x01u);
 424              		.loc 1 451 0
 425 0184 03F5F723 		add	r3, r3, #505856
 426 0188 0122     		movs	r2, #1
 427 018a 0433     		adds	r3, r3, #4
 428 018c 1A70     		strb	r2, [r3]
 429              	.LBB89:
 430              	.LBB90:
 303:Generated_Source\PSoC5/cyfitter_cfg.c **** 	CY_SET_XTND_REG8((void CYFAR *)(CYREG_BG_DFT0), (bg_xover_inl_trim & 0x07u));
 431              		.loc 1 303 0
 432 018e 254B     		ldr	r3, .L20+112
 304:Generated_Source\PSoC5/cyfitter_cfg.c **** 	CY_SET_XTND_REG8((void CYFAR *)(CYREG_BG_DFT1), ((bg_xover_inl_trim >> 4) & 0x0Fu));
 433              		.loc 1 304 0
 434 0190 254A     		ldr	r2, .L20+116
 303:Generated_Source\PSoC5/cyfitter_cfg.c **** 	CY_SET_XTND_REG8((void CYFAR *)(CYREG_BG_DFT0), (bg_xover_inl_trim & 0x07u));
 435              		.loc 1 303 0
 436 0192 1B78     		ldrb	r3, [r3]	@ zero_extendqisi2
 437 0194 DBB2     		uxtb	r3, r3
 438              	.LVL28:
 304:Generated_Source\PSoC5/cyfitter_cfg.c **** 	CY_SET_XTND_REG8((void CYFAR *)(CYREG_BG_DFT1), ((bg_xover_inl_trim >> 4) & 0x0Fu));
 439              		.loc 1 304 0
 440 0196 03F00701 		and	r1, r3, #7
 305:Generated_Source\PSoC5/cyfitter_cfg.c **** 	CY_SET_XTND_REG8((void CYFAR *)CYREG_PUMP_CR0, 0x44u);
 441              		.loc 1 305 0
 442 019a 1B09     		lsrs	r3, r3, #4
 443              	.LVL29:
 304:Generated_Source\PSoC5/cyfitter_cfg.c **** 	CY_SET_XTND_REG8((void CYFAR *)(CYREG_BG_DFT1), ((bg_xover_inl_trim >> 4) & 0x0Fu));
 444              		.loc 1 304 0
 445 019c 1170     		strb	r1, [r2]
 305:Generated_Source\PSoC5/cyfitter_cfg.c **** 	CY_SET_XTND_REG8((void CYFAR *)CYREG_PUMP_CR0, 0x44u);
 446              		.loc 1 305 0
 447 019e 5370     		strb	r3, [r2, #1]
 306:Generated_Source\PSoC5/cyfitter_cfg.c **** }
 448              		.loc 1 306 0
 449 01a0 224B     		ldr	r3, .L20+120
 450 01a2 4422     		movs	r2, #68
 451 01a4 1A70     		strb	r2, [r3]
ARM GAS  C:\Users\Zwe\AppData\Local\Temp\cc4T6F5G.s 			page 18


 452              	.LVL30:
 453              	.LBE90:
 454              	.LBE89:
 455              	.LBB91:
 456              	.LBB87:
  86:Generated_Source\PSoC5/cyfitter_cfg.c **** }
 457              		.loc 1 86 0
 458 01a6 94E80F00 		ldmia	r4, {r0, r1, r2, r3}
 459 01aa 07C5     		stmia	r5!, {r0, r1, r2}
 460 01ac 2B80     		strh	r3, [r5]	@ movhi
 461              	.LVL31:
 462 01ae F8BD     		pop	{r3, r4, r5, r6, r7, pc}
 463              	.LVL32:
 464              	.L9:
 465 01b0 FEE7     		b	.L9
 466              	.L21:
 467 01b2 00BF     		.align	2
 468              	.L20:
 469 01b4 E8460040 		.word	1073759976
 470 01b8 00000000 		.word	.LANCHOR0
 471 01bc 60520040 		.word	1073762912
 472 01c0 F4080048 		.word	1207961844
 473 01c4 78000048 		.word	1207959672
 474 01c8 801A0140 		.word	1073814144
 475 01cc FC080048 		.word	1207961852
 476 01d0 FCFFFF47 		.word	1207959548
 477 01d4 04040484 		.word	-2080111612
 478 01d8 D8040140 		.word	1073808600
 479 01dc A0430040 		.word	1073759136
 480 01e0 03500140 		.word	1073827843
 481 01e4 25420040 		.word	1073758757
 482 01e8 7C090048 		.word	1207961980
 483 01ec 00510040 		.word	1073762560
 484 01f0 88090048 		.word	1207961992
 485 01f4 12510040 		.word	1073762578
 486 01f8 94090048 		.word	1207962004
 487 01fc 00480040 		.word	1073760256
 488 0200 82400040 		.word	1073758338
 489 0204 00430040 		.word	1073758976
 490 0208 08010049 		.word	1224737032
 491 020c A1460040 		.word	1073759905
 492 0210 22420040 		.word	1073758754
 493 0214 04400040 		.word	1073758212
 494 0218 06400040 		.word	1073758214
 495 021c A2430040 		.word	1073759138
 496 0220 B0430040 		.word	1073759152
 497 0224 CF010049 		.word	1224737231
 498 0228 6E580040 		.word	1073764462
 499 022c 76580040 		.word	1073764470
 500              	.LBE87:
 501              	.LBE91:
 502              		.cfi_endproc
 503              	.LFE8:
 504              		.size	cyfitter_cfg, .-cyfitter_cfg
 505              		.section	.rodata
 506              		.set	.LANCHOR0,. + 0
 507              		.type	cfg_memset_list.5018, %object
ARM GAS  C:\Users\Zwe\AppData\Local\Temp\cc4T6F5G.s 			page 19


 508              		.size	cfg_memset_list.5018, 48
 509              	cfg_memset_list.5018:
 510 0000 30510040 		.4byte	1073762608
 511 0004 4000     		.2byte	64
 512 0006 F0510040 		.4byte	1073762800
 513 000a 1000     		.2byte	16
 514 000c 00000140 		.4byte	1073807360
 515 0010 0010     		.2byte	4096
 516 0012 00140140 		.4byte	1073812480
 517 0016 8006     		.2byte	1664
 518 0018 001B0140 		.4byte	1073814272
 519 001c 0001     		.2byte	256
 520 001e 00400140 		.4byte	1073823744
 521 0022 000A     		.2byte	2560
 522 0024 004C0140 		.4byte	1073826816
 523 0028 0002     		.2byte	512
 524 002a 00500140 		.4byte	1073827840
 525 002e 2000     		.2byte	32
 526              		.text
 527              	.Letext0:
 528              		.file 2 "c:\\program files (x86)\\cypress\\psoc creator\\4.2\\psoc creator\\import\\gnu\\arm\\5.4.
 529              		.file 3 "Generated_Source\\PSoC5\\cytypes.h"
 530              		.file 4 "Generated_Source\\PSoC5\\CyLib.h"