ARM GAS  C:\Users\mmoh0006\AppData\Local\Temp\cczwaMpa.s 			page 1


   1              		.syntax unified
   2              		.cpu cortex-m3
   3              		.fpu softvfp
   4              		.eabi_attribute 20, 1
   5              		.eabi_attribute 21, 1
   6              		.eabi_attribute 23, 3
   7              		.eabi_attribute 24, 1
   8              		.eabi_attribute 25, 1
   9              		.eabi_attribute 26, 1
  10              		.eabi_attribute 30, 4
  11              		.eabi_attribute 34, 1
  12              		.eabi_attribute 18, 4
  13              		.thumb
  14              		.syntax unified
  15              		.file	"Pulse_Count.c"
  16              		.text
  17              	.Ltext0:
  18              		.cfi_sections	.debug_frame
  19              		.section	.text.Pulse_Count_Init,"ax",%progbits
  20              		.align	1
  21              		.global	Pulse_Count_Init
  22              		.thumb
  23              		.thumb_func
  24              		.type	Pulse_Count_Init, %function
  25              	Pulse_Count_Init:
  26              	.LFB0:
  27              		.file 1 "Generated_Source\\PSoC5\\Pulse_Count.c"
   1:Generated_Source\PSoC5/Pulse_Count.c **** /*******************************************************************************
   2:Generated_Source\PSoC5/Pulse_Count.c **** * File Name: Pulse_Count.c
   3:Generated_Source\PSoC5/Pulse_Count.c **** * Version 1.0
   4:Generated_Source\PSoC5/Pulse_Count.c **** *
   5:Generated_Source\PSoC5/Pulse_Count.c **** * Description:
   6:Generated_Source\PSoC5/Pulse_Count.c **** *  This file provides source code for the Count7 component's API.
   7:Generated_Source\PSoC5/Pulse_Count.c **** *
   8:Generated_Source\PSoC5/Pulse_Count.c **** * Note:
   9:Generated_Source\PSoC5/Pulse_Count.c **** *
  10:Generated_Source\PSoC5/Pulse_Count.c **** ********************************************************************************
  11:Generated_Source\PSoC5/Pulse_Count.c **** * Copyright 2013, Cypress Semiconductor Corporation.  All rights reserved.
  12:Generated_Source\PSoC5/Pulse_Count.c **** * You may use this file only in accordance with the license, terms, conditions,
  13:Generated_Source\PSoC5/Pulse_Count.c **** * disclaimers, and limitations in the end user license agreement accompanying
  14:Generated_Source\PSoC5/Pulse_Count.c **** * the software package with which this file was provided.
  15:Generated_Source\PSoC5/Pulse_Count.c **** *******************************************************************************/
  16:Generated_Source\PSoC5/Pulse_Count.c **** 
  17:Generated_Source\PSoC5/Pulse_Count.c **** #include "Pulse_Count.h"
  18:Generated_Source\PSoC5/Pulse_Count.c **** 
  19:Generated_Source\PSoC5/Pulse_Count.c **** uint8 Pulse_Count_initVar = 0u;
  20:Generated_Source\PSoC5/Pulse_Count.c **** 
  21:Generated_Source\PSoC5/Pulse_Count.c **** 
  22:Generated_Source\PSoC5/Pulse_Count.c **** /*******************************************************************************
  23:Generated_Source\PSoC5/Pulse_Count.c **** * Function Name: Pulse_Count_Init
  24:Generated_Source\PSoC5/Pulse_Count.c **** ********************************************************************************
  25:Generated_Source\PSoC5/Pulse_Count.c **** *
  26:Generated_Source\PSoC5/Pulse_Count.c **** * Summary:
  27:Generated_Source\PSoC5/Pulse_Count.c **** *  Initializes or restores the component according to the parameter editor
  28:Generated_Source\PSoC5/Pulse_Count.c **** *  settings.
  29:Generated_Source\PSoC5/Pulse_Count.c **** *
  30:Generated_Source\PSoC5/Pulse_Count.c **** * Parameters:
ARM GAS  C:\Users\mmoh0006\AppData\Local\Temp\cczwaMpa.s 			page 2


  31:Generated_Source\PSoC5/Pulse_Count.c **** *  None
  32:Generated_Source\PSoC5/Pulse_Count.c **** *
  33:Generated_Source\PSoC5/Pulse_Count.c **** * Return:
  34:Generated_Source\PSoC5/Pulse_Count.c **** *  None
  35:Generated_Source\PSoC5/Pulse_Count.c **** *
  36:Generated_Source\PSoC5/Pulse_Count.c **** * Theory:
  37:Generated_Source\PSoC5/Pulse_Count.c **** *  It is not necessary to call Count7_Init() because the Count7_Start() API
  38:Generated_Source\PSoC5/Pulse_Count.c **** *  calls this function and is the preferred method to begin component
  39:Generated_Source\PSoC5/Pulse_Count.c **** *  operation.
  40:Generated_Source\PSoC5/Pulse_Count.c **** *
  41:Generated_Source\PSoC5/Pulse_Count.c **** *******************************************************************************/
  42:Generated_Source\PSoC5/Pulse_Count.c **** void Pulse_Count_Init(void) 
  43:Generated_Source\PSoC5/Pulse_Count.c **** {
  28              		.loc 1 43 0
  29              		.cfi_startproc
  30              		@ args = 0, pretend = 0, frame = 0
  31              		@ frame_needed = 0, uses_anonymous_args = 0
  32              		@ link register save eliminated.
  44:Generated_Source\PSoC5/Pulse_Count.c ****     /* Set the initial period value from parameter editor */
  45:Generated_Source\PSoC5/Pulse_Count.c ****     Pulse_Count_PERIOD_REG = Pulse_Count_INITIAL_PERIOD;
  33              		.loc 1 45 0
  34 0000 014B     		ldr	r3, .L2
  35 0002 0122     		movs	r2, #1
  36 0004 1A70     		strb	r2, [r3]
  37 0006 7047     		bx	lr
  38              	.L3:
  39              		.align	2
  40              	.L2:
  41 0008 87650040 		.word	1073767815
  42              		.cfi_endproc
  43              	.LFE0:
  44              		.size	Pulse_Count_Init, .-Pulse_Count_Init
  45              		.section	.text.Pulse_Count_Enable,"ax",%progbits
  46              		.align	1
  47              		.global	Pulse_Count_Enable
  48              		.thumb
  49              		.thumb_func
  50              		.type	Pulse_Count_Enable, %function
  51              	Pulse_Count_Enable:
  52              	.LFB1:
  46:Generated_Source\PSoC5/Pulse_Count.c **** }
  47:Generated_Source\PSoC5/Pulse_Count.c **** 
  48:Generated_Source\PSoC5/Pulse_Count.c **** 
  49:Generated_Source\PSoC5/Pulse_Count.c **** /*******************************************************************************
  50:Generated_Source\PSoC5/Pulse_Count.c **** * Function Name: Pulse_Count_Enable
  51:Generated_Source\PSoC5/Pulse_Count.c **** ********************************************************************************
  52:Generated_Source\PSoC5/Pulse_Count.c **** *
  53:Generated_Source\PSoC5/Pulse_Count.c **** * Summary:
  54:Generated_Source\PSoC5/Pulse_Count.c **** *  Enables the software enable of the counter.
  55:Generated_Source\PSoC5/Pulse_Count.c **** *
  56:Generated_Source\PSoC5/Pulse_Count.c **** * Parameters:
  57:Generated_Source\PSoC5/Pulse_Count.c **** *  None
  58:Generated_Source\PSoC5/Pulse_Count.c **** *
  59:Generated_Source\PSoC5/Pulse_Count.c **** * Return:
  60:Generated_Source\PSoC5/Pulse_Count.c **** *  None
  61:Generated_Source\PSoC5/Pulse_Count.c **** *
  62:Generated_Source\PSoC5/Pulse_Count.c **** * Theory:
ARM GAS  C:\Users\mmoh0006\AppData\Local\Temp\cczwaMpa.s 			page 3


  63:Generated_Source\PSoC5/Pulse_Count.c **** *  It is not necessary to call Count7_Enable() because the Count7_Start() API
  64:Generated_Source\PSoC5/Pulse_Count.c **** *  calls this function, which is the preferred method to begin component
  65:Generated_Source\PSoC5/Pulse_Count.c **** *  operation.
  66:Generated_Source\PSoC5/Pulse_Count.c **** *  This API performs modification of auxiliary control register which is a
  67:Generated_Source\PSoC5/Pulse_Count.c **** *  shared resource so it is required to disable interrupts until the
  68:Generated_Source\PSoC5/Pulse_Count.c **** *  modification will complete.
  69:Generated_Source\PSoC5/Pulse_Count.c **** *
  70:Generated_Source\PSoC5/Pulse_Count.c **** *******************************************************************************/
  71:Generated_Source\PSoC5/Pulse_Count.c **** void Pulse_Count_Enable(void) 
  72:Generated_Source\PSoC5/Pulse_Count.c **** {
  53              		.loc 1 72 0
  54              		.cfi_startproc
  55              		@ args = 0, pretend = 0, frame = 0
  56              		@ frame_needed = 0, uses_anonymous_args = 0
  57 0000 08B5     		push	{r3, lr}
  58              		.cfi_def_cfa_offset 8
  59              		.cfi_offset 3, -8
  60              		.cfi_offset 14, -4
  73:Generated_Source\PSoC5/Pulse_Count.c ****     uint8 interruptState;
  74:Generated_Source\PSoC5/Pulse_Count.c **** 
  75:Generated_Source\PSoC5/Pulse_Count.c ****     interruptState = CyEnterCriticalSection();
  61              		.loc 1 75 0
  62 0002 FFF7FEFF 		bl	CyEnterCriticalSection
  63              	.LVL0:
  76:Generated_Source\PSoC5/Pulse_Count.c ****     /* Set the counter start bit in auxiliary control. If routed enable
  77:Generated_Source\PSoC5/Pulse_Count.c ****     * isn't used then this will immediately star the Count7 operation.
  78:Generated_Source\PSoC5/Pulse_Count.c ****     */
  79:Generated_Source\PSoC5/Pulse_Count.c ****     Pulse_Count_AUX_CONTROL_REG |= Pulse_Count_COUNTER_START;
  64              		.loc 1 79 0
  65 0006 044A     		ldr	r2, .L5
  66 0008 1378     		ldrb	r3, [r2]	@ zero_extendqisi2
  67 000a 43F02003 		orr	r3, r3, #32
  68 000e 1370     		strb	r3, [r2]
  80:Generated_Source\PSoC5/Pulse_Count.c **** 
  81:Generated_Source\PSoC5/Pulse_Count.c ****     CyExitCriticalSection(interruptState);
  82:Generated_Source\PSoC5/Pulse_Count.c **** }
  69              		.loc 1 82 0
  70 0010 BDE80840 		pop	{r3, lr}
  71              		.cfi_restore 14
  72              		.cfi_restore 3
  73              		.cfi_def_cfa_offset 0
  81:Generated_Source\PSoC5/Pulse_Count.c **** }
  74              		.loc 1 81 0
  75 0014 FFF7FEBF 		b	CyExitCriticalSection
  76              	.LVL1:
  77              	.L6:
  78              		.align	2
  79              	.L5:
  80 0018 97650040 		.word	1073767831
  81              		.cfi_endproc
  82              	.LFE1:
  83              		.size	Pulse_Count_Enable, .-Pulse_Count_Enable
  84              		.section	.text.Pulse_Count_Start,"ax",%progbits
  85              		.align	1
  86              		.global	Pulse_Count_Start
  87              		.thumb
  88              		.thumb_func
ARM GAS  C:\Users\mmoh0006\AppData\Local\Temp\cczwaMpa.s 			page 4


  89              		.type	Pulse_Count_Start, %function
  90              	Pulse_Count_Start:
  91              	.LFB2:
  83:Generated_Source\PSoC5/Pulse_Count.c **** 
  84:Generated_Source\PSoC5/Pulse_Count.c **** 
  85:Generated_Source\PSoC5/Pulse_Count.c **** /*******************************************************************************
  86:Generated_Source\PSoC5/Pulse_Count.c **** * Function Name: Pulse_Count_Start
  87:Generated_Source\PSoC5/Pulse_Count.c **** ********************************************************************************
  88:Generated_Source\PSoC5/Pulse_Count.c **** *
  89:Generated_Source\PSoC5/Pulse_Count.c **** * Summary:
  90:Generated_Source\PSoC5/Pulse_Count.c **** *  Performs all of the required initialization for the component and enables
  91:Generated_Source\PSoC5/Pulse_Count.c **** *  the counter. The first time the routine is executed, the period is set as
  92:Generated_Source\PSoC5/Pulse_Count.c **** *  configured in the customizer. When called to restart the counter following a
  93:Generated_Source\PSoC5/Pulse_Count.c **** *  Count7_Stop() call, the current period value is retained.
  94:Generated_Source\PSoC5/Pulse_Count.c **** *
  95:Generated_Source\PSoC5/Pulse_Count.c **** * Parameters:
  96:Generated_Source\PSoC5/Pulse_Count.c **** *  None.
  97:Generated_Source\PSoC5/Pulse_Count.c **** *
  98:Generated_Source\PSoC5/Pulse_Count.c **** * Global Variables:
  99:Generated_Source\PSoC5/Pulse_Count.c **** *  Pulse_Count_initVar - global variable.
 100:Generated_Source\PSoC5/Pulse_Count.c **** *
 101:Generated_Source\PSoC5/Pulse_Count.c **** * Return:
 102:Generated_Source\PSoC5/Pulse_Count.c **** *  None.
 103:Generated_Source\PSoC5/Pulse_Count.c **** *
 104:Generated_Source\PSoC5/Pulse_Count.c **** *******************************************************************************/
 105:Generated_Source\PSoC5/Pulse_Count.c **** void Pulse_Count_Start(void) 
 106:Generated_Source\PSoC5/Pulse_Count.c **** {
  92              		.loc 1 106 0
  93              		.cfi_startproc
  94              		@ args = 0, pretend = 0, frame = 0
  95              		@ frame_needed = 0, uses_anonymous_args = 0
  96              		@ link register save eliminated.
 107:Generated_Source\PSoC5/Pulse_Count.c ****     /* If not initialized then perform initialization */
 108:Generated_Source\PSoC5/Pulse_Count.c ****     if(Pulse_Count_initVar == 0u)
  97              		.loc 1 108 0
  98 0000 044B     		ldr	r3, .L10
  99 0002 1A78     		ldrb	r2, [r3]	@ zero_extendqisi2
 100 0004 1AB9     		cbnz	r2, .L8
 101              	.LBB4:
 102              	.LBB5:
  45:Generated_Source\PSoC5/Pulse_Count.c **** }
 103              		.loc 1 45 0
 104 0006 0449     		ldr	r1, .L10+4
 105 0008 0122     		movs	r2, #1
 106 000a 0A70     		strb	r2, [r1]
 107              	.LBE5:
 108              	.LBE4:
 109:Generated_Source\PSoC5/Pulse_Count.c ****     {
 110:Generated_Source\PSoC5/Pulse_Count.c ****         Pulse_Count_Init();
 111:Generated_Source\PSoC5/Pulse_Count.c ****         Pulse_Count_initVar = 1u;
 109              		.loc 1 111 0
 110 000c 1A70     		strb	r2, [r3]
 111              	.L8:
 112:Generated_Source\PSoC5/Pulse_Count.c ****     }
 113:Generated_Source\PSoC5/Pulse_Count.c **** 
 114:Generated_Source\PSoC5/Pulse_Count.c ****     /* Enable Count7 */
 115:Generated_Source\PSoC5/Pulse_Count.c ****     Pulse_Count_Enable();
ARM GAS  C:\Users\mmoh0006\AppData\Local\Temp\cczwaMpa.s 			page 5


 112              		.loc 1 115 0
 113 000e FFF7FEBF 		b	Pulse_Count_Enable
 114              	.LVL2:
 115              	.L11:
 116 0012 00BF     		.align	2
 117              	.L10:
 118 0014 00000000 		.word	.LANCHOR0
 119 0018 87650040 		.word	1073767815
 120              		.cfi_endproc
 121              	.LFE2:
 122              		.size	Pulse_Count_Start, .-Pulse_Count_Start
 123              		.section	.text.Pulse_Count_Stop,"ax",%progbits
 124              		.align	1
 125              		.global	Pulse_Count_Stop
 126              		.thumb
 127              		.thumb_func
 128              		.type	Pulse_Count_Stop, %function
 129              	Pulse_Count_Stop:
 130              	.LFB3:
 116:Generated_Source\PSoC5/Pulse_Count.c **** }
 117:Generated_Source\PSoC5/Pulse_Count.c **** 
 118:Generated_Source\PSoC5/Pulse_Count.c **** 
 119:Generated_Source\PSoC5/Pulse_Count.c **** /*******************************************************************************
 120:Generated_Source\PSoC5/Pulse_Count.c **** * Function Name: Pulse_Count_Stop
 121:Generated_Source\PSoC5/Pulse_Count.c **** ********************************************************************************
 122:Generated_Source\PSoC5/Pulse_Count.c **** *
 123:Generated_Source\PSoC5/Pulse_Count.c **** * Summary:
 124:Generated_Source\PSoC5/Pulse_Count.c **** *  Disables the software enable of the counter.
 125:Generated_Source\PSoC5/Pulse_Count.c **** *
 126:Generated_Source\PSoC5/Pulse_Count.c **** * Parameters:
 127:Generated_Source\PSoC5/Pulse_Count.c **** *  None
 128:Generated_Source\PSoC5/Pulse_Count.c **** *
 129:Generated_Source\PSoC5/Pulse_Count.c **** * Return:
 130:Generated_Source\PSoC5/Pulse_Count.c **** *  None
 131:Generated_Source\PSoC5/Pulse_Count.c **** *
 132:Generated_Source\PSoC5/Pulse_Count.c **** *******************************************************************************/
 133:Generated_Source\PSoC5/Pulse_Count.c **** void Pulse_Count_Stop(void) 
 134:Generated_Source\PSoC5/Pulse_Count.c **** {
 131              		.loc 1 134 0
 132              		.cfi_startproc
 133              		@ args = 0, pretend = 0, frame = 0
 134              		@ frame_needed = 0, uses_anonymous_args = 0
 135 0000 08B5     		push	{r3, lr}
 136              		.cfi_def_cfa_offset 8
 137              		.cfi_offset 3, -8
 138              		.cfi_offset 14, -4
 135:Generated_Source\PSoC5/Pulse_Count.c ****     uint8 interruptState;
 136:Generated_Source\PSoC5/Pulse_Count.c **** 
 137:Generated_Source\PSoC5/Pulse_Count.c ****     interruptState = CyEnterCriticalSection();
 139              		.loc 1 137 0
 140 0002 FFF7FEFF 		bl	CyEnterCriticalSection
 141              	.LVL3:
 138:Generated_Source\PSoC5/Pulse_Count.c ****     /* Clear the counter start bit in auxiliary control. */
 139:Generated_Source\PSoC5/Pulse_Count.c ****     Pulse_Count_AUX_CONTROL_REG &= (uint8) ~((uint8) Pulse_Count_COUNTER_START);
 142              		.loc 1 139 0
 143 0006 044A     		ldr	r2, .L13
 144 0008 1378     		ldrb	r3, [r2]	@ zero_extendqisi2
ARM GAS  C:\Users\mmoh0006\AppData\Local\Temp\cczwaMpa.s 			page 6


 145 000a 03F0DF03 		and	r3, r3, #223
 146 000e 1370     		strb	r3, [r2]
 140:Generated_Source\PSoC5/Pulse_Count.c **** 
 141:Generated_Source\PSoC5/Pulse_Count.c ****     CyExitCriticalSection(interruptState);
 142:Generated_Source\PSoC5/Pulse_Count.c **** }
 147              		.loc 1 142 0
 148 0010 BDE80840 		pop	{r3, lr}
 149              		.cfi_restore 14
 150              		.cfi_restore 3
 151              		.cfi_def_cfa_offset 0
 141:Generated_Source\PSoC5/Pulse_Count.c **** }
 152              		.loc 1 141 0
 153 0014 FFF7FEBF 		b	CyExitCriticalSection
 154              	.LVL4:
 155              	.L14:
 156              		.align	2
 157              	.L13:
 158 0018 97650040 		.word	1073767831
 159              		.cfi_endproc
 160              	.LFE3:
 161              		.size	Pulse_Count_Stop, .-Pulse_Count_Stop
 162              		.section	.text.Pulse_Count_WriteCounter,"ax",%progbits
 163              		.align	1
 164              		.global	Pulse_Count_WriteCounter
 165              		.thumb
 166              		.thumb_func
 167              		.type	Pulse_Count_WriteCounter, %function
 168              	Pulse_Count_WriteCounter:
 169              	.LFB4:
 143:Generated_Source\PSoC5/Pulse_Count.c **** 
 144:Generated_Source\PSoC5/Pulse_Count.c **** 
 145:Generated_Source\PSoC5/Pulse_Count.c **** /*******************************************************************************
 146:Generated_Source\PSoC5/Pulse_Count.c **** * Function Name: Pulse_Count_WriteCounter
 147:Generated_Source\PSoC5/Pulse_Count.c **** ********************************************************************************
 148:Generated_Source\PSoC5/Pulse_Count.c **** *
 149:Generated_Source\PSoC5/Pulse_Count.c **** * Summary:
 150:Generated_Source\PSoC5/Pulse_Count.c **** *  This function writes the counter directly. The counter should be disabled
 151:Generated_Source\PSoC5/Pulse_Count.c **** *  before calling this function.
 152:Generated_Source\PSoC5/Pulse_Count.c **** *
 153:Generated_Source\PSoC5/Pulse_Count.c **** * Parameters:
 154:Generated_Source\PSoC5/Pulse_Count.c **** *  count - Value to be written to counter.
 155:Generated_Source\PSoC5/Pulse_Count.c **** *
 156:Generated_Source\PSoC5/Pulse_Count.c **** * Return:
 157:Generated_Source\PSoC5/Pulse_Count.c **** *  None
 158:Generated_Source\PSoC5/Pulse_Count.c **** *
 159:Generated_Source\PSoC5/Pulse_Count.c **** *******************************************************************************/
 160:Generated_Source\PSoC5/Pulse_Count.c **** void Pulse_Count_WriteCounter(uint8 count) 
 161:Generated_Source\PSoC5/Pulse_Count.c **** {
 170              		.loc 1 161 0
 171              		.cfi_startproc
 172              		@ args = 0, pretend = 0, frame = 0
 173              		@ frame_needed = 0, uses_anonymous_args = 0
 174              		@ link register save eliminated.
 175              	.LVL5:
 162:Generated_Source\PSoC5/Pulse_Count.c ****     Pulse_Count_COUNT_REG = (count & Pulse_Count_COUNT_7BIT_MASK);
 176              		.loc 1 162 0
 177 0000 024B     		ldr	r3, .L16
ARM GAS  C:\Users\mmoh0006\AppData\Local\Temp\cczwaMpa.s 			page 7


 178 0002 00F07F00 		and	r0, r0, #127
 179              	.LVL6:
 180 0006 1870     		strb	r0, [r3]
 181 0008 7047     		bx	lr
 182              	.L17:
 183 000a 00BF     		.align	2
 184              	.L16:
 185 000c 77650040 		.word	1073767799
 186              		.cfi_endproc
 187              	.LFE4:
 188              		.size	Pulse_Count_WriteCounter, .-Pulse_Count_WriteCounter
 189              		.section	.text.Pulse_Count_ReadCounter,"ax",%progbits
 190              		.align	1
 191              		.global	Pulse_Count_ReadCounter
 192              		.thumb
 193              		.thumb_func
 194              		.type	Pulse_Count_ReadCounter, %function
 195              	Pulse_Count_ReadCounter:
 196              	.LFB5:
 163:Generated_Source\PSoC5/Pulse_Count.c **** }
 164:Generated_Source\PSoC5/Pulse_Count.c **** 
 165:Generated_Source\PSoC5/Pulse_Count.c **** 
 166:Generated_Source\PSoC5/Pulse_Count.c **** /*******************************************************************************
 167:Generated_Source\PSoC5/Pulse_Count.c **** * Function Name: Pulse_Count_ReadCounter
 168:Generated_Source\PSoC5/Pulse_Count.c **** ********************************************************************************
 169:Generated_Source\PSoC5/Pulse_Count.c **** *
 170:Generated_Source\PSoC5/Pulse_Count.c **** * Summary:
 171:Generated_Source\PSoC5/Pulse_Count.c **** *  This function reads the counter value.
 172:Generated_Source\PSoC5/Pulse_Count.c **** *
 173:Generated_Source\PSoC5/Pulse_Count.c **** * Parameters:
 174:Generated_Source\PSoC5/Pulse_Count.c **** *  None
 175:Generated_Source\PSoC5/Pulse_Count.c **** *
 176:Generated_Source\PSoC5/Pulse_Count.c **** * Return:
 177:Generated_Source\PSoC5/Pulse_Count.c **** *  None
 178:Generated_Source\PSoC5/Pulse_Count.c **** *
 179:Generated_Source\PSoC5/Pulse_Count.c **** *******************************************************************************/
 180:Generated_Source\PSoC5/Pulse_Count.c **** uint8 Pulse_Count_ReadCounter(void) 
 181:Generated_Source\PSoC5/Pulse_Count.c **** {
 197              		.loc 1 181 0
 198              		.cfi_startproc
 199              		@ args = 0, pretend = 0, frame = 0
 200              		@ frame_needed = 0, uses_anonymous_args = 0
 201              		@ link register save eliminated.
 182:Generated_Source\PSoC5/Pulse_Count.c ****     return(Pulse_Count_COUNT_REG & Pulse_Count_COUNT_7BIT_MASK);
 202              		.loc 1 182 0
 203 0000 024B     		ldr	r3, .L19
 204 0002 1878     		ldrb	r0, [r3]	@ zero_extendqisi2
 183:Generated_Source\PSoC5/Pulse_Count.c **** }
 205              		.loc 1 183 0
 206 0004 00F07F00 		and	r0, r0, #127
 207 0008 7047     		bx	lr
 208              	.L20:
 209 000a 00BF     		.align	2
 210              	.L19:
 211 000c 77650040 		.word	1073767799
 212              		.cfi_endproc
 213              	.LFE5:
ARM GAS  C:\Users\mmoh0006\AppData\Local\Temp\cczwaMpa.s 			page 8


 214              		.size	Pulse_Count_ReadCounter, .-Pulse_Count_ReadCounter
 215              		.section	.text.Pulse_Count_WritePeriod,"ax",%progbits
 216              		.align	1
 217              		.global	Pulse_Count_WritePeriod
 218              		.thumb
 219              		.thumb_func
 220              		.type	Pulse_Count_WritePeriod, %function
 221              	Pulse_Count_WritePeriod:
 222              	.LFB6:
 184:Generated_Source\PSoC5/Pulse_Count.c **** 
 185:Generated_Source\PSoC5/Pulse_Count.c **** 
 186:Generated_Source\PSoC5/Pulse_Count.c **** /*******************************************************************************
 187:Generated_Source\PSoC5/Pulse_Count.c **** * Function Name: Pulse_Count_WritePeriod
 188:Generated_Source\PSoC5/Pulse_Count.c **** ********************************************************************************
 189:Generated_Source\PSoC5/Pulse_Count.c **** *
 190:Generated_Source\PSoC5/Pulse_Count.c **** * Summary:
 191:Generated_Source\PSoC5/Pulse_Count.c **** *  This function writes the period register. The actual period is one greater
 192:Generated_Source\PSoC5/Pulse_Count.c **** *  than the value in the period register since the counting sequence starts
 193:Generated_Source\PSoC5/Pulse_Count.c **** *  with the period register and counts down to 0 inclusive. The period of the
 194:Generated_Source\PSoC5/Pulse_Count.c **** *  counter output does not change until the counter is reloaded following the
 195:Generated_Source\PSoC5/Pulse_Count.c **** *  terminal count value of 0 or due to a hardware load signal.
 196:Generated_Source\PSoC5/Pulse_Count.c **** *
 197:Generated_Source\PSoC5/Pulse_Count.c **** * Parameters:
 198:Generated_Source\PSoC5/Pulse_Count.c **** *  period - Period value to be written.
 199:Generated_Source\PSoC5/Pulse_Count.c **** *
 200:Generated_Source\PSoC5/Pulse_Count.c **** * Return:
 201:Generated_Source\PSoC5/Pulse_Count.c **** *  None
 202:Generated_Source\PSoC5/Pulse_Count.c **** *
 203:Generated_Source\PSoC5/Pulse_Count.c **** *******************************************************************************/
 204:Generated_Source\PSoC5/Pulse_Count.c **** void Pulse_Count_WritePeriod(uint8 period) 
 205:Generated_Source\PSoC5/Pulse_Count.c **** {
 223              		.loc 1 205 0
 224              		.cfi_startproc
 225              		@ args = 0, pretend = 0, frame = 0
 226              		@ frame_needed = 0, uses_anonymous_args = 0
 227              		@ link register save eliminated.
 228              	.LVL7:
 206:Generated_Source\PSoC5/Pulse_Count.c ****     Pulse_Count_PERIOD_REG = period;
 229              		.loc 1 206 0
 230 0000 014B     		ldr	r3, .L22
 231 0002 1870     		strb	r0, [r3]
 232 0004 7047     		bx	lr
 233              	.L23:
 234 0006 00BF     		.align	2
 235              	.L22:
 236 0008 87650040 		.word	1073767815
 237              		.cfi_endproc
 238              	.LFE6:
 239              		.size	Pulse_Count_WritePeriod, .-Pulse_Count_WritePeriod
 240              		.section	.text.Pulse_Count_ReadPeriod,"ax",%progbits
 241              		.align	1
 242              		.global	Pulse_Count_ReadPeriod
 243              		.thumb
 244              		.thumb_func
 245              		.type	Pulse_Count_ReadPeriod, %function
 246              	Pulse_Count_ReadPeriod:
 247              	.LFB7:
ARM GAS  C:\Users\mmoh0006\AppData\Local\Temp\cczwaMpa.s 			page 9


 207:Generated_Source\PSoC5/Pulse_Count.c **** }
 208:Generated_Source\PSoC5/Pulse_Count.c **** 
 209:Generated_Source\PSoC5/Pulse_Count.c **** 
 210:Generated_Source\PSoC5/Pulse_Count.c **** /*******************************************************************************
 211:Generated_Source\PSoC5/Pulse_Count.c **** * Function Name: Pulse_Count_ReadPeriod
 212:Generated_Source\PSoC5/Pulse_Count.c **** ********************************************************************************
 213:Generated_Source\PSoC5/Pulse_Count.c **** *
 214:Generated_Source\PSoC5/Pulse_Count.c **** * Summary:
 215:Generated_Source\PSoC5/Pulse_Count.c **** *  This function reads the period register.
 216:Generated_Source\PSoC5/Pulse_Count.c **** *
 217:Generated_Source\PSoC5/Pulse_Count.c **** * Parameters:
 218:Generated_Source\PSoC5/Pulse_Count.c **** *  None
 219:Generated_Source\PSoC5/Pulse_Count.c **** *
 220:Generated_Source\PSoC5/Pulse_Count.c **** * Return:
 221:Generated_Source\PSoC5/Pulse_Count.c **** *  uint8 - Current period value.
 222:Generated_Source\PSoC5/Pulse_Count.c **** *
 223:Generated_Source\PSoC5/Pulse_Count.c **** *******************************************************************************/
 224:Generated_Source\PSoC5/Pulse_Count.c **** uint8 Pulse_Count_ReadPeriod(void) 
 225:Generated_Source\PSoC5/Pulse_Count.c **** {
 248              		.loc 1 225 0
 249              		.cfi_startproc
 250              		@ args = 0, pretend = 0, frame = 0
 251              		@ frame_needed = 0, uses_anonymous_args = 0
 252              		@ link register save eliminated.
 226:Generated_Source\PSoC5/Pulse_Count.c ****     return(Pulse_Count_PERIOD_REG);
 253              		.loc 1 226 0
 254 0000 014B     		ldr	r3, .L25
 255 0002 1878     		ldrb	r0, [r3]	@ zero_extendqisi2
 227:Generated_Source\PSoC5/Pulse_Count.c **** }
 256              		.loc 1 227 0
 257 0004 7047     		bx	lr
 258              	.L26:
 259 0006 00BF     		.align	2
 260              	.L25:
 261 0008 87650040 		.word	1073767815
 262              		.cfi_endproc
 263              	.LFE7:
 264              		.size	Pulse_Count_ReadPeriod, .-Pulse_Count_ReadPeriod
 265              		.global	Pulse_Count_initVar
 266              		.bss
 267              		.set	.LANCHOR0,. + 0
 268              		.type	Pulse_Count_initVar, %object
 269              		.size	Pulse_Count_initVar, 1
 270              	Pulse_Count_initVar:
 271 0000 00       		.space	1
 272              		.text
 273              	.Letext0:
 274              		.file 2 "Generated_Source\\PSoC5\\cytypes.h"
 275              		.file 3 "Generated_Source\\PSoC5\\CyLib.h"