ARM GAS  C:\Users\mmoh0006\AppData\Local\Temp\ccb4Zwvq.s 			page 1


   1              		.syntax unified
   2              		.cpu cortex-m3
   3              		.fpu softvfp
   4              		.eabi_attribute 20, 1
   5              		.eabi_attribute 21, 1
   6              		.eabi_attribute 23, 3
   7              		.eabi_attribute 24, 1
   8              		.eabi_attribute 25, 1
   9              		.eabi_attribute 26, 1
  10              		.eabi_attribute 30, 4
  11              		.eabi_attribute 34, 1
  12              		.eabi_attribute 18, 4
  13              		.thumb
  14              		.syntax unified
  15              		.file	"Pulse_Count_PM.c"
  16              		.text
  17              	.Ltext0:
  18              		.cfi_sections	.debug_frame
  19              		.section	.text.Pulse_Count_SaveConfig,"ax",%progbits
  20              		.align	1
  21              		.global	Pulse_Count_SaveConfig
  22              		.thumb
  23              		.thumb_func
  24              		.type	Pulse_Count_SaveConfig, %function
  25              	Pulse_Count_SaveConfig:
  26              	.LFB0:
  27              		.file 1 "Generated_Source\\PSoC5\\Pulse_Count_PM.c"
   1:Generated_Source\PSoC5/Pulse_Count_PM.c **** /*******************************************************************************
   2:Generated_Source\PSoC5/Pulse_Count_PM.c **** * File Name: Pulse_Count_PM.c
   3:Generated_Source\PSoC5/Pulse_Count_PM.c **** * Version 1.0
   4:Generated_Source\PSoC5/Pulse_Count_PM.c **** *
   5:Generated_Source\PSoC5/Pulse_Count_PM.c **** * Description:
   6:Generated_Source\PSoC5/Pulse_Count_PM.c **** *  This file provides Low power mode APIs for Count7 component.
   7:Generated_Source\PSoC5/Pulse_Count_PM.c **** *
   8:Generated_Source\PSoC5/Pulse_Count_PM.c **** * Note:
   9:Generated_Source\PSoC5/Pulse_Count_PM.c **** *  None
  10:Generated_Source\PSoC5/Pulse_Count_PM.c **** *
  11:Generated_Source\PSoC5/Pulse_Count_PM.c **** ********************************************************************************
  12:Generated_Source\PSoC5/Pulse_Count_PM.c **** * Copyright 2013, Cypress Semiconductor Corporation.  All rights reserved.
  13:Generated_Source\PSoC5/Pulse_Count_PM.c **** * You may use this file only in accordance with the license, terms, conditions,
  14:Generated_Source\PSoC5/Pulse_Count_PM.c **** * disclaimers, and limitations in the end user license agreement accompanying
  15:Generated_Source\PSoC5/Pulse_Count_PM.c **** * the software package with which this file was provided.
  16:Generated_Source\PSoC5/Pulse_Count_PM.c **** *******************************************************************************/
  17:Generated_Source\PSoC5/Pulse_Count_PM.c **** 
  18:Generated_Source\PSoC5/Pulse_Count_PM.c **** #include "Pulse_Count.h"
  19:Generated_Source\PSoC5/Pulse_Count_PM.c **** 
  20:Generated_Source\PSoC5/Pulse_Count_PM.c **** 
  21:Generated_Source\PSoC5/Pulse_Count_PM.c **** Pulse_Count_BACKUP_STRUCT Pulse_Count_backup;
  22:Generated_Source\PSoC5/Pulse_Count_PM.c **** 
  23:Generated_Source\PSoC5/Pulse_Count_PM.c **** 
  24:Generated_Source\PSoC5/Pulse_Count_PM.c **** /*******************************************************************************
  25:Generated_Source\PSoC5/Pulse_Count_PM.c **** * Function Name: Pulse_Count_SaveConfig
  26:Generated_Source\PSoC5/Pulse_Count_PM.c **** ********************************************************************************
  27:Generated_Source\PSoC5/Pulse_Count_PM.c **** *
  28:Generated_Source\PSoC5/Pulse_Count_PM.c **** * Summary:
  29:Generated_Source\PSoC5/Pulse_Count_PM.c **** *  This function saves the component configuration and non-retention registers.
  30:Generated_Source\PSoC5/Pulse_Count_PM.c **** *  This function is called by the Count7_Sleep() function.
ARM GAS  C:\Users\mmoh0006\AppData\Local\Temp\ccb4Zwvq.s 			page 2


  31:Generated_Source\PSoC5/Pulse_Count_PM.c **** *
  32:Generated_Source\PSoC5/Pulse_Count_PM.c **** * Parameters:
  33:Generated_Source\PSoC5/Pulse_Count_PM.c **** *  None
  34:Generated_Source\PSoC5/Pulse_Count_PM.c **** *
  35:Generated_Source\PSoC5/Pulse_Count_PM.c **** * Return:
  36:Generated_Source\PSoC5/Pulse_Count_PM.c **** *  None
  37:Generated_Source\PSoC5/Pulse_Count_PM.c **** *
  38:Generated_Source\PSoC5/Pulse_Count_PM.c **** * Global Variables:
  39:Generated_Source\PSoC5/Pulse_Count_PM.c **** *  Pulse_Count_backup - used to save component configuration and non-
  40:Generated_Source\PSoC5/Pulse_Count_PM.c **** *  retention registers before enter sleep mode.
  41:Generated_Source\PSoC5/Pulse_Count_PM.c **** *
  42:Generated_Source\PSoC5/Pulse_Count_PM.c **** *******************************************************************************/
  43:Generated_Source\PSoC5/Pulse_Count_PM.c **** void Pulse_Count_SaveConfig(void) 
  44:Generated_Source\PSoC5/Pulse_Count_PM.c **** {
  28              		.loc 1 44 0
  29              		.cfi_startproc
  30              		@ args = 0, pretend = 0, frame = 0
  31              		@ frame_needed = 0, uses_anonymous_args = 0
  32              		@ link register save eliminated.
  45:Generated_Source\PSoC5/Pulse_Count_PM.c ****     Pulse_Count_backup.count = Pulse_Count_COUNT_REG;
  33              		.loc 1 45 0
  34 0000 024B     		ldr	r3, .L2
  35 0002 1A78     		ldrb	r2, [r3]	@ zero_extendqisi2
  36 0004 024B     		ldr	r3, .L2+4
  37 0006 5A70     		strb	r2, [r3, #1]
  38 0008 7047     		bx	lr
  39              	.L3:
  40 000a 00BF     		.align	2
  41              	.L2:
  42 000c 77650040 		.word	1073767799
  43 0010 00000000 		.word	Pulse_Count_backup
  44              		.cfi_endproc
  45              	.LFE0:
  46              		.size	Pulse_Count_SaveConfig, .-Pulse_Count_SaveConfig
  47              		.section	.text.Pulse_Count_Sleep,"ax",%progbits
  48              		.align	1
  49              		.global	Pulse_Count_Sleep
  50              		.thumb
  51              		.thumb_func
  52              		.type	Pulse_Count_Sleep, %function
  53              	Pulse_Count_Sleep:
  54              	.LFB1:
  46:Generated_Source\PSoC5/Pulse_Count_PM.c **** }
  47:Generated_Source\PSoC5/Pulse_Count_PM.c **** 
  48:Generated_Source\PSoC5/Pulse_Count_PM.c **** 
  49:Generated_Source\PSoC5/Pulse_Count_PM.c **** /*******************************************************************************
  50:Generated_Source\PSoC5/Pulse_Count_PM.c **** * Function Name: Pulse_Count_Sleep
  51:Generated_Source\PSoC5/Pulse_Count_PM.c **** ********************************************************************************
  52:Generated_Source\PSoC5/Pulse_Count_PM.c **** *
  53:Generated_Source\PSoC5/Pulse_Count_PM.c **** * Summary:
  54:Generated_Source\PSoC5/Pulse_Count_PM.c **** *  This is the preferred API to prepare the component for low power mode
  55:Generated_Source\PSoC5/Pulse_Count_PM.c **** *  operation. The Count7_Sleep() API saves the current component state using
  56:Generated_Source\PSoC5/Pulse_Count_PM.c **** *  Count7_SaveConfig() and disables the counter.
  57:Generated_Source\PSoC5/Pulse_Count_PM.c **** *
  58:Generated_Source\PSoC5/Pulse_Count_PM.c **** * Parameters:
  59:Generated_Source\PSoC5/Pulse_Count_PM.c **** *  None
  60:Generated_Source\PSoC5/Pulse_Count_PM.c **** *
ARM GAS  C:\Users\mmoh0006\AppData\Local\Temp\ccb4Zwvq.s 			page 3


  61:Generated_Source\PSoC5/Pulse_Count_PM.c **** * Return:
  62:Generated_Source\PSoC5/Pulse_Count_PM.c **** *  None
  63:Generated_Source\PSoC5/Pulse_Count_PM.c **** *
  64:Generated_Source\PSoC5/Pulse_Count_PM.c **** *******************************************************************************/
  65:Generated_Source\PSoC5/Pulse_Count_PM.c **** void Pulse_Count_Sleep(void) 
  66:Generated_Source\PSoC5/Pulse_Count_PM.c **** {
  55              		.loc 1 66 0
  56              		.cfi_startproc
  57              		@ args = 0, pretend = 0, frame = 0
  58              		@ frame_needed = 0, uses_anonymous_args = 0
  59 0000 08B5     		push	{r3, lr}
  60              		.cfi_def_cfa_offset 8
  61              		.cfi_offset 3, -8
  62              		.cfi_offset 14, -4
  67:Generated_Source\PSoC5/Pulse_Count_PM.c ****     if(0u != (Pulse_Count_AUX_CONTROL_REG & Pulse_Count_COUNTER_START))
  63              		.loc 1 67 0
  64 0002 094B     		ldr	r3, .L8
  65 0004 094A     		ldr	r2, .L8+4
  66 0006 1B78     		ldrb	r3, [r3]	@ zero_extendqisi2
  67 0008 03F02003 		and	r3, r3, #32
  68 000c 03F0FF01 		and	r1, r3, #255
  69 0010 23B1     		cbz	r3, .L5
  68:Generated_Source\PSoC5/Pulse_Count_PM.c ****     {
  69:Generated_Source\PSoC5/Pulse_Count_PM.c ****         Pulse_Count_backup.enableState = 1u;
  70              		.loc 1 69 0
  71 0012 0123     		movs	r3, #1
  72 0014 1370     		strb	r3, [r2]
  70:Generated_Source\PSoC5/Pulse_Count_PM.c ****         Pulse_Count_Stop();
  73              		.loc 1 70 0
  74 0016 FFF7FEFF 		bl	Pulse_Count_Stop
  75              	.LVL0:
  76 001a 00E0     		b	.L6
  77              	.L5:
  71:Generated_Source\PSoC5/Pulse_Count_PM.c ****     }
  72:Generated_Source\PSoC5/Pulse_Count_PM.c ****     else
  73:Generated_Source\PSoC5/Pulse_Count_PM.c ****     {
  74:Generated_Source\PSoC5/Pulse_Count_PM.c ****         Pulse_Count_backup.enableState = 0u;
  78              		.loc 1 74 0
  79 001c 1170     		strb	r1, [r2]
  80              	.L6:
  75:Generated_Source\PSoC5/Pulse_Count_PM.c ****     }
  76:Generated_Source\PSoC5/Pulse_Count_PM.c **** 
  77:Generated_Source\PSoC5/Pulse_Count_PM.c ****     Pulse_Count_SaveConfig();
  78:Generated_Source\PSoC5/Pulse_Count_PM.c **** }
  81              		.loc 1 78 0
  82 001e BDE80840 		pop	{r3, lr}
  83              		.cfi_restore 14
  84              		.cfi_restore 3
  85              		.cfi_def_cfa_offset 0
  77:Generated_Source\PSoC5/Pulse_Count_PM.c **** }
  86              		.loc 1 77 0
  87 0022 FFF7FEBF 		b	Pulse_Count_SaveConfig
  88              	.LVL1:
  89              	.L9:
  90 0026 00BF     		.align	2
  91              	.L8:
  92 0028 97650040 		.word	1073767831
ARM GAS  C:\Users\mmoh0006\AppData\Local\Temp\ccb4Zwvq.s 			page 4


  93 002c 00000000 		.word	Pulse_Count_backup
  94              		.cfi_endproc
  95              	.LFE1:
  96              		.size	Pulse_Count_Sleep, .-Pulse_Count_Sleep
  97              		.section	.text.Pulse_Count_RestoreConfig,"ax",%progbits
  98              		.align	1
  99              		.global	Pulse_Count_RestoreConfig
 100              		.thumb
 101              		.thumb_func
 102              		.type	Pulse_Count_RestoreConfig, %function
 103              	Pulse_Count_RestoreConfig:
 104              	.LFB2:
  79:Generated_Source\PSoC5/Pulse_Count_PM.c **** 
  80:Generated_Source\PSoC5/Pulse_Count_PM.c **** 
  81:Generated_Source\PSoC5/Pulse_Count_PM.c **** /*******************************************************************************
  82:Generated_Source\PSoC5/Pulse_Count_PM.c **** * Function Name: Pulse_Count_RestoreConfig
  83:Generated_Source\PSoC5/Pulse_Count_PM.c **** ********************************************************************************
  84:Generated_Source\PSoC5/Pulse_Count_PM.c **** *
  85:Generated_Source\PSoC5/Pulse_Count_PM.c **** * Summary:
  86:Generated_Source\PSoC5/Pulse_Count_PM.c **** *  This function restores the component configuration and non-retention
  87:Generated_Source\PSoC5/Pulse_Count_PM.c **** *  registers. This function is called by the Count7_Wakeup() function.
  88:Generated_Source\PSoC5/Pulse_Count_PM.c **** *
  89:Generated_Source\PSoC5/Pulse_Count_PM.c **** * Parameters:
  90:Generated_Source\PSoC5/Pulse_Count_PM.c **** *  None
  91:Generated_Source\PSoC5/Pulse_Count_PM.c **** *
  92:Generated_Source\PSoC5/Pulse_Count_PM.c **** * Return:
  93:Generated_Source\PSoC5/Pulse_Count_PM.c **** *  None
  94:Generated_Source\PSoC5/Pulse_Count_PM.c **** *
  95:Generated_Source\PSoC5/Pulse_Count_PM.c **** * Global Variables:
  96:Generated_Source\PSoC5/Pulse_Count_PM.c **** *  Pulse_Count_backup - used to save component configuration and
  97:Generated_Source\PSoC5/Pulse_Count_PM.c **** *  non-retention registers before exit sleep mode.
  98:Generated_Source\PSoC5/Pulse_Count_PM.c **** *
  99:Generated_Source\PSoC5/Pulse_Count_PM.c **** *******************************************************************************/
 100:Generated_Source\PSoC5/Pulse_Count_PM.c **** void Pulse_Count_RestoreConfig(void) 
 101:Generated_Source\PSoC5/Pulse_Count_PM.c **** {
 105              		.loc 1 101 0
 106              		.cfi_startproc
 107              		@ args = 0, pretend = 0, frame = 0
 108              		@ frame_needed = 0, uses_anonymous_args = 0
 109              		@ link register save eliminated.
 102:Generated_Source\PSoC5/Pulse_Count_PM.c ****     Pulse_Count_COUNT_REG = Pulse_Count_backup.count;
 110              		.loc 1 102 0
 111 0000 024B     		ldr	r3, .L11
 112 0002 5A78     		ldrb	r2, [r3, #1]	@ zero_extendqisi2
 113 0004 024B     		ldr	r3, .L11+4
 114 0006 1A70     		strb	r2, [r3]
 115 0008 7047     		bx	lr
 116              	.L12:
 117 000a 00BF     		.align	2
 118              	.L11:
 119 000c 00000000 		.word	Pulse_Count_backup
 120 0010 77650040 		.word	1073767799
 121              		.cfi_endproc
 122              	.LFE2:
 123              		.size	Pulse_Count_RestoreConfig, .-Pulse_Count_RestoreConfig
 124              		.section	.text.Pulse_Count_Wakeup,"ax",%progbits
 125              		.align	1
ARM GAS  C:\Users\mmoh0006\AppData\Local\Temp\ccb4Zwvq.s 			page 5


 126              		.global	Pulse_Count_Wakeup
 127              		.thumb
 128              		.thumb_func
 129              		.type	Pulse_Count_Wakeup, %function
 130              	Pulse_Count_Wakeup:
 131              	.LFB3:
 103:Generated_Source\PSoC5/Pulse_Count_PM.c **** }
 104:Generated_Source\PSoC5/Pulse_Count_PM.c **** 
 105:Generated_Source\PSoC5/Pulse_Count_PM.c **** 
 106:Generated_Source\PSoC5/Pulse_Count_PM.c **** /*******************************************************************************
 107:Generated_Source\PSoC5/Pulse_Count_PM.c **** * Function Name: Pulse_Count_Wakeup
 108:Generated_Source\PSoC5/Pulse_Count_PM.c **** ********************************************************************************
 109:Generated_Source\PSoC5/Pulse_Count_PM.c **** *
 110:Generated_Source\PSoC5/Pulse_Count_PM.c **** * Summary:
 111:Generated_Source\PSoC5/Pulse_Count_PM.c **** *  This is the preferred API to restore the component to the state when
 112:Generated_Source\PSoC5/Pulse_Count_PM.c **** *  Count7_Sleep() was called. The Count7_Wakeup() function calls the
 113:Generated_Source\PSoC5/Pulse_Count_PM.c **** *  Count7_RestoreConfig() function to restore the configuration.
 114:Generated_Source\PSoC5/Pulse_Count_PM.c **** *
 115:Generated_Source\PSoC5/Pulse_Count_PM.c **** * Parameters:
 116:Generated_Source\PSoC5/Pulse_Count_PM.c **** *  None
 117:Generated_Source\PSoC5/Pulse_Count_PM.c **** *
 118:Generated_Source\PSoC5/Pulse_Count_PM.c **** * Return:
 119:Generated_Source\PSoC5/Pulse_Count_PM.c **** *  None
 120:Generated_Source\PSoC5/Pulse_Count_PM.c **** *
 121:Generated_Source\PSoC5/Pulse_Count_PM.c **** *******************************************************************************/
 122:Generated_Source\PSoC5/Pulse_Count_PM.c **** void Pulse_Count_Wakeup(void) 
 123:Generated_Source\PSoC5/Pulse_Count_PM.c **** {
 132              		.loc 1 123 0
 133              		.cfi_startproc
 134              		@ args = 0, pretend = 0, frame = 0
 135              		@ frame_needed = 0, uses_anonymous_args = 0
 136 0000 08B5     		push	{r3, lr}
 137              		.cfi_def_cfa_offset 8
 138              		.cfi_offset 3, -8
 139              		.cfi_offset 14, -4
 124:Generated_Source\PSoC5/Pulse_Count_PM.c ****     Pulse_Count_RestoreConfig();
 140              		.loc 1 124 0
 141 0002 FFF7FEFF 		bl	Pulse_Count_RestoreConfig
 142              	.LVL2:
 125:Generated_Source\PSoC5/Pulse_Count_PM.c **** 
 126:Generated_Source\PSoC5/Pulse_Count_PM.c ****     /* Restore enable state */
 127:Generated_Source\PSoC5/Pulse_Count_PM.c ****     if (Pulse_Count_backup.enableState != 0u)
 143              		.loc 1 127 0
 144 0006 044B     		ldr	r3, .L15
 145 0008 1B78     		ldrb	r3, [r3]	@ zero_extendqisi2
 146 000a 1BB1     		cbz	r3, .L13
 128:Generated_Source\PSoC5/Pulse_Count_PM.c ****     {
 129:Generated_Source\PSoC5/Pulse_Count_PM.c ****         Pulse_Count_Enable();
 130:Generated_Source\PSoC5/Pulse_Count_PM.c ****     }
 131:Generated_Source\PSoC5/Pulse_Count_PM.c **** }
 147              		.loc 1 131 0
 148 000c BDE80840 		pop	{r3, lr}
 149              		.cfi_remember_state
 150              		.cfi_restore 14
 151              		.cfi_restore 3
 152              		.cfi_def_cfa_offset 0
 129:Generated_Source\PSoC5/Pulse_Count_PM.c ****     }
ARM GAS  C:\Users\mmoh0006\AppData\Local\Temp\ccb4Zwvq.s 			page 6


 153              		.loc 1 129 0
 154 0010 FFF7FEBF 		b	Pulse_Count_Enable
 155              	.LVL3:
 156              	.L13:
 157              		.cfi_restore_state
 158 0014 08BD     		pop	{r3, pc}
 159              	.L16:
 160 0016 00BF     		.align	2
 161              	.L15:
 162 0018 00000000 		.word	Pulse_Count_backup
 163              		.cfi_endproc
 164              	.LFE3:
 165              		.size	Pulse_Count_Wakeup, .-Pulse_Count_Wakeup
 166              		.comm	Pulse_Count_backup,2,1
 167              		.text
 168              	.Letext0:
 169              		.file 2 "Generated_Source\\PSoC5\\cytypes.h"
 170              		.file 3 "Generated_Source\\PSoC5\\Pulse_Count.h"