ARM GAS  C:\Users\Zwe\AppData\Local\Temp\ccVTyOTd.s 			page 1


   1              		.syntax unified
   2              		.cpu cortex-m3
   3              		.fpu softvfp
   4              		.eabi_attribute 20, 1
   5              		.eabi_attribute 21, 1
   6              		.eabi_attribute 23, 3
   7              		.eabi_attribute 24, 1
   8              		.eabi_attribute 25, 1
   9              		.eabi_attribute 26, 1
  10              		.eabi_attribute 30, 4
  11              		.eabi_attribute 34, 1
  12              		.eabi_attribute 18, 4
  13              		.thumb
  14              		.syntax unified
  15              		.file	"PWM_lw.c"
  16              		.text
  17              	.Ltext0:
  18              		.cfi_sections	.debug_frame
  19              		.section	.text.PWM_lw_Enable,"ax",%progbits
  20              		.align	1
  21              		.global	PWM_lw_Enable
  22              		.thumb
  23              		.thumb_func
  24              		.type	PWM_lw_Enable, %function
  25              	PWM_lw_Enable:
  26              	.LFB2:
  27              		.file 1 "Generated_Source\\PSoC5\\PWM_lw.c"
   1:Generated_Source\PSoC5/PWM_lw.c **** /*******************************************************************************
   2:Generated_Source\PSoC5/PWM_lw.c **** * File Name: PWM_lw.c
   3:Generated_Source\PSoC5/PWM_lw.c **** * Version 3.30
   4:Generated_Source\PSoC5/PWM_lw.c **** *
   5:Generated_Source\PSoC5/PWM_lw.c **** * Description:
   6:Generated_Source\PSoC5/PWM_lw.c **** *  The PWM User Module consist of an 8 or 16-bit counter with two 8 or 16-bit
   7:Generated_Source\PSoC5/PWM_lw.c **** *  comparitors. Each instance of this user module is capable of generating
   8:Generated_Source\PSoC5/PWM_lw.c **** *  two PWM outputs with the same period. The pulse width is selectable between
   9:Generated_Source\PSoC5/PWM_lw.c **** *  1 and 255/65535. The period is selectable between 2 and 255/65536 clocks.
  10:Generated_Source\PSoC5/PWM_lw.c **** *  The compare value output may be configured to be active when the present
  11:Generated_Source\PSoC5/PWM_lw.c **** *  counter is less than or less than/equal to the compare value.
  12:Generated_Source\PSoC5/PWM_lw.c **** *  A terminal count output is also provided. It generates a pulse one clock
  13:Generated_Source\PSoC5/PWM_lw.c **** *  width wide when the counter is equal to zero.
  14:Generated_Source\PSoC5/PWM_lw.c **** *
  15:Generated_Source\PSoC5/PWM_lw.c **** * Note:
  16:Generated_Source\PSoC5/PWM_lw.c **** *
  17:Generated_Source\PSoC5/PWM_lw.c **** *******************************************************************************
  18:Generated_Source\PSoC5/PWM_lw.c **** * Copyright 2008-2014, Cypress Semiconductor Corporation.  All rights reserved.
  19:Generated_Source\PSoC5/PWM_lw.c **** * You may use this file only in accordance with the license, terms, conditions,
  20:Generated_Source\PSoC5/PWM_lw.c **** * disclaimers, and limitations in the end user license agreement accompanying
  21:Generated_Source\PSoC5/PWM_lw.c **** * the software package with which this file was provided.
  22:Generated_Source\PSoC5/PWM_lw.c **** ********************************************************************************/
  23:Generated_Source\PSoC5/PWM_lw.c **** 
  24:Generated_Source\PSoC5/PWM_lw.c **** #include "PWM_lw.h"
  25:Generated_Source\PSoC5/PWM_lw.c **** 
  26:Generated_Source\PSoC5/PWM_lw.c **** /* Error message for removed <resource> through optimization */
  27:Generated_Source\PSoC5/PWM_lw.c **** #ifdef PWM_lw_PWMUDB_genblk1_ctrlreg__REMOVED
  28:Generated_Source\PSoC5/PWM_lw.c ****     #error PWM_v3_30 detected with a constant 0 for the enable or \
  29:Generated_Source\PSoC5/PWM_lw.c ****          constant 1 for reset. This will prevent the component from operating.
  30:Generated_Source\PSoC5/PWM_lw.c **** #endif /* PWM_lw_PWMUDB_genblk1_ctrlreg__REMOVED */
ARM GAS  C:\Users\Zwe\AppData\Local\Temp\ccVTyOTd.s 			page 2


  31:Generated_Source\PSoC5/PWM_lw.c **** 
  32:Generated_Source\PSoC5/PWM_lw.c **** uint8 PWM_lw_initVar = 0u;
  33:Generated_Source\PSoC5/PWM_lw.c **** 
  34:Generated_Source\PSoC5/PWM_lw.c **** 
  35:Generated_Source\PSoC5/PWM_lw.c **** /*******************************************************************************
  36:Generated_Source\PSoC5/PWM_lw.c **** * Function Name: PWM_lw_Start
  37:Generated_Source\PSoC5/PWM_lw.c **** ********************************************************************************
  38:Generated_Source\PSoC5/PWM_lw.c **** *
  39:Generated_Source\PSoC5/PWM_lw.c **** * Summary:
  40:Generated_Source\PSoC5/PWM_lw.c **** *  The start function initializes the pwm with the default values, the
  41:Generated_Source\PSoC5/PWM_lw.c **** *  enables the counter to begin counting.  It does not enable interrupts,
  42:Generated_Source\PSoC5/PWM_lw.c **** *  the EnableInt command should be called if interrupt generation is required.
  43:Generated_Source\PSoC5/PWM_lw.c **** *
  44:Generated_Source\PSoC5/PWM_lw.c **** * Parameters:
  45:Generated_Source\PSoC5/PWM_lw.c **** *  None
  46:Generated_Source\PSoC5/PWM_lw.c **** *
  47:Generated_Source\PSoC5/PWM_lw.c **** * Return:
  48:Generated_Source\PSoC5/PWM_lw.c **** *  None
  49:Generated_Source\PSoC5/PWM_lw.c **** *
  50:Generated_Source\PSoC5/PWM_lw.c **** * Global variables:
  51:Generated_Source\PSoC5/PWM_lw.c **** *  PWM_lw_initVar: Is modified when this function is called for the
  52:Generated_Source\PSoC5/PWM_lw.c **** *   first time. Is used to ensure that initialization happens only once.
  53:Generated_Source\PSoC5/PWM_lw.c **** *
  54:Generated_Source\PSoC5/PWM_lw.c **** *******************************************************************************/
  55:Generated_Source\PSoC5/PWM_lw.c **** void PWM_lw_Start(void) 
  56:Generated_Source\PSoC5/PWM_lw.c **** {
  57:Generated_Source\PSoC5/PWM_lw.c ****     /* If not Initialized then initialize all required hardware and software */
  58:Generated_Source\PSoC5/PWM_lw.c ****     if(PWM_lw_initVar == 0u)
  59:Generated_Source\PSoC5/PWM_lw.c ****     {
  60:Generated_Source\PSoC5/PWM_lw.c ****         PWM_lw_Init();
  61:Generated_Source\PSoC5/PWM_lw.c ****         PWM_lw_initVar = 1u;
  62:Generated_Source\PSoC5/PWM_lw.c ****     }
  63:Generated_Source\PSoC5/PWM_lw.c ****     PWM_lw_Enable();
  64:Generated_Source\PSoC5/PWM_lw.c **** 
  65:Generated_Source\PSoC5/PWM_lw.c **** }
  66:Generated_Source\PSoC5/PWM_lw.c **** 
  67:Generated_Source\PSoC5/PWM_lw.c **** 
  68:Generated_Source\PSoC5/PWM_lw.c **** /*******************************************************************************
  69:Generated_Source\PSoC5/PWM_lw.c **** * Function Name: PWM_lw_Init
  70:Generated_Source\PSoC5/PWM_lw.c **** ********************************************************************************
  71:Generated_Source\PSoC5/PWM_lw.c **** *
  72:Generated_Source\PSoC5/PWM_lw.c **** * Summary:
  73:Generated_Source\PSoC5/PWM_lw.c **** *  Initialize component's parameters to the parameters set by user in the
  74:Generated_Source\PSoC5/PWM_lw.c **** *  customizer of the component placed onto schematic. Usually called in
  75:Generated_Source\PSoC5/PWM_lw.c **** *  PWM_lw_Start().
  76:Generated_Source\PSoC5/PWM_lw.c **** *
  77:Generated_Source\PSoC5/PWM_lw.c **** * Parameters:
  78:Generated_Source\PSoC5/PWM_lw.c **** *  None
  79:Generated_Source\PSoC5/PWM_lw.c **** *
  80:Generated_Source\PSoC5/PWM_lw.c **** * Return:
  81:Generated_Source\PSoC5/PWM_lw.c **** *  None
  82:Generated_Source\PSoC5/PWM_lw.c **** *
  83:Generated_Source\PSoC5/PWM_lw.c **** *******************************************************************************/
  84:Generated_Source\PSoC5/PWM_lw.c **** void PWM_lw_Init(void) 
  85:Generated_Source\PSoC5/PWM_lw.c **** {
  86:Generated_Source\PSoC5/PWM_lw.c ****     #if (PWM_lw_UsingFixedFunction || PWM_lw_UseControl)
  87:Generated_Source\PSoC5/PWM_lw.c ****         uint8 ctrl;
ARM GAS  C:\Users\Zwe\AppData\Local\Temp\ccVTyOTd.s 			page 3


  88:Generated_Source\PSoC5/PWM_lw.c ****     #endif /* (PWM_lw_UsingFixedFunction || PWM_lw_UseControl) */
  89:Generated_Source\PSoC5/PWM_lw.c **** 
  90:Generated_Source\PSoC5/PWM_lw.c ****     #if(!PWM_lw_UsingFixedFunction)
  91:Generated_Source\PSoC5/PWM_lw.c ****         #if(PWM_lw_UseStatus)
  92:Generated_Source\PSoC5/PWM_lw.c ****             /* Interrupt State Backup for Critical Region*/
  93:Generated_Source\PSoC5/PWM_lw.c ****             uint8 PWM_lw_interruptState;
  94:Generated_Source\PSoC5/PWM_lw.c ****         #endif /* (PWM_lw_UseStatus) */
  95:Generated_Source\PSoC5/PWM_lw.c ****     #endif /* (!PWM_lw_UsingFixedFunction) */
  96:Generated_Source\PSoC5/PWM_lw.c **** 
  97:Generated_Source\PSoC5/PWM_lw.c ****     #if (PWM_lw_UsingFixedFunction)
  98:Generated_Source\PSoC5/PWM_lw.c ****         /* You are allowed to write the compare value (FF only) */
  99:Generated_Source\PSoC5/PWM_lw.c ****         PWM_lw_CONTROL |= PWM_lw_CFG0_MODE;
 100:Generated_Source\PSoC5/PWM_lw.c ****         #if (PWM_lw_DeadBand2_4)
 101:Generated_Source\PSoC5/PWM_lw.c ****             PWM_lw_CONTROL |= PWM_lw_CFG0_DB;
 102:Generated_Source\PSoC5/PWM_lw.c ****         #endif /* (PWM_lw_DeadBand2_4) */
 103:Generated_Source\PSoC5/PWM_lw.c **** 
 104:Generated_Source\PSoC5/PWM_lw.c ****         ctrl = PWM_lw_CONTROL3 & ((uint8 )(~PWM_lw_CTRL_CMPMODE1_MASK));
 105:Generated_Source\PSoC5/PWM_lw.c ****         PWM_lw_CONTROL3 = ctrl | PWM_lw_DEFAULT_COMPARE1_MODE;
 106:Generated_Source\PSoC5/PWM_lw.c **** 
 107:Generated_Source\PSoC5/PWM_lw.c ****          /* Clear and Set SYNCTC and SYNCCMP bits of RT1 register */
 108:Generated_Source\PSoC5/PWM_lw.c ****         PWM_lw_RT1 &= ((uint8)(~PWM_lw_RT1_MASK));
 109:Generated_Source\PSoC5/PWM_lw.c ****         PWM_lw_RT1 |= PWM_lw_SYNC;
 110:Generated_Source\PSoC5/PWM_lw.c **** 
 111:Generated_Source\PSoC5/PWM_lw.c ****         /*Enable DSI Sync all all inputs of the PWM*/
 112:Generated_Source\PSoC5/PWM_lw.c ****         PWM_lw_RT1 &= ((uint8)(~PWM_lw_SYNCDSI_MASK));
 113:Generated_Source\PSoC5/PWM_lw.c ****         PWM_lw_RT1 |= PWM_lw_SYNCDSI_EN;
 114:Generated_Source\PSoC5/PWM_lw.c **** 
 115:Generated_Source\PSoC5/PWM_lw.c ****     #elif (PWM_lw_UseControl)
 116:Generated_Source\PSoC5/PWM_lw.c ****         /* Set the default compare mode defined in the parameter */
 117:Generated_Source\PSoC5/PWM_lw.c ****         ctrl = PWM_lw_CONTROL & ((uint8)(~PWM_lw_CTRL_CMPMODE2_MASK)) &
 118:Generated_Source\PSoC5/PWM_lw.c ****                 ((uint8)(~PWM_lw_CTRL_CMPMODE1_MASK));
 119:Generated_Source\PSoC5/PWM_lw.c ****         PWM_lw_CONTROL = ctrl | PWM_lw_DEFAULT_COMPARE2_MODE |
 120:Generated_Source\PSoC5/PWM_lw.c ****                                    PWM_lw_DEFAULT_COMPARE1_MODE;
 121:Generated_Source\PSoC5/PWM_lw.c ****     #endif /* (PWM_lw_UsingFixedFunction) */
 122:Generated_Source\PSoC5/PWM_lw.c **** 
 123:Generated_Source\PSoC5/PWM_lw.c ****     #if (!PWM_lw_UsingFixedFunction)
 124:Generated_Source\PSoC5/PWM_lw.c ****         #if (PWM_lw_Resolution == 8)
 125:Generated_Source\PSoC5/PWM_lw.c ****             /* Set FIFO 0 to 1 byte register for period*/
 126:Generated_Source\PSoC5/PWM_lw.c ****             PWM_lw_AUX_CONTROLDP0 |= (PWM_lw_AUX_CTRL_FIFO0_CLR);
 127:Generated_Source\PSoC5/PWM_lw.c ****         #else /* (PWM_lw_Resolution == 16)*/
 128:Generated_Source\PSoC5/PWM_lw.c ****             /* Set FIFO 0 to 1 byte register for period */
 129:Generated_Source\PSoC5/PWM_lw.c ****             PWM_lw_AUX_CONTROLDP0 |= (PWM_lw_AUX_CTRL_FIFO0_CLR);
 130:Generated_Source\PSoC5/PWM_lw.c ****             PWM_lw_AUX_CONTROLDP1 |= (PWM_lw_AUX_CTRL_FIFO0_CLR);
 131:Generated_Source\PSoC5/PWM_lw.c ****         #endif /* (PWM_lw_Resolution == 8) */
 132:Generated_Source\PSoC5/PWM_lw.c **** 
 133:Generated_Source\PSoC5/PWM_lw.c ****         PWM_lw_WriteCounter(PWM_lw_INIT_PERIOD_VALUE);
 134:Generated_Source\PSoC5/PWM_lw.c ****     #endif /* (!PWM_lw_UsingFixedFunction) */
 135:Generated_Source\PSoC5/PWM_lw.c **** 
 136:Generated_Source\PSoC5/PWM_lw.c ****     PWM_lw_WritePeriod(PWM_lw_INIT_PERIOD_VALUE);
 137:Generated_Source\PSoC5/PWM_lw.c **** 
 138:Generated_Source\PSoC5/PWM_lw.c ****         #if (PWM_lw_UseOneCompareMode)
 139:Generated_Source\PSoC5/PWM_lw.c ****             PWM_lw_WriteCompare(PWM_lw_INIT_COMPARE_VALUE1);
 140:Generated_Source\PSoC5/PWM_lw.c ****         #else
 141:Generated_Source\PSoC5/PWM_lw.c ****             PWM_lw_WriteCompare1(PWM_lw_INIT_COMPARE_VALUE1);
 142:Generated_Source\PSoC5/PWM_lw.c ****             PWM_lw_WriteCompare2(PWM_lw_INIT_COMPARE_VALUE2);
 143:Generated_Source\PSoC5/PWM_lw.c ****         #endif /* (PWM_lw_UseOneCompareMode) */
 144:Generated_Source\PSoC5/PWM_lw.c **** 
ARM GAS  C:\Users\Zwe\AppData\Local\Temp\ccVTyOTd.s 			page 4


 145:Generated_Source\PSoC5/PWM_lw.c ****         #if (PWM_lw_KillModeMinTime)
 146:Generated_Source\PSoC5/PWM_lw.c ****             PWM_lw_WriteKillTime(PWM_lw_MinimumKillTime);
 147:Generated_Source\PSoC5/PWM_lw.c ****         #endif /* (PWM_lw_KillModeMinTime) */
 148:Generated_Source\PSoC5/PWM_lw.c **** 
 149:Generated_Source\PSoC5/PWM_lw.c ****         #if (PWM_lw_DeadBandUsed)
 150:Generated_Source\PSoC5/PWM_lw.c ****             PWM_lw_WriteDeadTime(PWM_lw_INIT_DEAD_TIME);
 151:Generated_Source\PSoC5/PWM_lw.c ****         #endif /* (PWM_lw_DeadBandUsed) */
 152:Generated_Source\PSoC5/PWM_lw.c **** 
 153:Generated_Source\PSoC5/PWM_lw.c ****     #if (PWM_lw_UseStatus || PWM_lw_UsingFixedFunction)
 154:Generated_Source\PSoC5/PWM_lw.c ****         PWM_lw_SetInterruptMode(PWM_lw_INIT_INTERRUPTS_MODE);
 155:Generated_Source\PSoC5/PWM_lw.c ****     #endif /* (PWM_lw_UseStatus || PWM_lw_UsingFixedFunction) */
 156:Generated_Source\PSoC5/PWM_lw.c **** 
 157:Generated_Source\PSoC5/PWM_lw.c ****     #if (PWM_lw_UsingFixedFunction)
 158:Generated_Source\PSoC5/PWM_lw.c ****         /* Globally Enable the Fixed Function Block chosen */
 159:Generated_Source\PSoC5/PWM_lw.c ****         PWM_lw_GLOBAL_ENABLE |= PWM_lw_BLOCK_EN_MASK;
 160:Generated_Source\PSoC5/PWM_lw.c ****         /* Set the Interrupt source to come from the status register */
 161:Generated_Source\PSoC5/PWM_lw.c ****         PWM_lw_CONTROL2 |= PWM_lw_CTRL2_IRQ_SEL;
 162:Generated_Source\PSoC5/PWM_lw.c ****     #else
 163:Generated_Source\PSoC5/PWM_lw.c ****         #if(PWM_lw_UseStatus)
 164:Generated_Source\PSoC5/PWM_lw.c **** 
 165:Generated_Source\PSoC5/PWM_lw.c ****             /* CyEnterCriticalRegion and CyExitCriticalRegion are used to mark following region cri
 166:Generated_Source\PSoC5/PWM_lw.c ****             /* Enter Critical Region*/
 167:Generated_Source\PSoC5/PWM_lw.c ****             PWM_lw_interruptState = CyEnterCriticalSection();
 168:Generated_Source\PSoC5/PWM_lw.c ****             /* Use the interrupt output of the status register for IRQ output */
 169:Generated_Source\PSoC5/PWM_lw.c ****             PWM_lw_STATUS_AUX_CTRL |= PWM_lw_STATUS_ACTL_INT_EN_MASK;
 170:Generated_Source\PSoC5/PWM_lw.c **** 
 171:Generated_Source\PSoC5/PWM_lw.c ****              /* Exit Critical Region*/
 172:Generated_Source\PSoC5/PWM_lw.c ****             CyExitCriticalSection(PWM_lw_interruptState);
 173:Generated_Source\PSoC5/PWM_lw.c **** 
 174:Generated_Source\PSoC5/PWM_lw.c ****             /* Clear the FIFO to enable the PWM_lw_STATUS_FIFOFULL
 175:Generated_Source\PSoC5/PWM_lw.c ****                    bit to be set on FIFO full. */
 176:Generated_Source\PSoC5/PWM_lw.c ****             PWM_lw_ClearFIFO();
 177:Generated_Source\PSoC5/PWM_lw.c ****         #endif /* (PWM_lw_UseStatus) */
 178:Generated_Source\PSoC5/PWM_lw.c ****     #endif /* (PWM_lw_UsingFixedFunction) */
 179:Generated_Source\PSoC5/PWM_lw.c **** }
 180:Generated_Source\PSoC5/PWM_lw.c **** 
 181:Generated_Source\PSoC5/PWM_lw.c **** 
 182:Generated_Source\PSoC5/PWM_lw.c **** /*******************************************************************************
 183:Generated_Source\PSoC5/PWM_lw.c **** * Function Name: PWM_lw_Enable
 184:Generated_Source\PSoC5/PWM_lw.c **** ********************************************************************************
 185:Generated_Source\PSoC5/PWM_lw.c **** *
 186:Generated_Source\PSoC5/PWM_lw.c **** * Summary:
 187:Generated_Source\PSoC5/PWM_lw.c **** *  Enables the PWM block operation
 188:Generated_Source\PSoC5/PWM_lw.c **** *
 189:Generated_Source\PSoC5/PWM_lw.c **** * Parameters:
 190:Generated_Source\PSoC5/PWM_lw.c **** *  None
 191:Generated_Source\PSoC5/PWM_lw.c **** *
 192:Generated_Source\PSoC5/PWM_lw.c **** * Return:
 193:Generated_Source\PSoC5/PWM_lw.c **** *  None
 194:Generated_Source\PSoC5/PWM_lw.c **** *
 195:Generated_Source\PSoC5/PWM_lw.c **** * Side Effects:
 196:Generated_Source\PSoC5/PWM_lw.c **** *  This works only if software enable mode is chosen
 197:Generated_Source\PSoC5/PWM_lw.c **** *
 198:Generated_Source\PSoC5/PWM_lw.c **** *******************************************************************************/
 199:Generated_Source\PSoC5/PWM_lw.c **** void PWM_lw_Enable(void) 
 200:Generated_Source\PSoC5/PWM_lw.c **** {
  28              		.loc 1 200 0
ARM GAS  C:\Users\Zwe\AppData\Local\Temp\ccVTyOTd.s 			page 5


  29              		.cfi_startproc
  30              		@ args = 0, pretend = 0, frame = 0
  31              		@ frame_needed = 0, uses_anonymous_args = 0
  32              		@ link register save eliminated.
 201:Generated_Source\PSoC5/PWM_lw.c ****     /* Globally Enable the Fixed Function Block chosen */
 202:Generated_Source\PSoC5/PWM_lw.c ****     #if (PWM_lw_UsingFixedFunction)
 203:Generated_Source\PSoC5/PWM_lw.c ****         PWM_lw_GLOBAL_ENABLE |= PWM_lw_BLOCK_EN_MASK;
 204:Generated_Source\PSoC5/PWM_lw.c ****         PWM_lw_GLOBAL_STBY_ENABLE |= PWM_lw_BLOCK_STBY_EN_MASK;
 205:Generated_Source\PSoC5/PWM_lw.c ****     #endif /* (PWM_lw_UsingFixedFunction) */
 206:Generated_Source\PSoC5/PWM_lw.c **** 
 207:Generated_Source\PSoC5/PWM_lw.c ****     /* Enable the PWM from the control register  */
 208:Generated_Source\PSoC5/PWM_lw.c ****     #if (PWM_lw_UseControl || PWM_lw_UsingFixedFunction)
 209:Generated_Source\PSoC5/PWM_lw.c ****         PWM_lw_CONTROL |= PWM_lw_CTRL_ENABLE;
  33              		.loc 1 209 0
  34 0000 024A     		ldr	r2, .L2
  35 0002 1378     		ldrb	r3, [r2]	@ zero_extendqisi2
  36 0004 43F08003 		orr	r3, r3, #128
  37 0008 1370     		strb	r3, [r2]
  38 000a 7047     		bx	lr
  39              	.L3:
  40              		.align	2
  41              	.L2:
  42 000c 76650040 		.word	1073767798
  43              		.cfi_endproc
  44              	.LFE2:
  45              		.size	PWM_lw_Enable, .-PWM_lw_Enable
  46              		.section	.text.PWM_lw_Stop,"ax",%progbits
  47              		.align	1
  48              		.global	PWM_lw_Stop
  49              		.thumb
  50              		.thumb_func
  51              		.type	PWM_lw_Stop, %function
  52              	PWM_lw_Stop:
  53              	.LFB3:
 210:Generated_Source\PSoC5/PWM_lw.c ****     #endif /* (PWM_lw_UseControl || PWM_lw_UsingFixedFunction) */
 211:Generated_Source\PSoC5/PWM_lw.c **** }
 212:Generated_Source\PSoC5/PWM_lw.c **** 
 213:Generated_Source\PSoC5/PWM_lw.c **** 
 214:Generated_Source\PSoC5/PWM_lw.c **** /*******************************************************************************
 215:Generated_Source\PSoC5/PWM_lw.c **** * Function Name: PWM_lw_Stop
 216:Generated_Source\PSoC5/PWM_lw.c **** ********************************************************************************
 217:Generated_Source\PSoC5/PWM_lw.c **** *
 218:Generated_Source\PSoC5/PWM_lw.c **** * Summary:
 219:Generated_Source\PSoC5/PWM_lw.c **** *  The stop function halts the PWM, but does not change any modes or disable
 220:Generated_Source\PSoC5/PWM_lw.c **** *  interrupts.
 221:Generated_Source\PSoC5/PWM_lw.c **** *
 222:Generated_Source\PSoC5/PWM_lw.c **** * Parameters:
 223:Generated_Source\PSoC5/PWM_lw.c **** *  None
 224:Generated_Source\PSoC5/PWM_lw.c **** *
 225:Generated_Source\PSoC5/PWM_lw.c **** * Return:
 226:Generated_Source\PSoC5/PWM_lw.c **** *  None
 227:Generated_Source\PSoC5/PWM_lw.c **** *
 228:Generated_Source\PSoC5/PWM_lw.c **** * Side Effects:
 229:Generated_Source\PSoC5/PWM_lw.c **** *  If the Enable mode is set to Hardware only then this function
 230:Generated_Source\PSoC5/PWM_lw.c **** *  has no effect on the operation of the PWM
 231:Generated_Source\PSoC5/PWM_lw.c **** *
 232:Generated_Source\PSoC5/PWM_lw.c **** *******************************************************************************/
ARM GAS  C:\Users\Zwe\AppData\Local\Temp\ccVTyOTd.s 			page 6


 233:Generated_Source\PSoC5/PWM_lw.c **** void PWM_lw_Stop(void) 
 234:Generated_Source\PSoC5/PWM_lw.c **** {
  54              		.loc 1 234 0
  55              		.cfi_startproc
  56              		@ args = 0, pretend = 0, frame = 0
  57              		@ frame_needed = 0, uses_anonymous_args = 0
  58              		@ link register save eliminated.
 235:Generated_Source\PSoC5/PWM_lw.c ****     #if (PWM_lw_UseControl || PWM_lw_UsingFixedFunction)
 236:Generated_Source\PSoC5/PWM_lw.c ****         PWM_lw_CONTROL &= ((uint8)(~PWM_lw_CTRL_ENABLE));
  59              		.loc 1 236 0
  60 0000 024A     		ldr	r2, .L5
  61 0002 1378     		ldrb	r3, [r2]	@ zero_extendqisi2
  62 0004 03F07F03 		and	r3, r3, #127
  63 0008 1370     		strb	r3, [r2]
  64 000a 7047     		bx	lr
  65              	.L6:
  66              		.align	2
  67              	.L5:
  68 000c 76650040 		.word	1073767798
  69              		.cfi_endproc
  70              	.LFE3:
  71              		.size	PWM_lw_Stop, .-PWM_lw_Stop
  72              		.section	.text.PWM_lw_WriteCounter,"ax",%progbits
  73              		.align	1
  74              		.global	PWM_lw_WriteCounter
  75              		.thumb
  76              		.thumb_func
  77              		.type	PWM_lw_WriteCounter, %function
  78              	PWM_lw_WriteCounter:
  79              	.LFB4:
 237:Generated_Source\PSoC5/PWM_lw.c ****     #endif /* (PWM_lw_UseControl || PWM_lw_UsingFixedFunction) */
 238:Generated_Source\PSoC5/PWM_lw.c **** 
 239:Generated_Source\PSoC5/PWM_lw.c ****     /* Globally disable the Fixed Function Block chosen */
 240:Generated_Source\PSoC5/PWM_lw.c ****     #if (PWM_lw_UsingFixedFunction)
 241:Generated_Source\PSoC5/PWM_lw.c ****         PWM_lw_GLOBAL_ENABLE &= ((uint8)(~PWM_lw_BLOCK_EN_MASK));
 242:Generated_Source\PSoC5/PWM_lw.c ****         PWM_lw_GLOBAL_STBY_ENABLE &= ((uint8)(~PWM_lw_BLOCK_STBY_EN_MASK));
 243:Generated_Source\PSoC5/PWM_lw.c ****     #endif /* (PWM_lw_UsingFixedFunction) */
 244:Generated_Source\PSoC5/PWM_lw.c **** }
 245:Generated_Source\PSoC5/PWM_lw.c **** 
 246:Generated_Source\PSoC5/PWM_lw.c **** #if (PWM_lw_UseOneCompareMode)
 247:Generated_Source\PSoC5/PWM_lw.c ****     #if (PWM_lw_CompareMode1SW)
 248:Generated_Source\PSoC5/PWM_lw.c **** 
 249:Generated_Source\PSoC5/PWM_lw.c **** 
 250:Generated_Source\PSoC5/PWM_lw.c ****         /*******************************************************************************
 251:Generated_Source\PSoC5/PWM_lw.c ****         * Function Name: PWM_lw_SetCompareMode
 252:Generated_Source\PSoC5/PWM_lw.c ****         ********************************************************************************
 253:Generated_Source\PSoC5/PWM_lw.c ****         *
 254:Generated_Source\PSoC5/PWM_lw.c ****         * Summary:
 255:Generated_Source\PSoC5/PWM_lw.c ****         *  This function writes the Compare Mode for the pwm output when in Dither mode,
 256:Generated_Source\PSoC5/PWM_lw.c ****         *  Center Align Mode or One Output Mode.
 257:Generated_Source\PSoC5/PWM_lw.c ****         *
 258:Generated_Source\PSoC5/PWM_lw.c ****         * Parameters:
 259:Generated_Source\PSoC5/PWM_lw.c ****         *  comparemode:  The new compare mode for the PWM output. Use the compare types
 260:Generated_Source\PSoC5/PWM_lw.c ****         *                defined in the H file as input arguments.
 261:Generated_Source\PSoC5/PWM_lw.c ****         *
 262:Generated_Source\PSoC5/PWM_lw.c ****         * Return:
 263:Generated_Source\PSoC5/PWM_lw.c ****         *  None
ARM GAS  C:\Users\Zwe\AppData\Local\Temp\ccVTyOTd.s 			page 7


 264:Generated_Source\PSoC5/PWM_lw.c ****         *
 265:Generated_Source\PSoC5/PWM_lw.c ****         *******************************************************************************/
 266:Generated_Source\PSoC5/PWM_lw.c ****         void PWM_lw_SetCompareMode(uint8 comparemode) 
 267:Generated_Source\PSoC5/PWM_lw.c ****         {
 268:Generated_Source\PSoC5/PWM_lw.c ****             #if(PWM_lw_UsingFixedFunction)
 269:Generated_Source\PSoC5/PWM_lw.c **** 
 270:Generated_Source\PSoC5/PWM_lw.c ****                 #if(0 != PWM_lw_CTRL_CMPMODE1_SHIFT)
 271:Generated_Source\PSoC5/PWM_lw.c ****                     uint8 comparemodemasked = ((uint8)((uint8)comparemode << PWM_lw_CTRL_CMPMODE1_S
 272:Generated_Source\PSoC5/PWM_lw.c ****                 #else
 273:Generated_Source\PSoC5/PWM_lw.c ****                     uint8 comparemodemasked = comparemode;
 274:Generated_Source\PSoC5/PWM_lw.c ****                 #endif /* (0 != PWM_lw_CTRL_CMPMODE1_SHIFT) */
 275:Generated_Source\PSoC5/PWM_lw.c **** 
 276:Generated_Source\PSoC5/PWM_lw.c ****                 PWM_lw_CONTROL3 &= ((uint8)(~PWM_lw_CTRL_CMPMODE1_MASK)); /*Clear Existing Data */
 277:Generated_Source\PSoC5/PWM_lw.c ****                 PWM_lw_CONTROL3 |= comparemodemasked;
 278:Generated_Source\PSoC5/PWM_lw.c **** 
 279:Generated_Source\PSoC5/PWM_lw.c ****             #elif (PWM_lw_UseControl)
 280:Generated_Source\PSoC5/PWM_lw.c **** 
 281:Generated_Source\PSoC5/PWM_lw.c ****                 #if(0 != PWM_lw_CTRL_CMPMODE1_SHIFT)
 282:Generated_Source\PSoC5/PWM_lw.c ****                     uint8 comparemode1masked = ((uint8)((uint8)comparemode << PWM_lw_CTRL_CMPMODE1_
 283:Generated_Source\PSoC5/PWM_lw.c ****                                                 PWM_lw_CTRL_CMPMODE1_MASK;
 284:Generated_Source\PSoC5/PWM_lw.c ****                 #else
 285:Generated_Source\PSoC5/PWM_lw.c ****                     uint8 comparemode1masked = comparemode & PWM_lw_CTRL_CMPMODE1_MASK;
 286:Generated_Source\PSoC5/PWM_lw.c ****                 #endif /* (0 != PWM_lw_CTRL_CMPMODE1_SHIFT) */
 287:Generated_Source\PSoC5/PWM_lw.c **** 
 288:Generated_Source\PSoC5/PWM_lw.c ****                 #if(0 != PWM_lw_CTRL_CMPMODE2_SHIFT)
 289:Generated_Source\PSoC5/PWM_lw.c ****                     uint8 comparemode2masked = ((uint8)((uint8)comparemode << PWM_lw_CTRL_CMPMODE2_
 290:Generated_Source\PSoC5/PWM_lw.c ****                                                PWM_lw_CTRL_CMPMODE2_MASK;
 291:Generated_Source\PSoC5/PWM_lw.c ****                 #else
 292:Generated_Source\PSoC5/PWM_lw.c ****                     uint8 comparemode2masked = comparemode & PWM_lw_CTRL_CMPMODE2_MASK;
 293:Generated_Source\PSoC5/PWM_lw.c ****                 #endif /* (0 != PWM_lw_CTRL_CMPMODE2_SHIFT) */
 294:Generated_Source\PSoC5/PWM_lw.c **** 
 295:Generated_Source\PSoC5/PWM_lw.c ****                 /*Clear existing mode */
 296:Generated_Source\PSoC5/PWM_lw.c ****                 PWM_lw_CONTROL &= ((uint8)(~(PWM_lw_CTRL_CMPMODE1_MASK |
 297:Generated_Source\PSoC5/PWM_lw.c ****                                             PWM_lw_CTRL_CMPMODE2_MASK)));
 298:Generated_Source\PSoC5/PWM_lw.c ****                 PWM_lw_CONTROL |= (comparemode1masked | comparemode2masked);
 299:Generated_Source\PSoC5/PWM_lw.c **** 
 300:Generated_Source\PSoC5/PWM_lw.c ****             #else
 301:Generated_Source\PSoC5/PWM_lw.c ****                 uint8 temp = comparemode;
 302:Generated_Source\PSoC5/PWM_lw.c ****             #endif /* (PWM_lw_UsingFixedFunction) */
 303:Generated_Source\PSoC5/PWM_lw.c ****         }
 304:Generated_Source\PSoC5/PWM_lw.c ****     #endif /* PWM_lw_CompareMode1SW */
 305:Generated_Source\PSoC5/PWM_lw.c **** 
 306:Generated_Source\PSoC5/PWM_lw.c **** #else /* UseOneCompareMode */
 307:Generated_Source\PSoC5/PWM_lw.c **** 
 308:Generated_Source\PSoC5/PWM_lw.c ****     #if (PWM_lw_CompareMode1SW)
 309:Generated_Source\PSoC5/PWM_lw.c **** 
 310:Generated_Source\PSoC5/PWM_lw.c **** 
 311:Generated_Source\PSoC5/PWM_lw.c ****         /*******************************************************************************
 312:Generated_Source\PSoC5/PWM_lw.c ****         * Function Name: PWM_lw_SetCompareMode1
 313:Generated_Source\PSoC5/PWM_lw.c ****         ********************************************************************************
 314:Generated_Source\PSoC5/PWM_lw.c ****         *
 315:Generated_Source\PSoC5/PWM_lw.c ****         * Summary:
 316:Generated_Source\PSoC5/PWM_lw.c ****         *  This function writes the Compare Mode for the pwm or pwm1 output
 317:Generated_Source\PSoC5/PWM_lw.c ****         *
 318:Generated_Source\PSoC5/PWM_lw.c ****         * Parameters:
 319:Generated_Source\PSoC5/PWM_lw.c ****         *  comparemode:  The new compare mode for the PWM output. Use the compare types
 320:Generated_Source\PSoC5/PWM_lw.c ****         *                defined in the H file as input arguments.
ARM GAS  C:\Users\Zwe\AppData\Local\Temp\ccVTyOTd.s 			page 8


 321:Generated_Source\PSoC5/PWM_lw.c ****         *
 322:Generated_Source\PSoC5/PWM_lw.c ****         * Return:
 323:Generated_Source\PSoC5/PWM_lw.c ****         *  None
 324:Generated_Source\PSoC5/PWM_lw.c ****         *
 325:Generated_Source\PSoC5/PWM_lw.c ****         *******************************************************************************/
 326:Generated_Source\PSoC5/PWM_lw.c ****         void PWM_lw_SetCompareMode1(uint8 comparemode) 
 327:Generated_Source\PSoC5/PWM_lw.c ****         {
 328:Generated_Source\PSoC5/PWM_lw.c ****             #if(0 != PWM_lw_CTRL_CMPMODE1_SHIFT)
 329:Generated_Source\PSoC5/PWM_lw.c ****                 uint8 comparemodemasked = ((uint8)((uint8)comparemode << PWM_lw_CTRL_CMPMODE1_SHIFT
 330:Generated_Source\PSoC5/PWM_lw.c ****                                            PWM_lw_CTRL_CMPMODE1_MASK;
 331:Generated_Source\PSoC5/PWM_lw.c ****             #else
 332:Generated_Source\PSoC5/PWM_lw.c ****                 uint8 comparemodemasked = comparemode & PWM_lw_CTRL_CMPMODE1_MASK;
 333:Generated_Source\PSoC5/PWM_lw.c ****             #endif /* (0 != PWM_lw_CTRL_CMPMODE1_SHIFT) */
 334:Generated_Source\PSoC5/PWM_lw.c **** 
 335:Generated_Source\PSoC5/PWM_lw.c ****             #if (PWM_lw_UseControl)
 336:Generated_Source\PSoC5/PWM_lw.c ****                 PWM_lw_CONTROL &= ((uint8)(~PWM_lw_CTRL_CMPMODE1_MASK)); /*Clear existing mode */
 337:Generated_Source\PSoC5/PWM_lw.c ****                 PWM_lw_CONTROL |= comparemodemasked;
 338:Generated_Source\PSoC5/PWM_lw.c ****             #endif /* (PWM_lw_UseControl) */
 339:Generated_Source\PSoC5/PWM_lw.c ****         }
 340:Generated_Source\PSoC5/PWM_lw.c ****     #endif /* PWM_lw_CompareMode1SW */
 341:Generated_Source\PSoC5/PWM_lw.c **** 
 342:Generated_Source\PSoC5/PWM_lw.c **** #if (PWM_lw_CompareMode2SW)
 343:Generated_Source\PSoC5/PWM_lw.c **** 
 344:Generated_Source\PSoC5/PWM_lw.c **** 
 345:Generated_Source\PSoC5/PWM_lw.c ****     /*******************************************************************************
 346:Generated_Source\PSoC5/PWM_lw.c ****     * Function Name: PWM_lw_SetCompareMode2
 347:Generated_Source\PSoC5/PWM_lw.c ****     ********************************************************************************
 348:Generated_Source\PSoC5/PWM_lw.c ****     *
 349:Generated_Source\PSoC5/PWM_lw.c ****     * Summary:
 350:Generated_Source\PSoC5/PWM_lw.c ****     *  This function writes the Compare Mode for the pwm or pwm2 output
 351:Generated_Source\PSoC5/PWM_lw.c ****     *
 352:Generated_Source\PSoC5/PWM_lw.c ****     * Parameters:
 353:Generated_Source\PSoC5/PWM_lw.c ****     *  comparemode:  The new compare mode for the PWM output. Use the compare types
 354:Generated_Source\PSoC5/PWM_lw.c ****     *                defined in the H file as input arguments.
 355:Generated_Source\PSoC5/PWM_lw.c ****     *
 356:Generated_Source\PSoC5/PWM_lw.c ****     * Return:
 357:Generated_Source\PSoC5/PWM_lw.c ****     *  None
 358:Generated_Source\PSoC5/PWM_lw.c ****     *
 359:Generated_Source\PSoC5/PWM_lw.c ****     *******************************************************************************/
 360:Generated_Source\PSoC5/PWM_lw.c ****     void PWM_lw_SetCompareMode2(uint8 comparemode) 
 361:Generated_Source\PSoC5/PWM_lw.c ****     {
 362:Generated_Source\PSoC5/PWM_lw.c **** 
 363:Generated_Source\PSoC5/PWM_lw.c ****         #if(0 != PWM_lw_CTRL_CMPMODE2_SHIFT)
 364:Generated_Source\PSoC5/PWM_lw.c ****             uint8 comparemodemasked = ((uint8)((uint8)comparemode << PWM_lw_CTRL_CMPMODE2_SHIFT)) &
 365:Generated_Source\PSoC5/PWM_lw.c ****                                                  PWM_lw_CTRL_CMPMODE2_MASK;
 366:Generated_Source\PSoC5/PWM_lw.c ****         #else
 367:Generated_Source\PSoC5/PWM_lw.c ****             uint8 comparemodemasked = comparemode & PWM_lw_CTRL_CMPMODE2_MASK;
 368:Generated_Source\PSoC5/PWM_lw.c ****         #endif /* (0 != PWM_lw_CTRL_CMPMODE2_SHIFT) */
 369:Generated_Source\PSoC5/PWM_lw.c **** 
 370:Generated_Source\PSoC5/PWM_lw.c ****         #if (PWM_lw_UseControl)
 371:Generated_Source\PSoC5/PWM_lw.c ****             PWM_lw_CONTROL &= ((uint8)(~PWM_lw_CTRL_CMPMODE2_MASK)); /*Clear existing mode */
 372:Generated_Source\PSoC5/PWM_lw.c ****             PWM_lw_CONTROL |= comparemodemasked;
 373:Generated_Source\PSoC5/PWM_lw.c ****         #endif /* (PWM_lw_UseControl) */
 374:Generated_Source\PSoC5/PWM_lw.c ****     }
 375:Generated_Source\PSoC5/PWM_lw.c ****     #endif /*PWM_lw_CompareMode2SW */
 376:Generated_Source\PSoC5/PWM_lw.c **** 
 377:Generated_Source\PSoC5/PWM_lw.c **** #endif /* UseOneCompareMode */
ARM GAS  C:\Users\Zwe\AppData\Local\Temp\ccVTyOTd.s 			page 9


 378:Generated_Source\PSoC5/PWM_lw.c **** 
 379:Generated_Source\PSoC5/PWM_lw.c **** 
 380:Generated_Source\PSoC5/PWM_lw.c **** #if (!PWM_lw_UsingFixedFunction)
 381:Generated_Source\PSoC5/PWM_lw.c **** 
 382:Generated_Source\PSoC5/PWM_lw.c **** 
 383:Generated_Source\PSoC5/PWM_lw.c ****     /*******************************************************************************
 384:Generated_Source\PSoC5/PWM_lw.c ****     * Function Name: PWM_lw_WriteCounter
 385:Generated_Source\PSoC5/PWM_lw.c ****     ********************************************************************************
 386:Generated_Source\PSoC5/PWM_lw.c ****     *
 387:Generated_Source\PSoC5/PWM_lw.c ****     * Summary:
 388:Generated_Source\PSoC5/PWM_lw.c ****     *  Writes a new counter value directly to the counter register. This will be
 389:Generated_Source\PSoC5/PWM_lw.c ****     *  implemented for that currently running period and only that period. This API
 390:Generated_Source\PSoC5/PWM_lw.c ****     *  is valid only for UDB implementation and not available for fixed function
 391:Generated_Source\PSoC5/PWM_lw.c ****     *  PWM implementation.
 392:Generated_Source\PSoC5/PWM_lw.c ****     *
 393:Generated_Source\PSoC5/PWM_lw.c ****     * Parameters:
 394:Generated_Source\PSoC5/PWM_lw.c ****     *  counter:  The period new period counter value.
 395:Generated_Source\PSoC5/PWM_lw.c ****     *
 396:Generated_Source\PSoC5/PWM_lw.c ****     * Return:
 397:Generated_Source\PSoC5/PWM_lw.c ****     *  None
 398:Generated_Source\PSoC5/PWM_lw.c ****     *
 399:Generated_Source\PSoC5/PWM_lw.c ****     * Side Effects:
 400:Generated_Source\PSoC5/PWM_lw.c ****     *  The PWM Period will be reloaded when a counter value will be a zero
 401:Generated_Source\PSoC5/PWM_lw.c ****     *
 402:Generated_Source\PSoC5/PWM_lw.c ****     *******************************************************************************/
 403:Generated_Source\PSoC5/PWM_lw.c ****     void PWM_lw_WriteCounter(uint8 counter) \
 404:Generated_Source\PSoC5/PWM_lw.c ****                                        
 405:Generated_Source\PSoC5/PWM_lw.c ****     {
  80              		.loc 1 405 0
  81              		.cfi_startproc
  82              		@ args = 0, pretend = 0, frame = 0
  83              		@ frame_needed = 0, uses_anonymous_args = 0
  84              		@ link register save eliminated.
  85              	.LVL0:
 406:Generated_Source\PSoC5/PWM_lw.c ****         CY_SET_REG8(PWM_lw_COUNTER_LSB_PTR, counter);
  86              		.loc 1 406 0
  87 0000 014B     		ldr	r3, .L8
  88 0002 1870     		strb	r0, [r3]
  89 0004 7047     		bx	lr
  90              	.L9:
  91 0006 00BF     		.align	2
  92              	.L8:
  93 0008 09640040 		.word	1073767433
  94              		.cfi_endproc
  95              	.LFE4:
  96              		.size	PWM_lw_WriteCounter, .-PWM_lw_WriteCounter
  97              		.section	.text.PWM_lw_ReadCounter,"ax",%progbits
  98              		.align	1
  99              		.global	PWM_lw_ReadCounter
 100              		.thumb
 101              		.thumb_func
 102              		.type	PWM_lw_ReadCounter, %function
 103              	PWM_lw_ReadCounter:
 104              	.LFB5:
 407:Generated_Source\PSoC5/PWM_lw.c ****     }
 408:Generated_Source\PSoC5/PWM_lw.c **** 
 409:Generated_Source\PSoC5/PWM_lw.c **** 
ARM GAS  C:\Users\Zwe\AppData\Local\Temp\ccVTyOTd.s 			page 10


 410:Generated_Source\PSoC5/PWM_lw.c ****     /*******************************************************************************
 411:Generated_Source\PSoC5/PWM_lw.c ****     * Function Name: PWM_lw_ReadCounter
 412:Generated_Source\PSoC5/PWM_lw.c ****     ********************************************************************************
 413:Generated_Source\PSoC5/PWM_lw.c ****     *
 414:Generated_Source\PSoC5/PWM_lw.c ****     * Summary:
 415:Generated_Source\PSoC5/PWM_lw.c ****     *  This function returns the current value of the counter.  It doesn't matter
 416:Generated_Source\PSoC5/PWM_lw.c ****     *  if the counter is enabled or running.
 417:Generated_Source\PSoC5/PWM_lw.c ****     *
 418:Generated_Source\PSoC5/PWM_lw.c ****     * Parameters:
 419:Generated_Source\PSoC5/PWM_lw.c ****     *  None
 420:Generated_Source\PSoC5/PWM_lw.c ****     *
 421:Generated_Source\PSoC5/PWM_lw.c ****     * Return:
 422:Generated_Source\PSoC5/PWM_lw.c ****     *  The current value of the counter.
 423:Generated_Source\PSoC5/PWM_lw.c ****     *
 424:Generated_Source\PSoC5/PWM_lw.c ****     *******************************************************************************/
 425:Generated_Source\PSoC5/PWM_lw.c ****     uint8 PWM_lw_ReadCounter(void) 
 426:Generated_Source\PSoC5/PWM_lw.c ****     {
 105              		.loc 1 426 0
 106              		.cfi_startproc
 107              		@ args = 0, pretend = 0, frame = 0
 108              		@ frame_needed = 0, uses_anonymous_args = 0
 109              		@ link register save eliminated.
 427:Generated_Source\PSoC5/PWM_lw.c ****         /* Force capture by reading Accumulator */
 428:Generated_Source\PSoC5/PWM_lw.c ****         /* Must first do a software capture to be able to read the counter */
 429:Generated_Source\PSoC5/PWM_lw.c ****         /* It is up to the user code to make sure there isn't already captured data in the FIFO */
 430:Generated_Source\PSoC5/PWM_lw.c ****           (void)CY_GET_REG8(PWM_lw_COUNTERCAP_LSB_PTR_8BIT);
 110              		.loc 1 430 0
 111 0000 024B     		ldr	r3, .L11
 112 0002 1B78     		ldrb	r3, [r3]	@ zero_extendqisi2
 431:Generated_Source\PSoC5/PWM_lw.c **** 
 432:Generated_Source\PSoC5/PWM_lw.c ****         /* Read the data from the FIFO */
 433:Generated_Source\PSoC5/PWM_lw.c ****         return (CY_GET_REG8(PWM_lw_CAPTURE_LSB_PTR));
 113              		.loc 1 433 0
 114 0004 024B     		ldr	r3, .L11+4
 115 0006 1878     		ldrb	r0, [r3]	@ zero_extendqisi2
 434:Generated_Source\PSoC5/PWM_lw.c ****     }
 116              		.loc 1 434 0
 117 0008 7047     		bx	lr
 118              	.L12:
 119 000a 00BF     		.align	2
 120              	.L11:
 121 000c 19640040 		.word	1073767449
 122 0010 59640040 		.word	1073767513
 123              		.cfi_endproc
 124              	.LFE5:
 125              		.size	PWM_lw_ReadCounter, .-PWM_lw_ReadCounter
 126              		.section	.text.PWM_lw_ClearFIFO,"ax",%progbits
 127              		.align	1
 128              		.global	PWM_lw_ClearFIFO
 129              		.thumb
 130              		.thumb_func
 131              		.type	PWM_lw_ClearFIFO, %function
 132              	PWM_lw_ClearFIFO:
 133              	.LFB6:
 435:Generated_Source\PSoC5/PWM_lw.c **** 
 436:Generated_Source\PSoC5/PWM_lw.c ****     #if (PWM_lw_UseStatus)
 437:Generated_Source\PSoC5/PWM_lw.c **** 
ARM GAS  C:\Users\Zwe\AppData\Local\Temp\ccVTyOTd.s 			page 11


 438:Generated_Source\PSoC5/PWM_lw.c **** 
 439:Generated_Source\PSoC5/PWM_lw.c ****         /*******************************************************************************
 440:Generated_Source\PSoC5/PWM_lw.c ****         * Function Name: PWM_lw_ClearFIFO
 441:Generated_Source\PSoC5/PWM_lw.c ****         ********************************************************************************
 442:Generated_Source\PSoC5/PWM_lw.c ****         *
 443:Generated_Source\PSoC5/PWM_lw.c ****         * Summary:
 444:Generated_Source\PSoC5/PWM_lw.c ****         *  This function clears all capture data from the capture FIFO
 445:Generated_Source\PSoC5/PWM_lw.c ****         *
 446:Generated_Source\PSoC5/PWM_lw.c ****         * Parameters:
 447:Generated_Source\PSoC5/PWM_lw.c ****         *  None
 448:Generated_Source\PSoC5/PWM_lw.c ****         *
 449:Generated_Source\PSoC5/PWM_lw.c ****         * Return:
 450:Generated_Source\PSoC5/PWM_lw.c ****         *  None
 451:Generated_Source\PSoC5/PWM_lw.c ****         *
 452:Generated_Source\PSoC5/PWM_lw.c ****         *******************************************************************************/
 453:Generated_Source\PSoC5/PWM_lw.c ****         void PWM_lw_ClearFIFO(void) 
 454:Generated_Source\PSoC5/PWM_lw.c ****         {
 134              		.loc 1 454 0
 135              		.cfi_startproc
 136              		@ args = 0, pretend = 0, frame = 0
 137              		@ frame_needed = 0, uses_anonymous_args = 0
 138              		@ link register save eliminated.
 139              	.LBB14:
 140              	.LBB15:
 455:Generated_Source\PSoC5/PWM_lw.c ****             while(0u != (PWM_lw_ReadStatusRegister() & PWM_lw_STATUS_FIFONEMPTY))
 456:Generated_Source\PSoC5/PWM_lw.c ****             {
 457:Generated_Source\PSoC5/PWM_lw.c ****                 (void)PWM_lw_ReadCapture();
 458:Generated_Source\PSoC5/PWM_lw.c ****             }
 459:Generated_Source\PSoC5/PWM_lw.c ****         }
 460:Generated_Source\PSoC5/PWM_lw.c **** 
 461:Generated_Source\PSoC5/PWM_lw.c ****     #endif /* PWM_lw_UseStatus */
 462:Generated_Source\PSoC5/PWM_lw.c **** 
 463:Generated_Source\PSoC5/PWM_lw.c **** #endif /* !PWM_lw_UsingFixedFunction */
 464:Generated_Source\PSoC5/PWM_lw.c **** 
 465:Generated_Source\PSoC5/PWM_lw.c **** 
 466:Generated_Source\PSoC5/PWM_lw.c **** /*******************************************************************************
 467:Generated_Source\PSoC5/PWM_lw.c **** * Function Name: PWM_lw_WritePeriod
 468:Generated_Source\PSoC5/PWM_lw.c **** ********************************************************************************
 469:Generated_Source\PSoC5/PWM_lw.c **** *
 470:Generated_Source\PSoC5/PWM_lw.c **** * Summary:
 471:Generated_Source\PSoC5/PWM_lw.c **** *  This function is used to change the period of the counter.  The new period
 472:Generated_Source\PSoC5/PWM_lw.c **** *  will be loaded the next time terminal count is detected.
 473:Generated_Source\PSoC5/PWM_lw.c **** *
 474:Generated_Source\PSoC5/PWM_lw.c **** * Parameters:
 475:Generated_Source\PSoC5/PWM_lw.c **** *  period:  Period value. May be between 1 and (2^Resolution)-1.  A value of 0
 476:Generated_Source\PSoC5/PWM_lw.c **** *           will result in the counter remaining at zero.
 477:Generated_Source\PSoC5/PWM_lw.c **** *
 478:Generated_Source\PSoC5/PWM_lw.c **** * Return:
 479:Generated_Source\PSoC5/PWM_lw.c **** *  None
 480:Generated_Source\PSoC5/PWM_lw.c **** *
 481:Generated_Source\PSoC5/PWM_lw.c **** *******************************************************************************/
 482:Generated_Source\PSoC5/PWM_lw.c **** void PWM_lw_WritePeriod(uint8 period) 
 483:Generated_Source\PSoC5/PWM_lw.c **** {
 484:Generated_Source\PSoC5/PWM_lw.c ****     #if(PWM_lw_UsingFixedFunction)
 485:Generated_Source\PSoC5/PWM_lw.c ****         CY_SET_REG16(PWM_lw_PERIOD_LSB_PTR, (uint16)period);
 486:Generated_Source\PSoC5/PWM_lw.c ****     #else
 487:Generated_Source\PSoC5/PWM_lw.c ****         CY_SET_REG8(PWM_lw_PERIOD_LSB_PTR, period);
ARM GAS  C:\Users\Zwe\AppData\Local\Temp\ccVTyOTd.s 			page 12


 488:Generated_Source\PSoC5/PWM_lw.c ****     #endif /* (PWM_lw_UsingFixedFunction) */
 489:Generated_Source\PSoC5/PWM_lw.c **** }
 490:Generated_Source\PSoC5/PWM_lw.c **** 
 491:Generated_Source\PSoC5/PWM_lw.c **** #if (PWM_lw_UseOneCompareMode)
 492:Generated_Source\PSoC5/PWM_lw.c **** 
 493:Generated_Source\PSoC5/PWM_lw.c **** 
 494:Generated_Source\PSoC5/PWM_lw.c ****     /*******************************************************************************
 495:Generated_Source\PSoC5/PWM_lw.c ****     * Function Name: PWM_lw_WriteCompare
 496:Generated_Source\PSoC5/PWM_lw.c ****     ********************************************************************************
 497:Generated_Source\PSoC5/PWM_lw.c ****     *
 498:Generated_Source\PSoC5/PWM_lw.c ****     * Summary:
 499:Generated_Source\PSoC5/PWM_lw.c ****     *  This funtion is used to change the compare1 value when the PWM is in Dither
 500:Generated_Source\PSoC5/PWM_lw.c ****     *  mode. The compare output will reflect the new value on the next UDB clock.
 501:Generated_Source\PSoC5/PWM_lw.c ****     *  The compare output will be driven high when the present counter value is
 502:Generated_Source\PSoC5/PWM_lw.c ****     *  compared to the compare value based on the compare mode defined in
 503:Generated_Source\PSoC5/PWM_lw.c ****     *  Dither Mode.
 504:Generated_Source\PSoC5/PWM_lw.c ****     *
 505:Generated_Source\PSoC5/PWM_lw.c ****     * Parameters:
 506:Generated_Source\PSoC5/PWM_lw.c ****     *  compare:  New compare value.
 507:Generated_Source\PSoC5/PWM_lw.c ****     *
 508:Generated_Source\PSoC5/PWM_lw.c ****     * Return:
 509:Generated_Source\PSoC5/PWM_lw.c ****     *  None
 510:Generated_Source\PSoC5/PWM_lw.c ****     *
 511:Generated_Source\PSoC5/PWM_lw.c ****     * Side Effects:
 512:Generated_Source\PSoC5/PWM_lw.c ****     *  This function is only available if the PWM mode parameter is set to
 513:Generated_Source\PSoC5/PWM_lw.c ****     *  Dither Mode, Center Aligned Mode or One Output Mode
 514:Generated_Source\PSoC5/PWM_lw.c ****     *
 515:Generated_Source\PSoC5/PWM_lw.c ****     *******************************************************************************/
 516:Generated_Source\PSoC5/PWM_lw.c ****     void PWM_lw_WriteCompare(uint8 compare) \
 517:Generated_Source\PSoC5/PWM_lw.c ****                                        
 518:Generated_Source\PSoC5/PWM_lw.c ****     {
 519:Generated_Source\PSoC5/PWM_lw.c ****         #if(PWM_lw_UsingFixedFunction)
 520:Generated_Source\PSoC5/PWM_lw.c ****             CY_SET_REG16(PWM_lw_COMPARE1_LSB_PTR, (uint16)compare);
 521:Generated_Source\PSoC5/PWM_lw.c ****         #else
 522:Generated_Source\PSoC5/PWM_lw.c ****             CY_SET_REG8(PWM_lw_COMPARE1_LSB_PTR, compare);
 523:Generated_Source\PSoC5/PWM_lw.c ****         #endif /* (PWM_lw_UsingFixedFunction) */
 524:Generated_Source\PSoC5/PWM_lw.c **** 
 525:Generated_Source\PSoC5/PWM_lw.c ****         #if (PWM_lw_PWMMode == PWM_lw__B_PWM__DITHER)
 526:Generated_Source\PSoC5/PWM_lw.c ****             #if(PWM_lw_UsingFixedFunction)
 527:Generated_Source\PSoC5/PWM_lw.c ****                 CY_SET_REG16(PWM_lw_COMPARE2_LSB_PTR, (uint16)(compare + 1u));
 528:Generated_Source\PSoC5/PWM_lw.c ****             #else
 529:Generated_Source\PSoC5/PWM_lw.c ****                 CY_SET_REG8(PWM_lw_COMPARE2_LSB_PTR, (compare + 1u));
 530:Generated_Source\PSoC5/PWM_lw.c ****             #endif /* (PWM_lw_UsingFixedFunction) */
 531:Generated_Source\PSoC5/PWM_lw.c ****         #endif /* (PWM_lw_PWMMode == PWM_lw__B_PWM__DITHER) */
 532:Generated_Source\PSoC5/PWM_lw.c ****     }
 533:Generated_Source\PSoC5/PWM_lw.c **** 
 534:Generated_Source\PSoC5/PWM_lw.c **** 
 535:Generated_Source\PSoC5/PWM_lw.c **** #else
 536:Generated_Source\PSoC5/PWM_lw.c **** 
 537:Generated_Source\PSoC5/PWM_lw.c **** 
 538:Generated_Source\PSoC5/PWM_lw.c ****     /*******************************************************************************
 539:Generated_Source\PSoC5/PWM_lw.c ****     * Function Name: PWM_lw_WriteCompare1
 540:Generated_Source\PSoC5/PWM_lw.c ****     ********************************************************************************
 541:Generated_Source\PSoC5/PWM_lw.c ****     *
 542:Generated_Source\PSoC5/PWM_lw.c ****     * Summary:
 543:Generated_Source\PSoC5/PWM_lw.c ****     *  This funtion is used to change the compare1 value.  The compare output will
 544:Generated_Source\PSoC5/PWM_lw.c ****     *  reflect the new value on the next UDB clock.  The compare output will be
ARM GAS  C:\Users\Zwe\AppData\Local\Temp\ccVTyOTd.s 			page 13


 545:Generated_Source\PSoC5/PWM_lw.c ****     *  driven high when the present counter value is less than or less than or
 546:Generated_Source\PSoC5/PWM_lw.c ****     *  equal to the compare register, depending on the mode.
 547:Generated_Source\PSoC5/PWM_lw.c ****     *
 548:Generated_Source\PSoC5/PWM_lw.c ****     * Parameters:
 549:Generated_Source\PSoC5/PWM_lw.c ****     *  compare:  New compare value.
 550:Generated_Source\PSoC5/PWM_lw.c ****     *
 551:Generated_Source\PSoC5/PWM_lw.c ****     * Return:
 552:Generated_Source\PSoC5/PWM_lw.c ****     *  None
 553:Generated_Source\PSoC5/PWM_lw.c ****     *
 554:Generated_Source\PSoC5/PWM_lw.c ****     *******************************************************************************/
 555:Generated_Source\PSoC5/PWM_lw.c ****     void PWM_lw_WriteCompare1(uint8 compare) \
 556:Generated_Source\PSoC5/PWM_lw.c ****                                         
 557:Generated_Source\PSoC5/PWM_lw.c ****     {
 558:Generated_Source\PSoC5/PWM_lw.c ****         #if(PWM_lw_UsingFixedFunction)
 559:Generated_Source\PSoC5/PWM_lw.c ****             CY_SET_REG16(PWM_lw_COMPARE1_LSB_PTR, (uint16)compare);
 560:Generated_Source\PSoC5/PWM_lw.c ****         #else
 561:Generated_Source\PSoC5/PWM_lw.c ****             CY_SET_REG8(PWM_lw_COMPARE1_LSB_PTR, compare);
 562:Generated_Source\PSoC5/PWM_lw.c ****         #endif /* (PWM_lw_UsingFixedFunction) */
 563:Generated_Source\PSoC5/PWM_lw.c ****     }
 564:Generated_Source\PSoC5/PWM_lw.c **** 
 565:Generated_Source\PSoC5/PWM_lw.c **** 
 566:Generated_Source\PSoC5/PWM_lw.c ****     /*******************************************************************************
 567:Generated_Source\PSoC5/PWM_lw.c ****     * Function Name: PWM_lw_WriteCompare2
 568:Generated_Source\PSoC5/PWM_lw.c ****     ********************************************************************************
 569:Generated_Source\PSoC5/PWM_lw.c ****     *
 570:Generated_Source\PSoC5/PWM_lw.c ****     * Summary:
 571:Generated_Source\PSoC5/PWM_lw.c ****     *  This funtion is used to change the compare value, for compare1 output.
 572:Generated_Source\PSoC5/PWM_lw.c ****     *  The compare output will reflect the new value on the next UDB clock.
 573:Generated_Source\PSoC5/PWM_lw.c ****     *  The compare output will be driven high when the present counter value is
 574:Generated_Source\PSoC5/PWM_lw.c ****     *  less than or less than or equal to the compare register, depending on the
 575:Generated_Source\PSoC5/PWM_lw.c ****     *  mode.
 576:Generated_Source\PSoC5/PWM_lw.c ****     *
 577:Generated_Source\PSoC5/PWM_lw.c ****     * Parameters:
 578:Generated_Source\PSoC5/PWM_lw.c ****     *  compare:  New compare value.
 579:Generated_Source\PSoC5/PWM_lw.c ****     *
 580:Generated_Source\PSoC5/PWM_lw.c ****     * Return:
 581:Generated_Source\PSoC5/PWM_lw.c ****     *  None
 582:Generated_Source\PSoC5/PWM_lw.c ****     *
 583:Generated_Source\PSoC5/PWM_lw.c ****     *******************************************************************************/
 584:Generated_Source\PSoC5/PWM_lw.c ****     void PWM_lw_WriteCompare2(uint8 compare) \
 585:Generated_Source\PSoC5/PWM_lw.c ****                                         
 586:Generated_Source\PSoC5/PWM_lw.c ****     {
 587:Generated_Source\PSoC5/PWM_lw.c ****         #if(PWM_lw_UsingFixedFunction)
 588:Generated_Source\PSoC5/PWM_lw.c ****             CY_SET_REG16(PWM_lw_COMPARE2_LSB_PTR, compare);
 589:Generated_Source\PSoC5/PWM_lw.c ****         #else
 590:Generated_Source\PSoC5/PWM_lw.c ****             CY_SET_REG8(PWM_lw_COMPARE2_LSB_PTR, compare);
 591:Generated_Source\PSoC5/PWM_lw.c ****         #endif /* (PWM_lw_UsingFixedFunction) */
 592:Generated_Source\PSoC5/PWM_lw.c ****     }
 593:Generated_Source\PSoC5/PWM_lw.c **** #endif /* UseOneCompareMode */
 594:Generated_Source\PSoC5/PWM_lw.c **** 
 595:Generated_Source\PSoC5/PWM_lw.c **** #if (PWM_lw_DeadBandUsed)
 596:Generated_Source\PSoC5/PWM_lw.c **** 
 597:Generated_Source\PSoC5/PWM_lw.c **** 
 598:Generated_Source\PSoC5/PWM_lw.c ****     /*******************************************************************************
 599:Generated_Source\PSoC5/PWM_lw.c ****     * Function Name: PWM_lw_WriteDeadTime
 600:Generated_Source\PSoC5/PWM_lw.c ****     ********************************************************************************
 601:Generated_Source\PSoC5/PWM_lw.c ****     *
ARM GAS  C:\Users\Zwe\AppData\Local\Temp\ccVTyOTd.s 			page 14


 602:Generated_Source\PSoC5/PWM_lw.c ****     * Summary:
 603:Generated_Source\PSoC5/PWM_lw.c ****     *  This function writes the dead-band counts to the corresponding register
 604:Generated_Source\PSoC5/PWM_lw.c ****     *
 605:Generated_Source\PSoC5/PWM_lw.c ****     * Parameters:
 606:Generated_Source\PSoC5/PWM_lw.c ****     *  deadtime:  Number of counts for dead time
 607:Generated_Source\PSoC5/PWM_lw.c ****     *
 608:Generated_Source\PSoC5/PWM_lw.c ****     * Return:
 609:Generated_Source\PSoC5/PWM_lw.c ****     *  None
 610:Generated_Source\PSoC5/PWM_lw.c ****     *
 611:Generated_Source\PSoC5/PWM_lw.c ****     *******************************************************************************/
 612:Generated_Source\PSoC5/PWM_lw.c ****     void PWM_lw_WriteDeadTime(uint8 deadtime) 
 613:Generated_Source\PSoC5/PWM_lw.c ****     {
 614:Generated_Source\PSoC5/PWM_lw.c ****         /* If using the Dead Band 1-255 mode then just write the register */
 615:Generated_Source\PSoC5/PWM_lw.c ****         #if(!PWM_lw_DeadBand2_4)
 616:Generated_Source\PSoC5/PWM_lw.c ****             CY_SET_REG8(PWM_lw_DEADBAND_COUNT_PTR, deadtime);
 617:Generated_Source\PSoC5/PWM_lw.c ****         #else
 618:Generated_Source\PSoC5/PWM_lw.c ****             /* Otherwise the data has to be masked and offset */
 619:Generated_Source\PSoC5/PWM_lw.c ****             /* Clear existing data */
 620:Generated_Source\PSoC5/PWM_lw.c ****             PWM_lw_DEADBAND_COUNT &= ((uint8)(~PWM_lw_DEADBAND_COUNT_MASK));
 621:Generated_Source\PSoC5/PWM_lw.c **** 
 622:Generated_Source\PSoC5/PWM_lw.c ****             /* Set new dead time */
 623:Generated_Source\PSoC5/PWM_lw.c ****             #if(PWM_lw_DEADBAND_COUNT_SHIFT)
 624:Generated_Source\PSoC5/PWM_lw.c ****                 PWM_lw_DEADBAND_COUNT |= ((uint8)((uint8)deadtime << PWM_lw_DEADBAND_COUNT_SHIFT)) 
 625:Generated_Source\PSoC5/PWM_lw.c ****                                                     PWM_lw_DEADBAND_COUNT_MASK;
 626:Generated_Source\PSoC5/PWM_lw.c ****             #else
 627:Generated_Source\PSoC5/PWM_lw.c ****                 PWM_lw_DEADBAND_COUNT |= deadtime & PWM_lw_DEADBAND_COUNT_MASK;
 628:Generated_Source\PSoC5/PWM_lw.c ****             #endif /* (PWM_lw_DEADBAND_COUNT_SHIFT) */
 629:Generated_Source\PSoC5/PWM_lw.c **** 
 630:Generated_Source\PSoC5/PWM_lw.c ****         #endif /* (!PWM_lw_DeadBand2_4) */
 631:Generated_Source\PSoC5/PWM_lw.c ****     }
 632:Generated_Source\PSoC5/PWM_lw.c **** 
 633:Generated_Source\PSoC5/PWM_lw.c **** 
 634:Generated_Source\PSoC5/PWM_lw.c ****     /*******************************************************************************
 635:Generated_Source\PSoC5/PWM_lw.c ****     * Function Name: PWM_lw_ReadDeadTime
 636:Generated_Source\PSoC5/PWM_lw.c ****     ********************************************************************************
 637:Generated_Source\PSoC5/PWM_lw.c ****     *
 638:Generated_Source\PSoC5/PWM_lw.c ****     * Summary:
 639:Generated_Source\PSoC5/PWM_lw.c ****     *  This function reads the dead-band counts from the corresponding register
 640:Generated_Source\PSoC5/PWM_lw.c ****     *
 641:Generated_Source\PSoC5/PWM_lw.c ****     * Parameters:
 642:Generated_Source\PSoC5/PWM_lw.c ****     *  None
 643:Generated_Source\PSoC5/PWM_lw.c ****     *
 644:Generated_Source\PSoC5/PWM_lw.c ****     * Return:
 645:Generated_Source\PSoC5/PWM_lw.c ****     *  Dead Band Counts
 646:Generated_Source\PSoC5/PWM_lw.c ****     *
 647:Generated_Source\PSoC5/PWM_lw.c ****     *******************************************************************************/
 648:Generated_Source\PSoC5/PWM_lw.c ****     uint8 PWM_lw_ReadDeadTime(void) 
 649:Generated_Source\PSoC5/PWM_lw.c ****     {
 650:Generated_Source\PSoC5/PWM_lw.c ****         /* If using the Dead Band 1-255 mode then just read the register */
 651:Generated_Source\PSoC5/PWM_lw.c ****         #if(!PWM_lw_DeadBand2_4)
 652:Generated_Source\PSoC5/PWM_lw.c ****             return (CY_GET_REG8(PWM_lw_DEADBAND_COUNT_PTR));
 653:Generated_Source\PSoC5/PWM_lw.c ****         #else
 654:Generated_Source\PSoC5/PWM_lw.c **** 
 655:Generated_Source\PSoC5/PWM_lw.c ****             /* Otherwise the data has to be masked and offset */
 656:Generated_Source\PSoC5/PWM_lw.c ****             #if(PWM_lw_DEADBAND_COUNT_SHIFT)
 657:Generated_Source\PSoC5/PWM_lw.c ****                 return ((uint8)(((uint8)(PWM_lw_DEADBAND_COUNT & PWM_lw_DEADBAND_COUNT_MASK)) >>
 658:Generated_Source\PSoC5/PWM_lw.c ****                                                                            PWM_lw_DEADBAND_COUNT_SH
ARM GAS  C:\Users\Zwe\AppData\Local\Temp\ccVTyOTd.s 			page 15


 659:Generated_Source\PSoC5/PWM_lw.c ****             #else
 660:Generated_Source\PSoC5/PWM_lw.c ****                 return (PWM_lw_DEADBAND_COUNT & PWM_lw_DEADBAND_COUNT_MASK);
 661:Generated_Source\PSoC5/PWM_lw.c ****             #endif /* (PWM_lw_DEADBAND_COUNT_SHIFT) */
 662:Generated_Source\PSoC5/PWM_lw.c ****         #endif /* (!PWM_lw_DeadBand2_4) */
 663:Generated_Source\PSoC5/PWM_lw.c ****     }
 664:Generated_Source\PSoC5/PWM_lw.c **** #endif /* DeadBandUsed */
 665:Generated_Source\PSoC5/PWM_lw.c **** 
 666:Generated_Source\PSoC5/PWM_lw.c **** #if (PWM_lw_UseStatus || PWM_lw_UsingFixedFunction)
 667:Generated_Source\PSoC5/PWM_lw.c **** 
 668:Generated_Source\PSoC5/PWM_lw.c **** 
 669:Generated_Source\PSoC5/PWM_lw.c ****     /*******************************************************************************
 670:Generated_Source\PSoC5/PWM_lw.c ****     * Function Name: PWM_lw_SetInterruptMode
 671:Generated_Source\PSoC5/PWM_lw.c ****     ********************************************************************************
 672:Generated_Source\PSoC5/PWM_lw.c ****     *
 673:Generated_Source\PSoC5/PWM_lw.c ****     * Summary:
 674:Generated_Source\PSoC5/PWM_lw.c ****     *  This function configures the interrupts mask control of theinterrupt
 675:Generated_Source\PSoC5/PWM_lw.c ****     *  source status register.
 676:Generated_Source\PSoC5/PWM_lw.c ****     *
 677:Generated_Source\PSoC5/PWM_lw.c ****     * Parameters:
 678:Generated_Source\PSoC5/PWM_lw.c ****     *  uint8 interruptMode: Bit field containing the interrupt sources enabled
 679:Generated_Source\PSoC5/PWM_lw.c ****     *
 680:Generated_Source\PSoC5/PWM_lw.c ****     * Return:
 681:Generated_Source\PSoC5/PWM_lw.c ****     *  None
 682:Generated_Source\PSoC5/PWM_lw.c ****     *
 683:Generated_Source\PSoC5/PWM_lw.c ****     *******************************************************************************/
 684:Generated_Source\PSoC5/PWM_lw.c ****     void PWM_lw_SetInterruptMode(uint8 interruptMode) 
 685:Generated_Source\PSoC5/PWM_lw.c ****     {
 686:Generated_Source\PSoC5/PWM_lw.c ****         CY_SET_REG8(PWM_lw_STATUS_MASK_PTR, interruptMode);
 687:Generated_Source\PSoC5/PWM_lw.c ****     }
 688:Generated_Source\PSoC5/PWM_lw.c **** 
 689:Generated_Source\PSoC5/PWM_lw.c **** 
 690:Generated_Source\PSoC5/PWM_lw.c ****     /*******************************************************************************
 691:Generated_Source\PSoC5/PWM_lw.c ****     * Function Name: PWM_lw_ReadStatusRegister
 692:Generated_Source\PSoC5/PWM_lw.c ****     ********************************************************************************
 693:Generated_Source\PSoC5/PWM_lw.c ****     *
 694:Generated_Source\PSoC5/PWM_lw.c ****     * Summary:
 695:Generated_Source\PSoC5/PWM_lw.c ****     *  This function returns the current state of the status register.
 696:Generated_Source\PSoC5/PWM_lw.c ****     *
 697:Generated_Source\PSoC5/PWM_lw.c ****     * Parameters:
 698:Generated_Source\PSoC5/PWM_lw.c ****     *  None
 699:Generated_Source\PSoC5/PWM_lw.c ****     *
 700:Generated_Source\PSoC5/PWM_lw.c ****     * Return:
 701:Generated_Source\PSoC5/PWM_lw.c ****     *  uint8 : Current status register value. The status register bits are:
 702:Generated_Source\PSoC5/PWM_lw.c ****     *  [7:6] : Unused(0)
 703:Generated_Source\PSoC5/PWM_lw.c ****     *  [5]   : Kill event output
 704:Generated_Source\PSoC5/PWM_lw.c ****     *  [4]   : FIFO not empty
 705:Generated_Source\PSoC5/PWM_lw.c ****     *  [3]   : FIFO full
 706:Generated_Source\PSoC5/PWM_lw.c ****     *  [2]   : Terminal count
 707:Generated_Source\PSoC5/PWM_lw.c ****     *  [1]   : Compare output 2
 708:Generated_Source\PSoC5/PWM_lw.c ****     *  [0]   : Compare output 1
 709:Generated_Source\PSoC5/PWM_lw.c ****     *
 710:Generated_Source\PSoC5/PWM_lw.c ****     *******************************************************************************/
 711:Generated_Source\PSoC5/PWM_lw.c ****     uint8 PWM_lw_ReadStatusRegister(void) 
 712:Generated_Source\PSoC5/PWM_lw.c ****     {
 713:Generated_Source\PSoC5/PWM_lw.c ****         return (CY_GET_REG8(PWM_lw_STATUS_PTR));
 141              		.loc 1 713 0
 142 0000 034A     		ldr	r2, .L18
ARM GAS  C:\Users\Zwe\AppData\Local\Temp\ccVTyOTd.s 			page 16


 143              	.LBE15:
 144              	.LBE14:
 145              	.LBB17:
 146              	.LBB18:
 714:Generated_Source\PSoC5/PWM_lw.c ****     }
 715:Generated_Source\PSoC5/PWM_lw.c **** 
 716:Generated_Source\PSoC5/PWM_lw.c **** #endif /* (PWM_lw_UseStatus || PWM_lw_UsingFixedFunction) */
 717:Generated_Source\PSoC5/PWM_lw.c **** 
 718:Generated_Source\PSoC5/PWM_lw.c **** 
 719:Generated_Source\PSoC5/PWM_lw.c **** #if (PWM_lw_UseControl)
 720:Generated_Source\PSoC5/PWM_lw.c **** 
 721:Generated_Source\PSoC5/PWM_lw.c **** 
 722:Generated_Source\PSoC5/PWM_lw.c ****     /*******************************************************************************
 723:Generated_Source\PSoC5/PWM_lw.c ****     * Function Name: PWM_lw_ReadControlRegister
 724:Generated_Source\PSoC5/PWM_lw.c ****     ********************************************************************************
 725:Generated_Source\PSoC5/PWM_lw.c ****     *
 726:Generated_Source\PSoC5/PWM_lw.c ****     * Summary:
 727:Generated_Source\PSoC5/PWM_lw.c ****     *  Returns the current state of the control register. This API is available
 728:Generated_Source\PSoC5/PWM_lw.c ****     *  only if the control register is not removed.
 729:Generated_Source\PSoC5/PWM_lw.c ****     *
 730:Generated_Source\PSoC5/PWM_lw.c ****     * Parameters:
 731:Generated_Source\PSoC5/PWM_lw.c ****     *  None
 732:Generated_Source\PSoC5/PWM_lw.c ****     *
 733:Generated_Source\PSoC5/PWM_lw.c ****     * Return:
 734:Generated_Source\PSoC5/PWM_lw.c ****     *  uint8 : Current control register value
 735:Generated_Source\PSoC5/PWM_lw.c ****     *
 736:Generated_Source\PSoC5/PWM_lw.c ****     *******************************************************************************/
 737:Generated_Source\PSoC5/PWM_lw.c ****     uint8 PWM_lw_ReadControlRegister(void) 
 738:Generated_Source\PSoC5/PWM_lw.c ****     {
 739:Generated_Source\PSoC5/PWM_lw.c ****         uint8 result;
 740:Generated_Source\PSoC5/PWM_lw.c **** 
 741:Generated_Source\PSoC5/PWM_lw.c ****         result = CY_GET_REG8(PWM_lw_CONTROL_PTR);
 742:Generated_Source\PSoC5/PWM_lw.c ****         return (result);
 743:Generated_Source\PSoC5/PWM_lw.c ****     }
 744:Generated_Source\PSoC5/PWM_lw.c **** 
 745:Generated_Source\PSoC5/PWM_lw.c **** 
 746:Generated_Source\PSoC5/PWM_lw.c ****     /*******************************************************************************
 747:Generated_Source\PSoC5/PWM_lw.c ****     * Function Name: PWM_lw_WriteControlRegister
 748:Generated_Source\PSoC5/PWM_lw.c ****     ********************************************************************************
 749:Generated_Source\PSoC5/PWM_lw.c ****     *
 750:Generated_Source\PSoC5/PWM_lw.c ****     * Summary:
 751:Generated_Source\PSoC5/PWM_lw.c ****     *  Sets the bit field of the control register. This API is available only if
 752:Generated_Source\PSoC5/PWM_lw.c ****     *  the control register is not removed.
 753:Generated_Source\PSoC5/PWM_lw.c ****     *
 754:Generated_Source\PSoC5/PWM_lw.c ****     * Parameters:
 755:Generated_Source\PSoC5/PWM_lw.c ****     *  uint8 control: Control register bit field, The status register bits are:
 756:Generated_Source\PSoC5/PWM_lw.c ****     *  [7]   : PWM Enable
 757:Generated_Source\PSoC5/PWM_lw.c ****     *  [6]   : Reset
 758:Generated_Source\PSoC5/PWM_lw.c ****     *  [5:3] : Compare Mode2
 759:Generated_Source\PSoC5/PWM_lw.c ****     *  [2:0] : Compare Mode2
 760:Generated_Source\PSoC5/PWM_lw.c ****     *
 761:Generated_Source\PSoC5/PWM_lw.c ****     * Return:
 762:Generated_Source\PSoC5/PWM_lw.c ****     *  None
 763:Generated_Source\PSoC5/PWM_lw.c ****     *
 764:Generated_Source\PSoC5/PWM_lw.c ****     *******************************************************************************/
 765:Generated_Source\PSoC5/PWM_lw.c ****     void PWM_lw_WriteControlRegister(uint8 control) 
 766:Generated_Source\PSoC5/PWM_lw.c ****     {
ARM GAS  C:\Users\Zwe\AppData\Local\Temp\ccVTyOTd.s 			page 17


 767:Generated_Source\PSoC5/PWM_lw.c ****         CY_SET_REG8(PWM_lw_CONTROL_PTR, control);
 768:Generated_Source\PSoC5/PWM_lw.c ****     }
 769:Generated_Source\PSoC5/PWM_lw.c **** 
 770:Generated_Source\PSoC5/PWM_lw.c **** #endif /* (PWM_lw_UseControl) */
 771:Generated_Source\PSoC5/PWM_lw.c **** 
 772:Generated_Source\PSoC5/PWM_lw.c **** 
 773:Generated_Source\PSoC5/PWM_lw.c **** #if (!PWM_lw_UsingFixedFunction)
 774:Generated_Source\PSoC5/PWM_lw.c **** 
 775:Generated_Source\PSoC5/PWM_lw.c **** 
 776:Generated_Source\PSoC5/PWM_lw.c ****     /*******************************************************************************
 777:Generated_Source\PSoC5/PWM_lw.c ****     * Function Name: PWM_lw_ReadCapture
 778:Generated_Source\PSoC5/PWM_lw.c ****     ********************************************************************************
 779:Generated_Source\PSoC5/PWM_lw.c ****     *
 780:Generated_Source\PSoC5/PWM_lw.c ****     * Summary:
 781:Generated_Source\PSoC5/PWM_lw.c ****     *  Reads the capture value from the capture FIFO.
 782:Generated_Source\PSoC5/PWM_lw.c ****     *
 783:Generated_Source\PSoC5/PWM_lw.c ****     * Parameters:
 784:Generated_Source\PSoC5/PWM_lw.c ****     *  None
 785:Generated_Source\PSoC5/PWM_lw.c ****     *
 786:Generated_Source\PSoC5/PWM_lw.c ****     * Return:
 787:Generated_Source\PSoC5/PWM_lw.c ****     *  uint8/uint16: The current capture value
 788:Generated_Source\PSoC5/PWM_lw.c ****     *
 789:Generated_Source\PSoC5/PWM_lw.c ****     *******************************************************************************/
 790:Generated_Source\PSoC5/PWM_lw.c ****     uint8 PWM_lw_ReadCapture(void) 
 791:Generated_Source\PSoC5/PWM_lw.c ****     {
 792:Generated_Source\PSoC5/PWM_lw.c ****         return (CY_GET_REG8(PWM_lw_CAPTURE_LSB_PTR));
 147              		.loc 1 792 0
 148 0002 0449     		ldr	r1, .L18+4
 149              	.L14:
 150              	.LBE18:
 151              	.LBE17:
 152              	.LBB20:
 153              	.LBB16:
 713:Generated_Source\PSoC5/PWM_lw.c ****     }
 154              		.loc 1 713 0
 155 0004 1378     		ldrb	r3, [r2]	@ zero_extendqisi2
 156              	.LBE16:
 157              	.LBE20:
 455:Generated_Source\PSoC5/PWM_lw.c ****             while(0u != (PWM_lw_ReadStatusRegister() & PWM_lw_STATUS_FIFONEMPTY))
 158              		.loc 1 455 0
 159 0006 DB06     		lsls	r3, r3, #27
 160 0008 01D5     		bpl	.L17
 161              	.LBB21:
 162              	.LBB19:
 163              		.loc 1 792 0
 164 000a 0B78     		ldrb	r3, [r1]	@ zero_extendqisi2
 165 000c FAE7     		b	.L14
 166              	.L17:
 167              	.LBE19:
 168              	.LBE21:
 459:Generated_Source\PSoC5/PWM_lw.c **** 
 169              		.loc 1 459 0
 170 000e 7047     		bx	lr
 171              	.L19:
 172              		.align	2
 173              	.L18:
 174 0010 69640040 		.word	1073767529
ARM GAS  C:\Users\Zwe\AppData\Local\Temp\ccVTyOTd.s 			page 18


 175 0014 59640040 		.word	1073767513
 176              		.cfi_endproc
 177              	.LFE6:
 178              		.size	PWM_lw_ClearFIFO, .-PWM_lw_ClearFIFO
 179              		.section	.text.PWM_lw_Init,"ax",%progbits
 180              		.align	1
 181              		.global	PWM_lw_Init
 182              		.thumb
 183              		.thumb_func
 184              		.type	PWM_lw_Init, %function
 185              	PWM_lw_Init:
 186              	.LFB1:
  85:Generated_Source\PSoC5/PWM_lw.c ****     #if (PWM_lw_UsingFixedFunction || PWM_lw_UseControl)
 187              		.loc 1 85 0
 188              		.cfi_startproc
 189              		@ args = 0, pretend = 0, frame = 0
 190              		@ frame_needed = 0, uses_anonymous_args = 0
 191 0000 10B5     		push	{r4, lr}
 192              		.cfi_def_cfa_offset 8
 193              		.cfi_offset 4, -8
 194              		.cfi_offset 14, -4
 117:Generated_Source\PSoC5/PWM_lw.c ****                 ((uint8)(~PWM_lw_CTRL_CMPMODE1_MASK));
 195              		.loc 1 117 0
 196 0002 124A     		ldr	r2, .L21
 126:Generated_Source\PSoC5/PWM_lw.c ****         #else /* (PWM_lw_Resolution == 16)*/
 197              		.loc 1 126 0
 198 0004 124C     		ldr	r4, .L21+4
 117:Generated_Source\PSoC5/PWM_lw.c ****                 ((uint8)(~PWM_lw_CTRL_CMPMODE1_MASK));
 199              		.loc 1 117 0
 200 0006 1378     		ldrb	r3, [r2]	@ zero_extendqisi2
 201              	.LVL1:
 202              	.LBB22:
 203              	.LBB23:
 406:Generated_Source\PSoC5/PWM_lw.c ****     }
 204              		.loc 1 406 0
 205 0008 6FF4B671 		mvn	r1, #364
 206              	.LBE23:
 207              	.LBE22:
 119:Generated_Source\PSoC5/PWM_lw.c ****                                    PWM_lw_DEFAULT_COMPARE1_MODE;
 208              		.loc 1 119 0
 209 000c 03F0C003 		and	r3, r3, #192
 210              	.LVL2:
 211 0010 43F00903 		orr	r3, r3, #9
 212 0014 1370     		strb	r3, [r2]
 126:Generated_Source\PSoC5/PWM_lw.c ****         #else /* (PWM_lw_Resolution == 16)*/
 213              		.loc 1 126 0
 214 0016 2378     		ldrb	r3, [r4]	@ zero_extendqisi2
 215              	.LBB26:
 216              	.LBB24:
 406:Generated_Source\PSoC5/PWM_lw.c ****     }
 217              		.loc 1 406 0
 218 0018 0A44     		add	r2, r2, r1
 219              	.LBE24:
 220              	.LBE26:
 126:Generated_Source\PSoC5/PWM_lw.c ****         #else /* (PWM_lw_Resolution == 16)*/
 221              		.loc 1 126 0
 222 001a 43F00103 		orr	r3, r3, #1
ARM GAS  C:\Users\Zwe\AppData\Local\Temp\ccVTyOTd.s 			page 19


 223 001e 2370     		strb	r3, [r4]
 224              	.LVL3:
 225              	.LBB27:
 226              	.LBB25:
 406:Generated_Source\PSoC5/PWM_lw.c ****     }
 227              		.loc 1 406 0
 228 0020 F923     		movs	r3, #249
 229 0022 1370     		strb	r3, [r2]
 230              	.LVL4:
 231              	.LBE25:
 232              	.LBE27:
 233              	.LBB28:
 234              	.LBB29:
 487:Generated_Source\PSoC5/PWM_lw.c ****     #endif /* (PWM_lw_UsingFixedFunction) */
 235              		.loc 1 487 0
 236 0024 82F84030 		strb	r3, [r2, #64]
 237              	.LVL5:
 238              	.LBE29:
 239              	.LBE28:
 240              	.LBB30:
 241              	.LBB31:
 522:Generated_Source\PSoC5/PWM_lw.c ****         #endif /* (PWM_lw_UsingFixedFunction) */
 242              		.loc 1 522 0
 243 0028 0A4B     		ldr	r3, .L21+8
 244 002a 7C22     		movs	r2, #124
 245 002c 1A70     		strb	r2, [r3]
 246              	.LVL6:
 247              	.LBE31:
 248              	.LBE30:
 249              	.LBB32:
 250              	.LBB33:
 686:Generated_Source\PSoC5/PWM_lw.c ****     }
 251              		.loc 1 686 0
 252 002e 0022     		movs	r2, #0
 253 0030 83F86020 		strb	r2, [r3, #96]
 254              	.LVL7:
 255              	.LBE33:
 256              	.LBE32:
 167:Generated_Source\PSoC5/PWM_lw.c ****             /* Use the interrupt output of the status register for IRQ output */
 257              		.loc 1 167 0
 258 0034 FFF7FEFF 		bl	CyEnterCriticalSection
 259              	.LVL8:
 169:Generated_Source\PSoC5/PWM_lw.c **** 
 260              		.loc 1 169 0
 261 0038 2378     		ldrb	r3, [r4]	@ zero_extendqisi2
 262 003a 43F01003 		orr	r3, r3, #16
 263 003e 2370     		strb	r3, [r4]
 172:Generated_Source\PSoC5/PWM_lw.c **** 
 264              		.loc 1 172 0
 265 0040 FFF7FEFF 		bl	CyExitCriticalSection
 266              	.LVL9:
 179:Generated_Source\PSoC5/PWM_lw.c **** 
 267              		.loc 1 179 0
 268 0044 BDE81040 		pop	{r4, lr}
 269              		.cfi_restore 14
 270              		.cfi_restore 4
 271              		.cfi_def_cfa_offset 0
ARM GAS  C:\Users\Zwe\AppData\Local\Temp\ccVTyOTd.s 			page 20


 176:Generated_Source\PSoC5/PWM_lw.c ****         #endif /* (PWM_lw_UseStatus) */
 272              		.loc 1 176 0
 273 0048 FFF7FEBF 		b	PWM_lw_ClearFIFO
 274              	.LVL10:
 275              	.L22:
 276              		.align	2
 277              	.L21:
 278 004c 76650040 		.word	1073767798
 279 0050 99640040 		.word	1073767577
 280 0054 29640040 		.word	1073767465
 281              		.cfi_endproc
 282              	.LFE1:
 283              		.size	PWM_lw_Init, .-PWM_lw_Init
 284              		.section	.text.PWM_lw_Start,"ax",%progbits
 285              		.align	1
 286              		.global	PWM_lw_Start
 287              		.thumb
 288              		.thumb_func
 289              		.type	PWM_lw_Start, %function
 290              	PWM_lw_Start:
 291              	.LFB0:
  56:Generated_Source\PSoC5/PWM_lw.c ****     /* If not Initialized then initialize all required hardware and software */
 292              		.loc 1 56 0
 293              		.cfi_startproc
 294              		@ args = 0, pretend = 0, frame = 0
 295              		@ frame_needed = 0, uses_anonymous_args = 0
 296 0000 10B5     		push	{r4, lr}
 297              		.cfi_def_cfa_offset 8
 298              		.cfi_offset 4, -8
 299              		.cfi_offset 14, -4
  58:Generated_Source\PSoC5/PWM_lw.c ****     {
 300              		.loc 1 58 0
 301 0002 054C     		ldr	r4, .L25
 302 0004 2378     		ldrb	r3, [r4]	@ zero_extendqisi2
 303 0006 1BB9     		cbnz	r3, .L24
  60:Generated_Source\PSoC5/PWM_lw.c ****         PWM_lw_initVar = 1u;
 304              		.loc 1 60 0
 305 0008 FFF7FEFF 		bl	PWM_lw_Init
 306              	.LVL11:
  61:Generated_Source\PSoC5/PWM_lw.c ****     }
 307              		.loc 1 61 0
 308 000c 0123     		movs	r3, #1
 309 000e 2370     		strb	r3, [r4]
 310              	.L24:
  65:Generated_Source\PSoC5/PWM_lw.c **** 
 311              		.loc 1 65 0
 312 0010 BDE81040 		pop	{r4, lr}
 313              		.cfi_restore 14
 314              		.cfi_restore 4
 315              		.cfi_def_cfa_offset 0
  63:Generated_Source\PSoC5/PWM_lw.c **** 
 316              		.loc 1 63 0
 317 0014 FFF7FEBF 		b	PWM_lw_Enable
 318              	.LVL12:
 319              	.L26:
 320              		.align	2
 321              	.L25:
ARM GAS  C:\Users\Zwe\AppData\Local\Temp\ccVTyOTd.s 			page 21


 322 0018 00000000 		.word	.LANCHOR0
 323              		.cfi_endproc
 324              	.LFE0:
 325              		.size	PWM_lw_Start, .-PWM_lw_Start
 326              		.section	.text.PWM_lw_WritePeriod,"ax",%progbits
 327              		.align	1
 328              		.global	PWM_lw_WritePeriod
 329              		.thumb
 330              		.thumb_func
 331              		.type	PWM_lw_WritePeriod, %function
 332              	PWM_lw_WritePeriod:
 333              	.LFB7:
 483:Generated_Source\PSoC5/PWM_lw.c ****     #if(PWM_lw_UsingFixedFunction)
 334              		.loc 1 483 0
 335              		.cfi_startproc
 336              		@ args = 0, pretend = 0, frame = 0
 337              		@ frame_needed = 0, uses_anonymous_args = 0
 338              		@ link register save eliminated.
 339              	.LVL13:
 487:Generated_Source\PSoC5/PWM_lw.c ****     #endif /* (PWM_lw_UsingFixedFunction) */
 340              		.loc 1 487 0
 341 0000 014B     		ldr	r3, .L28
 342 0002 1870     		strb	r0, [r3]
 343 0004 7047     		bx	lr
 344              	.L29:
 345 0006 00BF     		.align	2
 346              	.L28:
 347 0008 49640040 		.word	1073767497
 348              		.cfi_endproc
 349              	.LFE7:
 350              		.size	PWM_lw_WritePeriod, .-PWM_lw_WritePeriod
 351              		.section	.text.PWM_lw_WriteCompare,"ax",%progbits
 352              		.align	1
 353              		.global	PWM_lw_WriteCompare
 354              		.thumb
 355              		.thumb_func
 356              		.type	PWM_lw_WriteCompare, %function
 357              	PWM_lw_WriteCompare:
 358              	.LFB8:
 518:Generated_Source\PSoC5/PWM_lw.c ****         #if(PWM_lw_UsingFixedFunction)
 359              		.loc 1 518 0
 360              		.cfi_startproc
 361              		@ args = 0, pretend = 0, frame = 0
 362              		@ frame_needed = 0, uses_anonymous_args = 0
 363              		@ link register save eliminated.
 364              	.LVL14:
 522:Generated_Source\PSoC5/PWM_lw.c ****         #endif /* (PWM_lw_UsingFixedFunction) */
 365              		.loc 1 522 0
 366 0000 014B     		ldr	r3, .L31
 367 0002 1870     		strb	r0, [r3]
 368 0004 7047     		bx	lr
 369              	.L32:
 370 0006 00BF     		.align	2
 371              	.L31:
 372 0008 29640040 		.word	1073767465
 373              		.cfi_endproc
 374              	.LFE8:
ARM GAS  C:\Users\Zwe\AppData\Local\Temp\ccVTyOTd.s 			page 22


 375              		.size	PWM_lw_WriteCompare, .-PWM_lw_WriteCompare
 376              		.section	.text.PWM_lw_SetInterruptMode,"ax",%progbits
 377              		.align	1
 378              		.global	PWM_lw_SetInterruptMode
 379              		.thumb
 380              		.thumb_func
 381              		.type	PWM_lw_SetInterruptMode, %function
 382              	PWM_lw_SetInterruptMode:
 383              	.LFB9:
 685:Generated_Source\PSoC5/PWM_lw.c ****         CY_SET_REG8(PWM_lw_STATUS_MASK_PTR, interruptMode);
 384              		.loc 1 685 0
 385              		.cfi_startproc
 386              		@ args = 0, pretend = 0, frame = 0
 387              		@ frame_needed = 0, uses_anonymous_args = 0
 388              		@ link register save eliminated.
 389              	.LVL15:
 686:Generated_Source\PSoC5/PWM_lw.c ****     }
 390              		.loc 1 686 0
 391 0000 014B     		ldr	r3, .L34
 392 0002 1870     		strb	r0, [r3]
 393 0004 7047     		bx	lr
 394              	.L35:
 395 0006 00BF     		.align	2
 396              	.L34:
 397 0008 89640040 		.word	1073767561
 398              		.cfi_endproc
 399              	.LFE9:
 400              		.size	PWM_lw_SetInterruptMode, .-PWM_lw_SetInterruptMode
 401              		.section	.text.PWM_lw_ReadStatusRegister,"ax",%progbits
 402              		.align	1
 403              		.global	PWM_lw_ReadStatusRegister
 404              		.thumb
 405              		.thumb_func
 406              		.type	PWM_lw_ReadStatusRegister, %function
 407              	PWM_lw_ReadStatusRegister:
 408              	.LFB10:
 712:Generated_Source\PSoC5/PWM_lw.c ****         return (CY_GET_REG8(PWM_lw_STATUS_PTR));
 409              		.loc 1 712 0
 410              		.cfi_startproc
 411              		@ args = 0, pretend = 0, frame = 0
 412              		@ frame_needed = 0, uses_anonymous_args = 0
 413              		@ link register save eliminated.
 713:Generated_Source\PSoC5/PWM_lw.c ****     }
 414              		.loc 1 713 0
 415 0000 014B     		ldr	r3, .L37
 416 0002 1878     		ldrb	r0, [r3]	@ zero_extendqisi2
 714:Generated_Source\PSoC5/PWM_lw.c **** 
 417              		.loc 1 714 0
 418 0004 7047     		bx	lr
 419              	.L38:
 420 0006 00BF     		.align	2
 421              	.L37:
 422 0008 69640040 		.word	1073767529
 423              		.cfi_endproc
 424              	.LFE10:
 425              		.size	PWM_lw_ReadStatusRegister, .-PWM_lw_ReadStatusRegister
 426              		.section	.text.PWM_lw_ReadControlRegister,"ax",%progbits
ARM GAS  C:\Users\Zwe\AppData\Local\Temp\ccVTyOTd.s 			page 23


 427              		.align	1
 428              		.global	PWM_lw_ReadControlRegister
 429              		.thumb
 430              		.thumb_func
 431              		.type	PWM_lw_ReadControlRegister, %function
 432              	PWM_lw_ReadControlRegister:
 433              	.LFB11:
 738:Generated_Source\PSoC5/PWM_lw.c ****         uint8 result;
 434              		.loc 1 738 0
 435              		.cfi_startproc
 436              		@ args = 0, pretend = 0, frame = 0
 437              		@ frame_needed = 0, uses_anonymous_args = 0
 438              		@ link register save eliminated.
 741:Generated_Source\PSoC5/PWM_lw.c ****         return (result);
 439              		.loc 1 741 0
 440 0000 014B     		ldr	r3, .L40
 441 0002 1878     		ldrb	r0, [r3]	@ zero_extendqisi2
 442              	.LVL16:
 743:Generated_Source\PSoC5/PWM_lw.c **** 
 443              		.loc 1 743 0
 444 0004 7047     		bx	lr
 445              	.L41:
 446 0006 00BF     		.align	2
 447              	.L40:
 448 0008 76650040 		.word	1073767798
 449              		.cfi_endproc
 450              	.LFE11:
 451              		.size	PWM_lw_ReadControlRegister, .-PWM_lw_ReadControlRegister
 452              		.section	.text.PWM_lw_WriteControlRegister,"ax",%progbits
 453              		.align	1
 454              		.global	PWM_lw_WriteControlRegister
 455              		.thumb
 456              		.thumb_func
 457              		.type	PWM_lw_WriteControlRegister, %function
 458              	PWM_lw_WriteControlRegister:
 459              	.LFB12:
 766:Generated_Source\PSoC5/PWM_lw.c ****         CY_SET_REG8(PWM_lw_CONTROL_PTR, control);
 460              		.loc 1 766 0
 461              		.cfi_startproc
 462              		@ args = 0, pretend = 0, frame = 0
 463              		@ frame_needed = 0, uses_anonymous_args = 0
 464              		@ link register save eliminated.
 465              	.LVL17:
 767:Generated_Source\PSoC5/PWM_lw.c ****     }
 466              		.loc 1 767 0
 467 0000 014B     		ldr	r3, .L43
 468 0002 1870     		strb	r0, [r3]
 469 0004 7047     		bx	lr
 470              	.L44:
 471 0006 00BF     		.align	2
 472              	.L43:
 473 0008 76650040 		.word	1073767798
 474              		.cfi_endproc
 475              	.LFE12:
 476              		.size	PWM_lw_WriteControlRegister, .-PWM_lw_WriteControlRegister
 477              		.section	.text.PWM_lw_ReadCapture,"ax",%progbits
 478              		.align	1
ARM GAS  C:\Users\Zwe\AppData\Local\Temp\ccVTyOTd.s 			page 24


 479              		.global	PWM_lw_ReadCapture
 480              		.thumb
 481              		.thumb_func
 482              		.type	PWM_lw_ReadCapture, %function
 483              	PWM_lw_ReadCapture:
 484              	.LFB13:
 791:Generated_Source\PSoC5/PWM_lw.c ****         return (CY_GET_REG8(PWM_lw_CAPTURE_LSB_PTR));
 485              		.loc 1 791 0
 486              		.cfi_startproc
 487              		@ args = 0, pretend = 0, frame = 0
 488              		@ frame_needed = 0, uses_anonymous_args = 0
 489              		@ link register save eliminated.
 490              		.loc 1 792 0
 491 0000 014B     		ldr	r3, .L46
 492 0002 1878     		ldrb	r0, [r3]	@ zero_extendqisi2
 793:Generated_Source\PSoC5/PWM_lw.c ****     }
 493              		.loc 1 793 0
 494 0004 7047     		bx	lr
 495              	.L47:
 496 0006 00BF     		.align	2
 497              	.L46:
 498 0008 59640040 		.word	1073767513
 499              		.cfi_endproc
 500              	.LFE13:
 501              		.size	PWM_lw_ReadCapture, .-PWM_lw_ReadCapture
 502              		.section	.text.PWM_lw_ReadCompare,"ax",%progbits
 503              		.align	1
 504              		.global	PWM_lw_ReadCompare
 505              		.thumb
 506              		.thumb_func
 507              		.type	PWM_lw_ReadCompare, %function
 508              	PWM_lw_ReadCompare:
 509              	.LFB14:
 794:Generated_Source\PSoC5/PWM_lw.c **** 
 795:Generated_Source\PSoC5/PWM_lw.c **** #endif /* (!PWM_lw_UsingFixedFunction) */
 796:Generated_Source\PSoC5/PWM_lw.c **** 
 797:Generated_Source\PSoC5/PWM_lw.c **** 
 798:Generated_Source\PSoC5/PWM_lw.c **** #if (PWM_lw_UseOneCompareMode)
 799:Generated_Source\PSoC5/PWM_lw.c **** 
 800:Generated_Source\PSoC5/PWM_lw.c **** 
 801:Generated_Source\PSoC5/PWM_lw.c ****     /*******************************************************************************
 802:Generated_Source\PSoC5/PWM_lw.c ****     * Function Name: PWM_lw_ReadCompare
 803:Generated_Source\PSoC5/PWM_lw.c ****     ********************************************************************************
 804:Generated_Source\PSoC5/PWM_lw.c ****     *
 805:Generated_Source\PSoC5/PWM_lw.c ****     * Summary:
 806:Generated_Source\PSoC5/PWM_lw.c ****     *  Reads the compare value for the compare output when the PWM Mode parameter is
 807:Generated_Source\PSoC5/PWM_lw.c ****     *  set to Dither mode, Center Aligned mode, or One Output mode.
 808:Generated_Source\PSoC5/PWM_lw.c ****     *
 809:Generated_Source\PSoC5/PWM_lw.c ****     * Parameters:
 810:Generated_Source\PSoC5/PWM_lw.c ****     *  None
 811:Generated_Source\PSoC5/PWM_lw.c ****     *
 812:Generated_Source\PSoC5/PWM_lw.c ****     * Return:
 813:Generated_Source\PSoC5/PWM_lw.c ****     *  uint8/uint16: Current compare value
 814:Generated_Source\PSoC5/PWM_lw.c ****     *
 815:Generated_Source\PSoC5/PWM_lw.c ****     *******************************************************************************/
 816:Generated_Source\PSoC5/PWM_lw.c ****     uint8 PWM_lw_ReadCompare(void) 
 817:Generated_Source\PSoC5/PWM_lw.c ****     {
ARM GAS  C:\Users\Zwe\AppData\Local\Temp\ccVTyOTd.s 			page 25


 510              		.loc 1 817 0
 511              		.cfi_startproc
 512              		@ args = 0, pretend = 0, frame = 0
 513              		@ frame_needed = 0, uses_anonymous_args = 0
 514              		@ link register save eliminated.
 818:Generated_Source\PSoC5/PWM_lw.c ****         #if(PWM_lw_UsingFixedFunction)
 819:Generated_Source\PSoC5/PWM_lw.c ****             return ((uint8)CY_GET_REG16(PWM_lw_COMPARE1_LSB_PTR));
 820:Generated_Source\PSoC5/PWM_lw.c ****         #else
 821:Generated_Source\PSoC5/PWM_lw.c ****             return (CY_GET_REG8(PWM_lw_COMPARE1_LSB_PTR));
 515              		.loc 1 821 0
 516 0000 014B     		ldr	r3, .L49
 517 0002 1878     		ldrb	r0, [r3]	@ zero_extendqisi2
 822:Generated_Source\PSoC5/PWM_lw.c ****         #endif /* (PWM_lw_UsingFixedFunction) */
 823:Generated_Source\PSoC5/PWM_lw.c ****     }
 518              		.loc 1 823 0
 519 0004 7047     		bx	lr
 520              	.L50:
 521 0006 00BF     		.align	2
 522              	.L49:
 523 0008 29640040 		.word	1073767465
 524              		.cfi_endproc
 525              	.LFE14:
 526              		.size	PWM_lw_ReadCompare, .-PWM_lw_ReadCompare
 527              		.section	.text.PWM_lw_ReadPeriod,"ax",%progbits
 528              		.align	1
 529              		.global	PWM_lw_ReadPeriod
 530              		.thumb
 531              		.thumb_func
 532              		.type	PWM_lw_ReadPeriod, %function
 533              	PWM_lw_ReadPeriod:
 534              	.LFB15:
 824:Generated_Source\PSoC5/PWM_lw.c **** 
 825:Generated_Source\PSoC5/PWM_lw.c **** #else
 826:Generated_Source\PSoC5/PWM_lw.c **** 
 827:Generated_Source\PSoC5/PWM_lw.c **** 
 828:Generated_Source\PSoC5/PWM_lw.c ****     /*******************************************************************************
 829:Generated_Source\PSoC5/PWM_lw.c ****     * Function Name: PWM_lw_ReadCompare1
 830:Generated_Source\PSoC5/PWM_lw.c ****     ********************************************************************************
 831:Generated_Source\PSoC5/PWM_lw.c ****     *
 832:Generated_Source\PSoC5/PWM_lw.c ****     * Summary:
 833:Generated_Source\PSoC5/PWM_lw.c ****     *  Reads the compare value for the compare1 output.
 834:Generated_Source\PSoC5/PWM_lw.c ****     *
 835:Generated_Source\PSoC5/PWM_lw.c ****     * Parameters:
 836:Generated_Source\PSoC5/PWM_lw.c ****     *  None
 837:Generated_Source\PSoC5/PWM_lw.c ****     *
 838:Generated_Source\PSoC5/PWM_lw.c ****     * Return:
 839:Generated_Source\PSoC5/PWM_lw.c ****     *  uint8/uint16: Current compare value.
 840:Generated_Source\PSoC5/PWM_lw.c ****     *
 841:Generated_Source\PSoC5/PWM_lw.c ****     *******************************************************************************/
 842:Generated_Source\PSoC5/PWM_lw.c ****     uint8 PWM_lw_ReadCompare1(void) 
 843:Generated_Source\PSoC5/PWM_lw.c ****     {
 844:Generated_Source\PSoC5/PWM_lw.c ****         return (CY_GET_REG8(PWM_lw_COMPARE1_LSB_PTR));
 845:Generated_Source\PSoC5/PWM_lw.c ****     }
 846:Generated_Source\PSoC5/PWM_lw.c **** 
 847:Generated_Source\PSoC5/PWM_lw.c **** 
 848:Generated_Source\PSoC5/PWM_lw.c ****     /*******************************************************************************
 849:Generated_Source\PSoC5/PWM_lw.c ****     * Function Name: PWM_lw_ReadCompare2
ARM GAS  C:\Users\Zwe\AppData\Local\Temp\ccVTyOTd.s 			page 26


 850:Generated_Source\PSoC5/PWM_lw.c ****     ********************************************************************************
 851:Generated_Source\PSoC5/PWM_lw.c ****     *
 852:Generated_Source\PSoC5/PWM_lw.c ****     * Summary:
 853:Generated_Source\PSoC5/PWM_lw.c ****     *  Reads the compare value for the compare2 output.
 854:Generated_Source\PSoC5/PWM_lw.c ****     *
 855:Generated_Source\PSoC5/PWM_lw.c ****     * Parameters:
 856:Generated_Source\PSoC5/PWM_lw.c ****     *  None
 857:Generated_Source\PSoC5/PWM_lw.c ****     *
 858:Generated_Source\PSoC5/PWM_lw.c ****     * Return:
 859:Generated_Source\PSoC5/PWM_lw.c ****     *  uint8/uint16: Current compare value.
 860:Generated_Source\PSoC5/PWM_lw.c ****     *
 861:Generated_Source\PSoC5/PWM_lw.c ****     *******************************************************************************/
 862:Generated_Source\PSoC5/PWM_lw.c ****     uint8 PWM_lw_ReadCompare2(void) 
 863:Generated_Source\PSoC5/PWM_lw.c ****     {
 864:Generated_Source\PSoC5/PWM_lw.c ****         return (CY_GET_REG8(PWM_lw_COMPARE2_LSB_PTR));
 865:Generated_Source\PSoC5/PWM_lw.c ****     }
 866:Generated_Source\PSoC5/PWM_lw.c **** 
 867:Generated_Source\PSoC5/PWM_lw.c **** #endif /* (PWM_lw_UseOneCompareMode) */
 868:Generated_Source\PSoC5/PWM_lw.c **** 
 869:Generated_Source\PSoC5/PWM_lw.c **** 
 870:Generated_Source\PSoC5/PWM_lw.c **** /*******************************************************************************
 871:Generated_Source\PSoC5/PWM_lw.c **** * Function Name: PWM_lw_ReadPeriod
 872:Generated_Source\PSoC5/PWM_lw.c **** ********************************************************************************
 873:Generated_Source\PSoC5/PWM_lw.c **** *
 874:Generated_Source\PSoC5/PWM_lw.c **** * Summary:
 875:Generated_Source\PSoC5/PWM_lw.c **** *  Reads the period value used by the PWM hardware.
 876:Generated_Source\PSoC5/PWM_lw.c **** *
 877:Generated_Source\PSoC5/PWM_lw.c **** * Parameters:
 878:Generated_Source\PSoC5/PWM_lw.c **** *  None
 879:Generated_Source\PSoC5/PWM_lw.c **** *
 880:Generated_Source\PSoC5/PWM_lw.c **** * Return:
 881:Generated_Source\PSoC5/PWM_lw.c **** *  uint8/16: Period value
 882:Generated_Source\PSoC5/PWM_lw.c **** *
 883:Generated_Source\PSoC5/PWM_lw.c **** *******************************************************************************/
 884:Generated_Source\PSoC5/PWM_lw.c **** uint8 PWM_lw_ReadPeriod(void) 
 885:Generated_Source\PSoC5/PWM_lw.c **** {
 535              		.loc 1 885 0
 536              		.cfi_startproc
 537              		@ args = 0, pretend = 0, frame = 0
 538              		@ frame_needed = 0, uses_anonymous_args = 0
 539              		@ link register save eliminated.
 886:Generated_Source\PSoC5/PWM_lw.c ****     #if(PWM_lw_UsingFixedFunction)
 887:Generated_Source\PSoC5/PWM_lw.c ****         return ((uint8)CY_GET_REG16(PWM_lw_PERIOD_LSB_PTR));
 888:Generated_Source\PSoC5/PWM_lw.c ****     #else
 889:Generated_Source\PSoC5/PWM_lw.c ****         return (CY_GET_REG8(PWM_lw_PERIOD_LSB_PTR));
 540              		.loc 1 889 0
 541 0000 014B     		ldr	r3, .L52
 542 0002 1878     		ldrb	r0, [r3]	@ zero_extendqisi2
 890:Generated_Source\PSoC5/PWM_lw.c ****     #endif /* (PWM_lw_UsingFixedFunction) */
 891:Generated_Source\PSoC5/PWM_lw.c **** }
 543              		.loc 1 891 0
 544 0004 7047     		bx	lr
 545              	.L53:
 546 0006 00BF     		.align	2
 547              	.L52:
 548 0008 49640040 		.word	1073767497
 549              		.cfi_endproc
ARM GAS  C:\Users\Zwe\AppData\Local\Temp\ccVTyOTd.s 			page 27


 550              	.LFE15:
 551              		.size	PWM_lw_ReadPeriod, .-PWM_lw_ReadPeriod
 552              		.global	PWM_lw_initVar
 553              		.bss
 554              		.set	.LANCHOR0,. + 0
 555              		.type	PWM_lw_initVar, %object
 556              		.size	PWM_lw_initVar, 1
 557              	PWM_lw_initVar:
 558 0000 00       		.space	1
 559              		.text
 560              	.Letext0:
 561              		.file 2 "Generated_Source\\PSoC5\\cytypes.h"
 562              		.file 3 "Generated_Source\\PSoC5\\CyLib.h"