ARM GAS  C:\Users\Zwe\AppData\Local\Temp\ccR3KbSD.s 			page 1


   1              		.syntax unified
   2              		.cpu cortex-m3
   3              		.fpu softvfp
   4              		.eabi_attribute 20, 1
   5              		.eabi_attribute 21, 1
   6              		.eabi_attribute 23, 3
   7              		.eabi_attribute 24, 1
   8              		.eabi_attribute 25, 1
   9              		.eabi_attribute 26, 1
  10              		.eabi_attribute 30, 4
  11              		.eabi_attribute 34, 1
  12              		.eabi_attribute 18, 4
  13              		.thumb
  14              		.syntax unified
  15              		.file	"Tx.c"
  16              		.text
  17              	.Ltext0:
  18              		.cfi_sections	.debug_frame
  19              		.section	.text.Tx_Init,"ax",%progbits
  20              		.align	1
  21              		.global	Tx_Init
  22              		.thumb
  23              		.thumb_func
  24              		.type	Tx_Init, %function
  25              	Tx_Init:
  26              	.LFB0:
  27              		.file 1 "Generated_Source\\PSoC5\\Tx.c"
   1:Generated_Source\PSoC5/Tx.c **** /*******************************************************************************
   2:Generated_Source\PSoC5/Tx.c **** * File Name: Tx.c
   3:Generated_Source\PSoC5/Tx.c **** * Version 1.0
   4:Generated_Source\PSoC5/Tx.c **** *
   5:Generated_Source\PSoC5/Tx.c **** * Description:
   6:Generated_Source\PSoC5/Tx.c **** *  This file provides source code for the Count7 component's API.
   7:Generated_Source\PSoC5/Tx.c **** *
   8:Generated_Source\PSoC5/Tx.c **** * Note:
   9:Generated_Source\PSoC5/Tx.c **** *
  10:Generated_Source\PSoC5/Tx.c **** ********************************************************************************
  11:Generated_Source\PSoC5/Tx.c **** * Copyright 2013, Cypress Semiconductor Corporation.  All rights reserved.
  12:Generated_Source\PSoC5/Tx.c **** * You may use this file only in accordance with the license, terms, conditions,
  13:Generated_Source\PSoC5/Tx.c **** * disclaimers, and limitations in the end user license agreement accompanying
  14:Generated_Source\PSoC5/Tx.c **** * the software package with which this file was provided.
  15:Generated_Source\PSoC5/Tx.c **** *******************************************************************************/
  16:Generated_Source\PSoC5/Tx.c **** 
  17:Generated_Source\PSoC5/Tx.c **** #include "Tx.h"
  18:Generated_Source\PSoC5/Tx.c **** 
  19:Generated_Source\PSoC5/Tx.c **** uint8 Tx_initVar = 0u;
  20:Generated_Source\PSoC5/Tx.c **** 
  21:Generated_Source\PSoC5/Tx.c **** 
  22:Generated_Source\PSoC5/Tx.c **** /*******************************************************************************
  23:Generated_Source\PSoC5/Tx.c **** * Function Name: Tx_Init
  24:Generated_Source\PSoC5/Tx.c **** ********************************************************************************
  25:Generated_Source\PSoC5/Tx.c **** *
  26:Generated_Source\PSoC5/Tx.c **** * Summary:
  27:Generated_Source\PSoC5/Tx.c **** *  Initializes or restores the component according to the parameter editor
  28:Generated_Source\PSoC5/Tx.c **** *  settings.
  29:Generated_Source\PSoC5/Tx.c **** *
  30:Generated_Source\PSoC5/Tx.c **** * Parameters:
ARM GAS  C:\Users\Zwe\AppData\Local\Temp\ccR3KbSD.s 			page 2


  31:Generated_Source\PSoC5/Tx.c **** *  None
  32:Generated_Source\PSoC5/Tx.c **** *
  33:Generated_Source\PSoC5/Tx.c **** * Return:
  34:Generated_Source\PSoC5/Tx.c **** *  None
  35:Generated_Source\PSoC5/Tx.c **** *
  36:Generated_Source\PSoC5/Tx.c **** * Theory:
  37:Generated_Source\PSoC5/Tx.c **** *  It is not necessary to call Count7_Init() because the Count7_Start() API
  38:Generated_Source\PSoC5/Tx.c **** *  calls this function and is the preferred method to begin component
  39:Generated_Source\PSoC5/Tx.c **** *  operation.
  40:Generated_Source\PSoC5/Tx.c **** *
  41:Generated_Source\PSoC5/Tx.c **** *******************************************************************************/
  42:Generated_Source\PSoC5/Tx.c **** void Tx_Init(void) 
  43:Generated_Source\PSoC5/Tx.c **** {
  28              		.loc 1 43 0
  29              		.cfi_startproc
  30              		@ args = 0, pretend = 0, frame = 0
  31              		@ frame_needed = 0, uses_anonymous_args = 0
  32              		@ link register save eliminated.
  44:Generated_Source\PSoC5/Tx.c ****     /* Set the initial period value from parameter editor */
  45:Generated_Source\PSoC5/Tx.c ****     Tx_PERIOD_REG = Tx_INITIAL_PERIOD;
  33              		.loc 1 45 0
  34 0000 014B     		ldr	r3, .L2
  35 0002 0A22     		movs	r2, #10
  36 0004 1A70     		strb	r2, [r3]
  37 0006 7047     		bx	lr
  38              	.L3:
  39              		.align	2
  40              	.L2:
  41 0008 8A640040 		.word	1073767562
  42              		.cfi_endproc
  43              	.LFE0:
  44              		.size	Tx_Init, .-Tx_Init
  45              		.section	.text.Tx_Enable,"ax",%progbits
  46              		.align	1
  47              		.global	Tx_Enable
  48              		.thumb
  49              		.thumb_func
  50              		.type	Tx_Enable, %function
  51              	Tx_Enable:
  52              	.LFB1:
  46:Generated_Source\PSoC5/Tx.c **** }
  47:Generated_Source\PSoC5/Tx.c **** 
  48:Generated_Source\PSoC5/Tx.c **** 
  49:Generated_Source\PSoC5/Tx.c **** /*******************************************************************************
  50:Generated_Source\PSoC5/Tx.c **** * Function Name: Tx_Enable
  51:Generated_Source\PSoC5/Tx.c **** ********************************************************************************
  52:Generated_Source\PSoC5/Tx.c **** *
  53:Generated_Source\PSoC5/Tx.c **** * Summary:
  54:Generated_Source\PSoC5/Tx.c **** *  Enables the software enable of the counter.
  55:Generated_Source\PSoC5/Tx.c **** *
  56:Generated_Source\PSoC5/Tx.c **** * Parameters:
  57:Generated_Source\PSoC5/Tx.c **** *  None
  58:Generated_Source\PSoC5/Tx.c **** *
  59:Generated_Source\PSoC5/Tx.c **** * Return:
  60:Generated_Source\PSoC5/Tx.c **** *  None
  61:Generated_Source\PSoC5/Tx.c **** *
  62:Generated_Source\PSoC5/Tx.c **** * Theory:
ARM GAS  C:\Users\Zwe\AppData\Local\Temp\ccR3KbSD.s 			page 3


  63:Generated_Source\PSoC5/Tx.c **** *  It is not necessary to call Count7_Enable() because the Count7_Start() API
  64:Generated_Source\PSoC5/Tx.c **** *  calls this function, which is the preferred method to begin component
  65:Generated_Source\PSoC5/Tx.c **** *  operation.
  66:Generated_Source\PSoC5/Tx.c **** *  This API performs modification of auxiliary control register which is a
  67:Generated_Source\PSoC5/Tx.c **** *  shared resource so it is required to disable interrupts until the
  68:Generated_Source\PSoC5/Tx.c **** *  modification will complete.
  69:Generated_Source\PSoC5/Tx.c **** *
  70:Generated_Source\PSoC5/Tx.c **** *******************************************************************************/
  71:Generated_Source\PSoC5/Tx.c **** void Tx_Enable(void) 
  72:Generated_Source\PSoC5/Tx.c **** {
  53              		.loc 1 72 0
  54              		.cfi_startproc
  55              		@ args = 0, pretend = 0, frame = 0
  56              		@ frame_needed = 0, uses_anonymous_args = 0
  57 0000 08B5     		push	{r3, lr}
  58              		.cfi_def_cfa_offset 8
  59              		.cfi_offset 3, -8
  60              		.cfi_offset 14, -4
  73:Generated_Source\PSoC5/Tx.c ****     uint8 interruptState;
  74:Generated_Source\PSoC5/Tx.c **** 
  75:Generated_Source\PSoC5/Tx.c ****     interruptState = CyEnterCriticalSection();
  61              		.loc 1 75 0
  62 0002 FFF7FEFF 		bl	CyEnterCriticalSection
  63              	.LVL0:
  76:Generated_Source\PSoC5/Tx.c ****     /* Set the counter start bit in auxiliary control. If routed enable
  77:Generated_Source\PSoC5/Tx.c ****     * isn't used then this will immediately star the Count7 operation.
  78:Generated_Source\PSoC5/Tx.c ****     */
  79:Generated_Source\PSoC5/Tx.c ****     Tx_AUX_CONTROL_REG |= Tx_COUNTER_START;
  64              		.loc 1 79 0
  65 0006 044A     		ldr	r2, .L5
  66 0008 1378     		ldrb	r3, [r2]	@ zero_extendqisi2
  67 000a 43F02003 		orr	r3, r3, #32
  68 000e 1370     		strb	r3, [r2]
  80:Generated_Source\PSoC5/Tx.c **** 
  81:Generated_Source\PSoC5/Tx.c ****     CyExitCriticalSection(interruptState);
  82:Generated_Source\PSoC5/Tx.c **** }
  69              		.loc 1 82 0
  70 0010 BDE80840 		pop	{r3, lr}
  71              		.cfi_restore 14
  72              		.cfi_restore 3
  73              		.cfi_def_cfa_offset 0
  81:Generated_Source\PSoC5/Tx.c **** }
  74              		.loc 1 81 0
  75 0014 FFF7FEBF 		b	CyExitCriticalSection
  76              	.LVL1:
  77              	.L6:
  78              		.align	2
  79              	.L5:
  80 0018 9A640040 		.word	1073767578
  81              		.cfi_endproc
  82              	.LFE1:
  83              		.size	Tx_Enable, .-Tx_Enable
  84              		.section	.text.Tx_Start,"ax",%progbits
  85              		.align	1
  86              		.global	Tx_Start
  87              		.thumb
  88              		.thumb_func
ARM GAS  C:\Users\Zwe\AppData\Local\Temp\ccR3KbSD.s 			page 4


  89              		.type	Tx_Start, %function
  90              	Tx_Start:
  91              	.LFB2:
  83:Generated_Source\PSoC5/Tx.c **** 
  84:Generated_Source\PSoC5/Tx.c **** 
  85:Generated_Source\PSoC5/Tx.c **** /*******************************************************************************
  86:Generated_Source\PSoC5/Tx.c **** * Function Name: Tx_Start
  87:Generated_Source\PSoC5/Tx.c **** ********************************************************************************
  88:Generated_Source\PSoC5/Tx.c **** *
  89:Generated_Source\PSoC5/Tx.c **** * Summary:
  90:Generated_Source\PSoC5/Tx.c **** *  Performs all of the required initialization for the component and enables
  91:Generated_Source\PSoC5/Tx.c **** *  the counter. The first time the routine is executed, the period is set as
  92:Generated_Source\PSoC5/Tx.c **** *  configured in the customizer. When called to restart the counter following a
  93:Generated_Source\PSoC5/Tx.c **** *  Count7_Stop() call, the current period value is retained.
  94:Generated_Source\PSoC5/Tx.c **** *
  95:Generated_Source\PSoC5/Tx.c **** * Parameters:
  96:Generated_Source\PSoC5/Tx.c **** *  None.
  97:Generated_Source\PSoC5/Tx.c **** *
  98:Generated_Source\PSoC5/Tx.c **** * Global Variables:
  99:Generated_Source\PSoC5/Tx.c **** *  Tx_initVar - global variable.
 100:Generated_Source\PSoC5/Tx.c **** *
 101:Generated_Source\PSoC5/Tx.c **** * Return:
 102:Generated_Source\PSoC5/Tx.c **** *  None.
 103:Generated_Source\PSoC5/Tx.c **** *
 104:Generated_Source\PSoC5/Tx.c **** *******************************************************************************/
 105:Generated_Source\PSoC5/Tx.c **** void Tx_Start(void) 
 106:Generated_Source\PSoC5/Tx.c **** {
  92              		.loc 1 106 0
  93              		.cfi_startproc
  94              		@ args = 0, pretend = 0, frame = 0
  95              		@ frame_needed = 0, uses_anonymous_args = 0
  96              		@ link register save eliminated.
 107:Generated_Source\PSoC5/Tx.c ****     /* If not initialized then perform initialization */
 108:Generated_Source\PSoC5/Tx.c ****     if(Tx_initVar == 0u)
  97              		.loc 1 108 0
  98 0000 044B     		ldr	r3, .L10
  99 0002 1A78     		ldrb	r2, [r3]	@ zero_extendqisi2
 100 0004 22B9     		cbnz	r2, .L8
 101              	.LBB4:
 102              	.LBB5:
  45:Generated_Source\PSoC5/Tx.c **** }
 103              		.loc 1 45 0
 104 0006 044A     		ldr	r2, .L10+4
 105 0008 0A21     		movs	r1, #10
 106 000a 1170     		strb	r1, [r2]
 107              	.LBE5:
 108              	.LBE4:
 109:Generated_Source\PSoC5/Tx.c ****     {
 110:Generated_Source\PSoC5/Tx.c ****         Tx_Init();
 111:Generated_Source\PSoC5/Tx.c ****         Tx_initVar = 1u;
 109              		.loc 1 111 0
 110 000c 0122     		movs	r2, #1
 111 000e 1A70     		strb	r2, [r3]
 112              	.L8:
 112:Generated_Source\PSoC5/Tx.c ****     }
 113:Generated_Source\PSoC5/Tx.c **** 
 114:Generated_Source\PSoC5/Tx.c ****     /* Enable Count7 */
ARM GAS  C:\Users\Zwe\AppData\Local\Temp\ccR3KbSD.s 			page 5


 115:Generated_Source\PSoC5/Tx.c ****     Tx_Enable();
 113              		.loc 1 115 0
 114 0010 FFF7FEBF 		b	Tx_Enable
 115              	.LVL2:
 116              	.L11:
 117              		.align	2
 118              	.L10:
 119 0014 00000000 		.word	.LANCHOR0
 120 0018 8A640040 		.word	1073767562
 121              		.cfi_endproc
 122              	.LFE2:
 123              		.size	Tx_Start, .-Tx_Start
 124              		.section	.text.Tx_Stop,"ax",%progbits
 125              		.align	1
 126              		.global	Tx_Stop
 127              		.thumb
 128              		.thumb_func
 129              		.type	Tx_Stop, %function
 130              	Tx_Stop:
 131              	.LFB3:
 116:Generated_Source\PSoC5/Tx.c **** }
 117:Generated_Source\PSoC5/Tx.c **** 
 118:Generated_Source\PSoC5/Tx.c **** 
 119:Generated_Source\PSoC5/Tx.c **** /*******************************************************************************
 120:Generated_Source\PSoC5/Tx.c **** * Function Name: Tx_Stop
 121:Generated_Source\PSoC5/Tx.c **** ********************************************************************************
 122:Generated_Source\PSoC5/Tx.c **** *
 123:Generated_Source\PSoC5/Tx.c **** * Summary:
 124:Generated_Source\PSoC5/Tx.c **** *  Disables the software enable of the counter.
 125:Generated_Source\PSoC5/Tx.c **** *
 126:Generated_Source\PSoC5/Tx.c **** * Parameters:
 127:Generated_Source\PSoC5/Tx.c **** *  None
 128:Generated_Source\PSoC5/Tx.c **** *
 129:Generated_Source\PSoC5/Tx.c **** * Return:
 130:Generated_Source\PSoC5/Tx.c **** *  None
 131:Generated_Source\PSoC5/Tx.c **** *
 132:Generated_Source\PSoC5/Tx.c **** *******************************************************************************/
 133:Generated_Source\PSoC5/Tx.c **** void Tx_Stop(void) 
 134:Generated_Source\PSoC5/Tx.c **** {
 132              		.loc 1 134 0
 133              		.cfi_startproc
 134              		@ args = 0, pretend = 0, frame = 0
 135              		@ frame_needed = 0, uses_anonymous_args = 0
 136 0000 08B5     		push	{r3, lr}
 137              		.cfi_def_cfa_offset 8
 138              		.cfi_offset 3, -8
 139              		.cfi_offset 14, -4
 135:Generated_Source\PSoC5/Tx.c ****     uint8 interruptState;
 136:Generated_Source\PSoC5/Tx.c **** 
 137:Generated_Source\PSoC5/Tx.c ****     interruptState = CyEnterCriticalSection();
 140              		.loc 1 137 0
 141 0002 FFF7FEFF 		bl	CyEnterCriticalSection
 142              	.LVL3:
 138:Generated_Source\PSoC5/Tx.c ****     /* Clear the counter start bit in auxiliary control. */
 139:Generated_Source\PSoC5/Tx.c ****     Tx_AUX_CONTROL_REG &= (uint8) ~((uint8) Tx_COUNTER_START);
 143              		.loc 1 139 0
 144 0006 044A     		ldr	r2, .L13
ARM GAS  C:\Users\Zwe\AppData\Local\Temp\ccR3KbSD.s 			page 6


 145 0008 1378     		ldrb	r3, [r2]	@ zero_extendqisi2
 146 000a 03F0DF03 		and	r3, r3, #223
 147 000e 1370     		strb	r3, [r2]
 140:Generated_Source\PSoC5/Tx.c **** 
 141:Generated_Source\PSoC5/Tx.c ****     CyExitCriticalSection(interruptState);
 142:Generated_Source\PSoC5/Tx.c **** }
 148              		.loc 1 142 0
 149 0010 BDE80840 		pop	{r3, lr}
 150              		.cfi_restore 14
 151              		.cfi_restore 3
 152              		.cfi_def_cfa_offset 0
 141:Generated_Source\PSoC5/Tx.c **** }
 153              		.loc 1 141 0
 154 0014 FFF7FEBF 		b	CyExitCriticalSection
 155              	.LVL4:
 156              	.L14:
 157              		.align	2
 158              	.L13:
 159 0018 9A640040 		.word	1073767578
 160              		.cfi_endproc
 161              	.LFE3:
 162              		.size	Tx_Stop, .-Tx_Stop
 163              		.section	.text.Tx_WriteCounter,"ax",%progbits
 164              		.align	1
 165              		.global	Tx_WriteCounter
 166              		.thumb
 167              		.thumb_func
 168              		.type	Tx_WriteCounter, %function
 169              	Tx_WriteCounter:
 170              	.LFB4:
 143:Generated_Source\PSoC5/Tx.c **** 
 144:Generated_Source\PSoC5/Tx.c **** 
 145:Generated_Source\PSoC5/Tx.c **** /*******************************************************************************
 146:Generated_Source\PSoC5/Tx.c **** * Function Name: Tx_WriteCounter
 147:Generated_Source\PSoC5/Tx.c **** ********************************************************************************
 148:Generated_Source\PSoC5/Tx.c **** *
 149:Generated_Source\PSoC5/Tx.c **** * Summary:
 150:Generated_Source\PSoC5/Tx.c **** *  This function writes the counter directly. The counter should be disabled
 151:Generated_Source\PSoC5/Tx.c **** *  before calling this function.
 152:Generated_Source\PSoC5/Tx.c **** *
 153:Generated_Source\PSoC5/Tx.c **** * Parameters:
 154:Generated_Source\PSoC5/Tx.c **** *  count - Value to be written to counter.
 155:Generated_Source\PSoC5/Tx.c **** *
 156:Generated_Source\PSoC5/Tx.c **** * Return:
 157:Generated_Source\PSoC5/Tx.c **** *  None
 158:Generated_Source\PSoC5/Tx.c **** *
 159:Generated_Source\PSoC5/Tx.c **** *******************************************************************************/
 160:Generated_Source\PSoC5/Tx.c **** void Tx_WriteCounter(uint8 count) 
 161:Generated_Source\PSoC5/Tx.c **** {
 171              		.loc 1 161 0
 172              		.cfi_startproc
 173              		@ args = 0, pretend = 0, frame = 0
 174              		@ frame_needed = 0, uses_anonymous_args = 0
 175              		@ link register save eliminated.
 176              	.LVL5:
 162:Generated_Source\PSoC5/Tx.c ****     Tx_COUNT_REG = (count & Tx_COUNT_7BIT_MASK);
 177              		.loc 1 162 0
ARM GAS  C:\Users\Zwe\AppData\Local\Temp\ccR3KbSD.s 			page 7


 178 0000 024B     		ldr	r3, .L16
 179 0002 00F07F00 		and	r0, r0, #127
 180              	.LVL6:
 181 0006 1870     		strb	r0, [r3]
 182 0008 7047     		bx	lr
 183              	.L17:
 184 000a 00BF     		.align	2
 185              	.L16:
 186 000c 7A640040 		.word	1073767546
 187              		.cfi_endproc
 188              	.LFE4:
 189              		.size	Tx_WriteCounter, .-Tx_WriteCounter
 190              		.section	.text.Tx_ReadCounter,"ax",%progbits
 191              		.align	1
 192              		.global	Tx_ReadCounter
 193              		.thumb
 194              		.thumb_func
 195              		.type	Tx_ReadCounter, %function
 196              	Tx_ReadCounter:
 197              	.LFB5:
 163:Generated_Source\PSoC5/Tx.c **** }
 164:Generated_Source\PSoC5/Tx.c **** 
 165:Generated_Source\PSoC5/Tx.c **** 
 166:Generated_Source\PSoC5/Tx.c **** /*******************************************************************************
 167:Generated_Source\PSoC5/Tx.c **** * Function Name: Tx_ReadCounter
 168:Generated_Source\PSoC5/Tx.c **** ********************************************************************************
 169:Generated_Source\PSoC5/Tx.c **** *
 170:Generated_Source\PSoC5/Tx.c **** * Summary:
 171:Generated_Source\PSoC5/Tx.c **** *  This function reads the counter value.
 172:Generated_Source\PSoC5/Tx.c **** *
 173:Generated_Source\PSoC5/Tx.c **** * Parameters:
 174:Generated_Source\PSoC5/Tx.c **** *  None
 175:Generated_Source\PSoC5/Tx.c **** *
 176:Generated_Source\PSoC5/Tx.c **** * Return:
 177:Generated_Source\PSoC5/Tx.c **** *  None
 178:Generated_Source\PSoC5/Tx.c **** *
 179:Generated_Source\PSoC5/Tx.c **** *******************************************************************************/
 180:Generated_Source\PSoC5/Tx.c **** uint8 Tx_ReadCounter(void) 
 181:Generated_Source\PSoC5/Tx.c **** {
 198              		.loc 1 181 0
 199              		.cfi_startproc
 200              		@ args = 0, pretend = 0, frame = 0
 201              		@ frame_needed = 0, uses_anonymous_args = 0
 202              		@ link register save eliminated.
 182:Generated_Source\PSoC5/Tx.c ****     return(Tx_COUNT_REG & Tx_COUNT_7BIT_MASK);
 203              		.loc 1 182 0
 204 0000 024B     		ldr	r3, .L19
 205 0002 1878     		ldrb	r0, [r3]	@ zero_extendqisi2
 183:Generated_Source\PSoC5/Tx.c **** }
 206              		.loc 1 183 0
 207 0004 00F07F00 		and	r0, r0, #127
 208 0008 7047     		bx	lr
 209              	.L20:
 210 000a 00BF     		.align	2
 211              	.L19:
 212 000c 7A640040 		.word	1073767546
 213              		.cfi_endproc
ARM GAS  C:\Users\Zwe\AppData\Local\Temp\ccR3KbSD.s 			page 8


 214              	.LFE5:
 215              		.size	Tx_ReadCounter, .-Tx_ReadCounter
 216              		.section	.text.Tx_WritePeriod,"ax",%progbits
 217              		.align	1
 218              		.global	Tx_WritePeriod
 219              		.thumb
 220              		.thumb_func
 221              		.type	Tx_WritePeriod, %function
 222              	Tx_WritePeriod:
 223              	.LFB6:
 184:Generated_Source\PSoC5/Tx.c **** 
 185:Generated_Source\PSoC5/Tx.c **** 
 186:Generated_Source\PSoC5/Tx.c **** /*******************************************************************************
 187:Generated_Source\PSoC5/Tx.c **** * Function Name: Tx_WritePeriod
 188:Generated_Source\PSoC5/Tx.c **** ********************************************************************************
 189:Generated_Source\PSoC5/Tx.c **** *
 190:Generated_Source\PSoC5/Tx.c **** * Summary:
 191:Generated_Source\PSoC5/Tx.c **** *  This function writes the period register. The actual period is one greater
 192:Generated_Source\PSoC5/Tx.c **** *  than the value in the period register since the counting sequence starts
 193:Generated_Source\PSoC5/Tx.c **** *  with the period register and counts down to 0 inclusive. The period of the
 194:Generated_Source\PSoC5/Tx.c **** *  counter output does not change until the counter is reloaded following the
 195:Generated_Source\PSoC5/Tx.c **** *  terminal count value of 0 or due to a hardware load signal.
 196:Generated_Source\PSoC5/Tx.c **** *
 197:Generated_Source\PSoC5/Tx.c **** * Parameters:
 198:Generated_Source\PSoC5/Tx.c **** *  period - Period value to be written.
 199:Generated_Source\PSoC5/Tx.c **** *
 200:Generated_Source\PSoC5/Tx.c **** * Return:
 201:Generated_Source\PSoC5/Tx.c **** *  None
 202:Generated_Source\PSoC5/Tx.c **** *
 203:Generated_Source\PSoC5/Tx.c **** *******************************************************************************/
 204:Generated_Source\PSoC5/Tx.c **** void Tx_WritePeriod(uint8 period) 
 205:Generated_Source\PSoC5/Tx.c **** {
 224              		.loc 1 205 0
 225              		.cfi_startproc
 226              		@ args = 0, pretend = 0, frame = 0
 227              		@ frame_needed = 0, uses_anonymous_args = 0
 228              		@ link register save eliminated.
 229              	.LVL7:
 206:Generated_Source\PSoC5/Tx.c ****     Tx_PERIOD_REG = period;
 230              		.loc 1 206 0
 231 0000 014B     		ldr	r3, .L22
 232 0002 1870     		strb	r0, [r3]
 233 0004 7047     		bx	lr
 234              	.L23:
 235 0006 00BF     		.align	2
 236              	.L22:
 237 0008 8A640040 		.word	1073767562
 238              		.cfi_endproc
 239              	.LFE6:
 240              		.size	Tx_WritePeriod, .-Tx_WritePeriod
 241              		.section	.text.Tx_ReadPeriod,"ax",%progbits
 242              		.align	1
 243              		.global	Tx_ReadPeriod
 244              		.thumb
 245              		.thumb_func
 246              		.type	Tx_ReadPeriod, %function
 247              	Tx_ReadPeriod:
ARM GAS  C:\Users\Zwe\AppData\Local\Temp\ccR3KbSD.s 			page 9


 248              	.LFB7:
 207:Generated_Source\PSoC5/Tx.c **** }
 208:Generated_Source\PSoC5/Tx.c **** 
 209:Generated_Source\PSoC5/Tx.c **** 
 210:Generated_Source\PSoC5/Tx.c **** /*******************************************************************************
 211:Generated_Source\PSoC5/Tx.c **** * Function Name: Tx_ReadPeriod
 212:Generated_Source\PSoC5/Tx.c **** ********************************************************************************
 213:Generated_Source\PSoC5/Tx.c **** *
 214:Generated_Source\PSoC5/Tx.c **** * Summary:
 215:Generated_Source\PSoC5/Tx.c **** *  This function reads the period register.
 216:Generated_Source\PSoC5/Tx.c **** *
 217:Generated_Source\PSoC5/Tx.c **** * Parameters:
 218:Generated_Source\PSoC5/Tx.c **** *  None
 219:Generated_Source\PSoC5/Tx.c **** *
 220:Generated_Source\PSoC5/Tx.c **** * Return:
 221:Generated_Source\PSoC5/Tx.c **** *  uint8 - Current period value.
 222:Generated_Source\PSoC5/Tx.c **** *
 223:Generated_Source\PSoC5/Tx.c **** *******************************************************************************/
 224:Generated_Source\PSoC5/Tx.c **** uint8 Tx_ReadPeriod(void) 
 225:Generated_Source\PSoC5/Tx.c **** {
 249              		.loc 1 225 0
 250              		.cfi_startproc
 251              		@ args = 0, pretend = 0, frame = 0
 252              		@ frame_needed = 0, uses_anonymous_args = 0
 253              		@ link register save eliminated.
 226:Generated_Source\PSoC5/Tx.c ****     return(Tx_PERIOD_REG);
 254              		.loc 1 226 0
 255 0000 014B     		ldr	r3, .L25
 256 0002 1878     		ldrb	r0, [r3]	@ zero_extendqisi2
 227:Generated_Source\PSoC5/Tx.c **** }
 257              		.loc 1 227 0
 258 0004 7047     		bx	lr
 259              	.L26:
 260 0006 00BF     		.align	2
 261              	.L25:
 262 0008 8A640040 		.word	1073767562
 263              		.cfi_endproc
 264              	.LFE7:
 265              		.size	Tx_ReadPeriod, .-Tx_ReadPeriod
 266              		.global	Tx_initVar
 267              		.bss
 268              		.set	.LANCHOR0,. + 0
 269              		.type	Tx_initVar, %object
 270              		.size	Tx_initVar, 1
 271              	Tx_initVar:
 272 0000 00       		.space	1
 273              		.text
 274              	.Letext0:
 275              		.file 2 "Generated_Source\\PSoC5\\cytypes.h"
 276              		.file 3 "Generated_Source\\PSoC5\\CyLib.h"