ARM GAS  C:\Users\Zwe\AppData\Local\Temp\cceFEHnt.s 			page 1


   1              		.syntax unified
   2              		.cpu cortex-m3
   3              		.fpu softvfp
   4              		.eabi_attribute 20, 1
   5              		.eabi_attribute 21, 1
   6              		.eabi_attribute 23, 3
   7              		.eabi_attribute 24, 1
   8              		.eabi_attribute 25, 1
   9              		.eabi_attribute 26, 1
  10              		.eabi_attribute 30, 4
  11              		.eabi_attribute 34, 1
  12              		.eabi_attribute 18, 4
  13              		.thumb
  14              		.syntax unified
  15              		.file	"ultrasonic.c"
  16              		.text
  17              	.Ltext0:
  18              		.cfi_sections	.debug_frame
  19              		.global	__aeabi_f2d
  20              		.global	__aeabi_fcmplt
  21              		.section	.text.Timer_1_ISR_Handler,"ax",%progbits
  22              		.align	1
  23              		.global	Timer_1_ISR_Handler
  24              		.thumb
  25              		.thumb_func
  26              		.type	Timer_1_ISR_Handler, %function
  27              	Timer_1_ISR_Handler:
  28              	.LFB64:
  29              		.file 1 "ultrasonic.c"
   1:ultrasonic.c  **** #include "header.h"
   2:ultrasonic.c  **** #include <math.h>
   3:ultrasonic.c  **** #include "stdlib.h"
   4:ultrasonic.c  **** 
   5:ultrasonic.c  **** 
   6:ultrasonic.c  **** uint16 count = 0;
   7:ultrasonic.c  **** float distance = 0;
   8:ultrasonic.c  **** char distance_str[100];
   9:ultrasonic.c  **** float jaja = 23.0;
  10:ultrasonic.c  **** int obst_detect = 0;
  11:ultrasonic.c  **** 
  12:ultrasonic.c  **** CY_ISR(Timer_1_ISR_Handler){
  30              		.loc 1 12 0
  31              		.cfi_startproc
  32              		@ args = 0, pretend = 0, frame = 0
  33              		@ frame_needed = 0, uses_anonymous_args = 0
  34 0000 10B5     		push	{r4, lr}
  35              		.cfi_def_cfa_offset 8
  36              		.cfi_offset 4, -8
  37              		.cfi_offset 14, -4
  13:ultrasonic.c  ****     Timer_1_ReadStatusRegister(); //Clears interrupt and stop interrupts from firing successively
  38              		.loc 1 13 0
  39 0002 FFF7FEFF 		bl	Timer_1_ReadStatusRegister
  40              	.LVL0:
  14:ultrasonic.c  ****     count = Timer_1_ReadCounter();//    distance = (65535 - count)/58;
  41              		.loc 1 14 0
  42 0006 FFF7FEFF 		bl	Timer_1_ReadCounter
  43              	.LVL1:
ARM GAS  C:\Users\Zwe\AppData\Local\Temp\cceFEHnt.s 			page 2


  44 000a 124C     		ldr	r4, .L7
  45 000c 2080     		strh	r0, [r4]	@ movhi
  15:ultrasonic.c  ****     
  16:ultrasonic.c  ****     sprintf(distance_str,"The distance is %.3f centimeters.",distance);
  46              		.loc 1 16 0
  47 000e 6068     		ldr	r0, [r4, #4]	@ float
  48 0010 FFF7FEFF 		bl	__aeabi_f2d
  49              	.LVL2:
  50 0014 0246     		mov	r2, r0
  51 0016 0B46     		mov	r3, r1
  52 0018 0F48     		ldr	r0, .L7+4
  53 001a 1049     		ldr	r1, .L7+8
  54 001c FFF7FEFF 		bl	sprintf
  55              	.LVL3:
  17:ultrasonic.c  ****     
  18:ultrasonic.c  ****     UART_1_PutString(distance_str);
  56              		.loc 1 18 0
  57 0020 0D48     		ldr	r0, .L7+4
  58 0022 FFF7FEFF 		bl	UART_1_PutString
  59              	.LVL4:
  19:ultrasonic.c  ****     UART_1_PutString("\n");
  60              		.loc 1 19 0
  61 0026 0E48     		ldr	r0, .L7+12
  62 0028 FFF7FEFF 		bl	UART_1_PutString
  63              	.LVL5:
  20:ultrasonic.c  ****     if(distance < 3.0){
  64              		.loc 1 20 0
  65 002c 0D49     		ldr	r1, .L7+16
  66 002e 6068     		ldr	r0, [r4, #4]	@ float
  67 0030 FFF7FEFF 		bl	__aeabi_fcmplt
  68              	.LVL6:
  69 0034 48B1     		cbz	r0, .L5
  21:ultrasonic.c  ****         LED_Write(1);
  70              		.loc 1 21 0
  71 0036 0120     		movs	r0, #1
  72 0038 FFF7FEFF 		bl	LED_Write
  73              	.LVL7:
  22:ultrasonic.c  ****         obst_detect = 1;
  74              		.loc 1 22 0
  75 003c 0123     		movs	r3, #1
  76 003e A360     		str	r3, [r4, #8]
  23:ultrasonic.c  ****         Control_Reg_1_Write(0); //stop the motor
  77              		.loc 1 23 0
  78 0040 0020     		movs	r0, #0
  24:ultrasonic.c  ****     }
  25:ultrasonic.c  ****        else{
  26:ultrasonic.c  ****         LED_Write(0);
  27:ultrasonic.c  ****     }
  28:ultrasonic.c  ****         
  29:ultrasonic.c  ****     
  30:ultrasonic.c  **** }
  79              		.loc 1 30 0
  80 0042 BDE81040 		pop	{r4, lr}
  81              		.cfi_remember_state
  82              		.cfi_restore 14
  83              		.cfi_restore 4
  84              		.cfi_def_cfa_offset 0
ARM GAS  C:\Users\Zwe\AppData\Local\Temp\cceFEHnt.s 			page 3


  23:ultrasonic.c  ****         Control_Reg_1_Write(0); //stop the motor
  85              		.loc 1 23 0
  86 0046 FFF7FEBF 		b	Control_Reg_1_Write
  87              	.LVL8:
  88              	.L5:
  89              		.cfi_restore_state
  90              		.loc 1 30 0
  91 004a BDE81040 		pop	{r4, lr}
  92              		.cfi_restore 14
  93              		.cfi_restore 4
  94              		.cfi_def_cfa_offset 0
  26:ultrasonic.c  ****     }
  95              		.loc 1 26 0
  96 004e FFF7FEBF 		b	LED_Write
  97              	.LVL9:
  98              	.L8:
  99 0052 00BF     		.align	2
 100              	.L7:
 101 0054 00000000 		.word	.LANCHOR0
 102 0058 00000000 		.word	distance_str
 103 005c 00000000 		.word	.LC0
 104 0060 22000000 		.word	.LC1
 105 0064 00004040 		.word	1077936128
 106              		.cfi_endproc
 107              	.LFE64:
 108              		.size	Timer_1_ISR_Handler, .-Timer_1_ISR_Handler
 109              		.section	.text.Sense,"ax",%progbits
 110              		.align	1
 111              		.global	Sense
 112              		.thumb
 113              		.thumb_func
 114              		.type	Sense, %function
 115              	Sense:
 116              	.LFB65:
  31:ultrasonic.c  **** 
  32:ultrasonic.c  **** void Sense()
  33:ultrasonic.c  **** {
 117              		.loc 1 33 0
 118              		.cfi_startproc
 119              		@ args = 0, pretend = 0, frame = 0
 120              		@ frame_needed = 0, uses_anonymous_args = 0
 121 0000 38B5     		push	{r3, r4, r5, lr}
 122              		.cfi_def_cfa_offset 16
 123              		.cfi_offset 3, -16
 124              		.cfi_offset 4, -12
 125              		.cfi_offset 5, -8
 126              		.cfi_offset 14, -4
  34:ultrasonic.c  ****     while(!obst_detect){
 127              		.loc 1 34 0
 128 0002 0B4D     		ldr	r5, .L16
 129              	.L10:
 130 0004 AB68     		ldr	r3, [r5, #8]
 131 0006 8BB9     		cbnz	r3, .L14
 132              	.L12:
  35:ultrasonic.c  ****         while(Echo_Pin_Read() == 0){
 133              		.loc 1 35 0
 134 0008 FFF7FEFF 		bl	Echo_Pin_Read
ARM GAS  C:\Users\Zwe\AppData\Local\Temp\cceFEHnt.s 			page 4


 135              	.LVL10:
 136 000c 0446     		mov	r4, r0
 137 000e 48B9     		cbnz	r0, .L15
  36:ultrasonic.c  ****                Trigger_Write(1);
 138              		.loc 1 36 0
 139 0010 0120     		movs	r0, #1
 140 0012 FFF7FEFF 		bl	Trigger_Write
 141              	.LVL11:
  37:ultrasonic.c  ****                CyDelayUs(10);
 142              		.loc 1 37 0
 143 0016 0A20     		movs	r0, #10
 144 0018 FFF7FEFF 		bl	CyDelayUs
 145              	.LVL12:
  38:ultrasonic.c  ****                Trigger_Write(0);
 146              		.loc 1 38 0
 147 001c 2046     		mov	r0, r4
 148 001e FFF7FEFF 		bl	Trigger_Write
 149              	.LVL13:
 150 0022 F1E7     		b	.L12
 151              	.L15:
  39:ultrasonic.c  ****                
  40:ultrasonic.c  ****         }
  41:ultrasonic.c  ****      CyDelay(100);
 152              		.loc 1 41 0
 153 0024 6420     		movs	r0, #100
 154 0026 FFF7FEFF 		bl	CyDelay
 155              	.LVL14:
 156 002a EBE7     		b	.L10
 157              	.L14:
  42:ultrasonic.c  ****     }
  43:ultrasonic.c  **** }
 158              		.loc 1 43 0
 159 002c 38BD     		pop	{r3, r4, r5, pc}
 160              	.L17:
 161 002e 00BF     		.align	2
 162              	.L16:
 163 0030 00000000 		.word	.LANCHOR0
 164              		.cfi_endproc
 165              	.LFE65:
 166              		.size	Sense, .-Sense
 167              		.global	obst_detect
 168              		.global	jaja
 169              		.comm	distance_str,100,1
 170              		.global	distance
 171              		.global	count
 172              		.section	.rodata.str1.1,"aMS",%progbits,1
 173              	.LC0:
 174 0000 54686520 		.ascii	"The distance is %.3f centimeters.\000"
 174      64697374 
 174      616E6365 
 174      20697320 
 174      252E3366 
 175              	.LC1:
 176 0022 0A00     		.ascii	"\012\000"
 177              		.data
 178              		.align	2
 179              		.type	jaja, %object
ARM GAS  C:\Users\Zwe\AppData\Local\Temp\cceFEHnt.s 			page 5


 180              		.size	jaja, 4
 181              	jaja:
 182 0000 0000B841 		.word	1102577664
 183              		.bss
 184              		.align	2
 185              		.set	.LANCHOR0,. + 0
 186              		.type	count, %object
 187              		.size	count, 2
 188              	count:
 189 0000 0000     		.space	2
 190 0002 0000     		.space	2
 191              		.type	distance, %object
 192              		.size	distance, 4
 193              	distance:
 194 0004 00000000 		.space	4
 195              		.type	obst_detect, %object
 196              		.size	obst_detect, 4
 197              	obst_detect:
 198 0008 00000000 		.space	4
 199              		.text
 200              	.Letext0:
 201              		.file 2 "c:\\program files (x86)\\cypress\\psoc creator\\4.2\\psoc creator\\import\\gnu\\arm\\5.4.
 202              		.file 3 "c:\\program files (x86)\\cypress\\psoc creator\\4.2\\psoc creator\\import\\gnu\\arm\\5.4.
 203              		.file 4 "Generated_Source\\PSoC5/cytypes.h"
 204              		.file 5 "Generated_Source\\PSoC5/core_cm3.h"
 205              		.file 6 "Generated_Source\\PSoC5/Timer_1.h"
 206              		.file 7 "c:\\program files (x86)\\cypress\\psoc creator\\4.2\\psoc creator\\import\\gnu\\arm\\5.4.
 207              		.file 8 "Generated_Source\\PSoC5/UART_1.h"
 208              		.file 9 "Generated_Source\\PSoC5/LED.h"
 209              		.file 10 "Generated_Source\\PSoC5/Control_Reg_1.h"
 210              		.file 11 "Generated_Source\\PSoC5/Echo_Pin.h"
 211              		.file 12 "Generated_Source\\PSoC5/Trigger.h"
 212              		.file 13 "Generated_Source\\PSoC5/CyLib.h"